
build/Snake.elf:     file format elf32-littlearm


Disassembly of section .init:

02000000 <_Z12InternalMainPFmmPvE>:
 2000000:	e92d4010 	push	{r4, lr}
 2000004:	e59f3014 	ldr	r3, [pc, #20]	; 2000020 <_Z12InternalMainPFmmPvE+0x20>
 2000008:	e5830000 	str	r0, [r3]
 200000c:	e59f0010 	ldr	r0, [pc, #16]	; 2000024 <_Z12InternalMainPFmmPvE+0x24>
 2000010:	eb0002f7 	bl	2000bf4 <_Z24ProgramSetMessageHandlerPv>
 2000014:	eb0002c1 	bl	2000b20 <_ZN8Graphics5SetupEv>
 2000018:	eb000018 	bl	2000080 <_Z4Mainv>
 200001c:	e8bd8010 	pop	{r4, pc}
 2000020:	0200a020 	andeq	sl, r0, #32
 2000024:	02000bbc 	andeq	r0, r0, #188, 22	; 0x2f000

Disassembly of section .text:

02000028 <_ZN11SnakeObjectC1Ev>:
 2000028:	e92d4010 	push	{r4, lr}
 200002c:	e1a04000 	mov	r4, r0
 2000030:	e3a02001 	mov	r2, #1
 2000034:	e3a01000 	mov	r1, #0
 2000038:	e1a00001 	mov	r0, r1
 200003c:	eb00005b 	bl	20001b0 <_Z14SetTileEnabledmmb>
 2000040:	e1a00004 	mov	r0, r4
 2000044:	e8bd8010 	pop	{r4, pc}

02000048 <_Z17MouseEventHandlerP10MouseEvent>:
 2000048:	e590300c 	ldr	r3, [r0, #12]
 200004c:	e3530000 	cmp	r3, #0
 2000050:	d12fff1e 	bxle	lr
 2000054:	e5902004 	ldr	r2, [r0, #4]
 2000058:	e3520000 	cmp	r2, #0
 200005c:	112fff1e 	bxne	lr
 2000060:	e5902008 	ldr	r2, [r0, #8]
 2000064:	e3520000 	cmp	r2, #0
 2000068:	03530004 	cmpeq	r3, #4
 200006c:	03a02000 	moveq	r2, #0
 2000070:	059f3004 	ldreq	r3, [pc, #4]	; 200007c <_Z17MouseEventHandlerP10MouseEvent+0x34>
 2000074:	05c32000 	strbeq	r2, [r3]
 2000078:	e12fff1e 	bx	lr
 200007c:	02000ff0 	andeq	r0, r0, #240, 30	; 0x3c0

02000080 <_Z4Mainv>:
 2000080:	e92d40f0 	push	{r4, r5, r6, r7, lr}
 2000084:	e24ddd81 	sub	sp, sp, #8256	; 0x2040
 2000088:	e24dd004 	sub	sp, sp, #4
 200008c:	e28d3008 	add	r3, sp, #8
 2000090:	e58d3004 	str	r3, [sp, #4]
 2000094:	e1a00003 	mov	r0, r3
 2000098:	ebffffe2 	bl	2000028 <_ZN11SnakeObjectC1Ev>
 200009c:	e59f20e4 	ldr	r2, [pc, #228]	; 2000188 <_Z4Mainv+0x108>
 20000a0:	e59d1004 	ldr	r1, [sp, #4]
 20000a4:	e59f00e0 	ldr	r0, [pc, #224]	; 200018c <_Z4Mainv+0x10c>
 20000a8:	eb000159 	bl	2000614 <memcpy>
 20000ac:	e59f00dc 	ldr	r0, [pc, #220]	; 2000190 <_Z4Mainv+0x110>
 20000b0:	eb0001c0 	bl	20007b8 <_Z20SetMouseEventHandlerPFvP10MouseEventE>
 20000b4:	e3a04000 	mov	r4, #0
 20000b8:	e3a06001 	mov	r6, #1
 20000bc:	e1a05004 	mov	r5, r4
 20000c0:	e3140001 	tst	r4, #1
 20000c4:	1a000003 	bne	20000d8 <_Z4Mainv+0x58>
 20000c8:	e1a02006 	mov	r2, r6
 20000cc:	e1a01005 	mov	r1, r5
 20000d0:	e1a00004 	mov	r0, r4
 20000d4:	eb000035 	bl	20001b0 <_Z14SetTileEnabledmmb>
 20000d8:	e2844001 	add	r4, r4, #1
 20000dc:	e3540078 	cmp	r4, #120	; 0x78
 20000e0:	1afffff6 	bne	20000c0 <_Z4Mainv+0x40>
 20000e4:	ea000004 	b	20000fc <_Z4Mainv+0x7c>
 20000e8:	e59f30a4 	ldr	r3, [pc, #164]	; 2000194 <_Z4Mainv+0x114>
 20000ec:	e5d33000 	ldrb	r3, [r3]
 20000f0:	e31300ff 	tst	r3, #255	; 0xff
 20000f4:	1a00000d 	bne	2000130 <_Z4Mainv+0xb0>
 20000f8:	ea00001e 	b	2000178 <_Z4Mainv+0xf8>
 20000fc:	e3a04000 	mov	r4, #0
 2000100:	e3a06001 	mov	r6, #1
 2000104:	e1a05004 	mov	r5, r4
 2000108:	e3140001 	tst	r4, #1
 200010c:	1a000003 	bne	2000120 <_Z4Mainv+0xa0>
 2000110:	e1a02006 	mov	r2, r6
 2000114:	e1a01004 	mov	r1, r4
 2000118:	e1a00005 	mov	r0, r5
 200011c:	eb000023 	bl	20001b0 <_Z14SetTileEnabledmmb>
 2000120:	e2844001 	add	r4, r4, #1
 2000124:	e3540041 	cmp	r4, #65	; 0x41
 2000128:	1afffff6 	bne	2000108 <_Z4Mainv+0x88>
 200012c:	eaffffed 	b	20000e8 <_Z4Mainv+0x68>
 2000130:	e3a04000 	mov	r4, #0
 2000134:	e59f705c 	ldr	r7, [pc, #92]	; 2000198 <_Z4Mainv+0x118>
 2000138:	e1a06004 	mov	r6, r4
 200013c:	e59f5050 	ldr	r5, [pc, #80]	; 2000194 <_Z4Mainv+0x114>
 2000140:	e1a02004 	mov	r2, r4
 2000144:	e1a01007 	mov	r1, r7
 2000148:	e28d0a02 	add	r0, sp, #8192	; 0x2000
 200014c:	e280000c 	add	r0, r0, #12
 2000150:	eb0000ba 	bl	2000440 <_Z12StringFormatPcS_z>
 2000154:	e1a03006 	mov	r3, r6
 2000158:	e1a02006 	mov	r2, r6
 200015c:	e1a01006 	mov	r1, r6
 2000160:	eb000245 	bl	2000a7c <_ZN8Graphics9PutStringEPciii>
 2000164:	eb000183 	bl	2000778 <_Z16DispatchMessagesv>
 2000168:	e2844001 	add	r4, r4, #1
 200016c:	e5d53000 	ldrb	r3, [r5]
 2000170:	e31300ff 	tst	r3, #255	; 0xff
 2000174:	1afffff1 	bne	2000140 <_Z4Mainv+0xc0>
 2000178:	e3a00000 	mov	r0, #0
 200017c:	e28ddd81 	add	sp, sp, #8256	; 0x2040
 2000180:	e28dd004 	add	sp, sp, #4
 2000184:	e8bd80f0 	pop	{r4, r5, r6, r7, pc}
 2000188:	00002004 	andeq	r2, r0, r4
 200018c:	02008004 	andeq	r8, r0, #4
 2000190:	02000048 	andeq	r0, r0, #72	; 0x48
 2000194:	02000ff0 	andeq	r0, r0, #240, 30	; 0x3c0
 2000198:	02000fd4 	andeq	r0, r0, #212, 30	; 0x350

0200019c <_GLOBAL__sub_I_Running>:
 200019c:	e92d4010 	push	{r4, lr}
 20001a0:	e59f0004 	ldr	r0, [pc, #4]	; 20001ac <_GLOBAL__sub_I_Running+0x10>
 20001a4:	ebffff9f 	bl	2000028 <_ZN11SnakeObjectC1Ev>
 20001a8:	e8bd8010 	pop	{r4, pc}
 20001ac:	02008004 	andeq	r8, r0, #4

020001b0 <_Z14SetTileEnabledmmb>:
 20001b0:	e3500077 	cmp	r0, #119	; 0x77
 20001b4:	93510040 	cmpls	r1, #64	; 0x40
 20001b8:	812fff1e 	bxhi	lr
 20001bc:	e92d4070 	push	{r4, r5, r6, lr}
 20001c0:	e1a04200 	lsl	r4, r0, #4
 20001c4:	e1a05201 	lsl	r5, r1, #4
 20001c8:	e3520000 	cmp	r2, #0
 20001cc:	13e004ff 	mvnne	r0, #-16777216	; 0xff000000
 20001d0:	03a00000 	moveq	r0, #0
 20001d4:	eb000198 	bl	200083c <_ZN8Graphics8SetColorEm>
 20001d8:	e285302c 	add	r3, r5, #44	; 0x2c
 20001dc:	e2842010 	add	r2, r4, #16
 20001e0:	e285101c 	add	r1, r5, #28
 20001e4:	e1a00004 	mov	r0, r4
 20001e8:	eb0001a1 	bl	2000874 <_ZN8Graphics8FillRectEmmmm>
 20001ec:	e8bd8070 	pop	{r4, r5, r6, pc}

020001f0 <_Z15StringGetLengthPc>:
 20001f0:	e3a03000 	mov	r3, #0
 20001f4:	e2833001 	add	r3, r3, #1
 20001f8:	e1f020d1 	ldrsb	r2, [r0, #1]!
 20001fc:	e3520000 	cmp	r2, #0
 2000200:	1afffffb 	bne	20001f4 <_Z15StringGetLengthPc+0x4>
 2000204:	e1a00003 	mov	r0, r3
 2000208:	e12fff1e 	bx	lr

0200020c <_Z10StringCopyPcPv>:
 200020c:	e92d4070 	push	{r4, r5, r6, lr}
 2000210:	e1a04000 	mov	r4, r0
 2000214:	e1a05001 	mov	r5, r1
 2000218:	ebfffff4 	bl	20001f0 <_Z15StringGetLengthPc>
 200021c:	e2802001 	add	r2, r0, #1
 2000220:	e1a01005 	mov	r1, r5
 2000224:	e1a00004 	mov	r0, r4
 2000228:	eb000101 	bl	2000634 <_Z10MemoryCopyPvS_i>
 200022c:	e8bd8070 	pop	{r4, r5, r6, pc}

02000230 <_Z11StringEqualPcS_>:
 2000230:	e92d4070 	push	{r4, r5, r6, lr}
 2000234:	e1a05000 	mov	r5, r0
 2000238:	e1a04001 	mov	r4, r1
 200023c:	ebffffeb 	bl	20001f0 <_Z15StringGetLengthPc>
 2000240:	e1a06000 	mov	r6, r0
 2000244:	e1a00004 	mov	r0, r4
 2000248:	ebffffe8 	bl	20001f0 <_Z15StringGetLengthPc>
 200024c:	e1560000 	cmp	r6, r0
 2000250:	1a000011 	bne	200029c <_Z11StringEqualPcS_+0x6c>
 2000254:	e3560000 	cmp	r6, #0
 2000258:	0a000011 	beq	20002a4 <_Z11StringEqualPcS_+0x74>
 200025c:	e1d520d0 	ldrsb	r2, [r5]
 2000260:	e1d430d0 	ldrsb	r3, [r4]
 2000264:	e1520003 	cmp	r2, r3
 2000268:	1a00000f 	bne	20002ac <_Z11StringEqualPcS_+0x7c>
 200026c:	e2853001 	add	r3, r5, #1
 2000270:	e1a01004 	mov	r1, r4
 2000274:	e0850006 	add	r0, r5, r6
 2000278:	ea000003 	b	200028c <_Z11StringEqualPcS_+0x5c>
 200027c:	e1f1c0d1 	ldrsb	ip, [r1, #1]!
 2000280:	e0d320d1 	ldrsb	r2, [r3], #1
 2000284:	e15c0002 	cmp	ip, r2
 2000288:	1a000009 	bne	20002b4 <_Z11StringEqualPcS_+0x84>
 200028c:	e1530000 	cmp	r3, r0
 2000290:	1afffff9 	bne	200027c <_Z11StringEqualPcS_+0x4c>
 2000294:	e3a00001 	mov	r0, #1
 2000298:	e8bd8070 	pop	{r4, r5, r6, pc}
 200029c:	e3a00000 	mov	r0, #0
 20002a0:	e8bd8070 	pop	{r4, r5, r6, pc}
 20002a4:	e3a00001 	mov	r0, #1
 20002a8:	e8bd8070 	pop	{r4, r5, r6, pc}
 20002ac:	e3a00000 	mov	r0, #0
 20002b0:	e8bd8070 	pop	{r4, r5, r6, pc}
 20002b4:	e3a00000 	mov	r0, #0
 20002b8:	e8bd8070 	pop	{r4, r5, r6, pc}

020002bc <_Z12StringConcatPcS_>:
 20002bc:	e92d41f0 	push	{r4, r5, r6, r7, r8, lr}
 20002c0:	e1a05000 	mov	r5, r0
 20002c4:	e1a06001 	mov	r6, r1
 20002c8:	ebffffc8 	bl	20001f0 <_Z15StringGetLengthPc>
 20002cc:	e1a04000 	mov	r4, r0
 20002d0:	e1a00006 	mov	r0, r6
 20002d4:	ebffffc5 	bl	20001f0 <_Z15StringGetLengthPc>
 20002d8:	e1a07000 	mov	r7, r0
 20002dc:	e0854004 	add	r4, r5, r4
 20002e0:	e1a01004 	mov	r1, r4
 20002e4:	e1a00006 	mov	r0, r6
 20002e8:	ebffffc7 	bl	200020c <_Z10StringCopyPcPv>
 20002ec:	e3a03000 	mov	r3, #0
 20002f0:	e7c43007 	strb	r3, [r4, r7]
 20002f4:	e1a00005 	mov	r0, r5
 20002f8:	e8bd81f0 	pop	{r4, r5, r6, r7, r8, pc}

020002fc <_Z25StringConvertUnsignedLongPcy>:
 20002fc:	e92d4370 	push	{r4, r5, r6, r8, r9, lr}
 2000300:	e1a04002 	mov	r4, r2
 2000304:	e1a05003 	mov	r5, r3
 2000308:	e2806014 	add	r6, r0, #20
 200030c:	e3a03000 	mov	r3, #0
 2000310:	e5c03014 	strb	r3, [r0, #20]
 2000314:	e3a0800a 	mov	r8, #10
 2000318:	e3a09000 	mov	r9, #0
 200031c:	e1a02008 	mov	r2, r8
 2000320:	e1a03009 	mov	r3, r9
 2000324:	e1a00004 	mov	r0, r4
 2000328:	e1a01005 	mov	r1, r5
 200032c:	eb000235 	bl	2000c08 <__aeabi_uldivmod>
 2000330:	e2822030 	add	r2, r2, #48	; 0x30
 2000334:	e5662001 	strb	r2, [r6, #-1]!
 2000338:	e1a02008 	mov	r2, r8
 200033c:	e1a03009 	mov	r3, r9
 2000340:	e1a00004 	mov	r0, r4
 2000344:	e1a01005 	mov	r1, r5
 2000348:	eb00022e 	bl	2000c08 <__aeabi_uldivmod>
 200034c:	e1a04000 	mov	r4, r0
 2000350:	e1a05001 	mov	r5, r1
 2000354:	e1943005 	orrs	r3, r4, r5
 2000358:	1affffef 	bne	200031c <_Z25StringConvertUnsignedLongPcy+0x20>
 200035c:	e1a00006 	mov	r0, r6
 2000360:	e8bd8370 	pop	{r4, r5, r6, r8, r9, pc}

02000364 <_Z17StringConvertLongPcx>:
 2000364:	e92d4010 	push	{r4, lr}
 2000368:	e3520000 	cmp	r2, #0
 200036c:	e2d31000 	sbcs	r1, r3, #0
 2000370:	aa000007 	bge	2000394 <_Z17StringConvertLongPcx+0x30>
 2000374:	e2722000 	rsbs	r2, r2, #0
 2000378:	e2e33000 	rsc	r3, r3, #0
 200037c:	ebffffde 	bl	20002fc <_Z25StringConvertUnsignedLongPcy>
 2000380:	e1a03000 	mov	r3, r0
 2000384:	e2400001 	sub	r0, r0, #1
 2000388:	e3a0202d 	mov	r2, #45	; 0x2d
 200038c:	e5432001 	strb	r2, [r3, #-1]
 2000390:	e8bd8010 	pop	{r4, pc}
 2000394:	ebffffd8 	bl	20002fc <_Z25StringConvertUnsignedLongPcy>
 2000398:	e8bd8010 	pop	{r4, pc}

0200039c <_Z16StringConvertHexPcx>:
 200039c:	e92d00f0 	push	{r4, r5, r6, r7}
 20003a0:	e2801014 	add	r1, r0, #20
 20003a4:	e3a0c000 	mov	ip, #0
 20003a8:	e5c0c014 	strb	ip, [r0, #20]
 20003ac:	e59f0050 	ldr	r0, [pc, #80]	; 2000404 <_Z16StringConvertHexPcx+0x68>
 20003b0:	e1a04fc3 	asr	r4, r3, #31
 20003b4:	e0226004 	eor	r6, r2, r4
 20003b8:	e0566004 	subs	r6, r6, r4
 20003bc:	e206600f 	and	r6, r6, #15
 20003c0:	e0266004 	eor	r6, r6, r4
 20003c4:	e0566004 	subs	r6, r6, r4
 20003c8:	e0806006 	add	r6, r0, r6
 20003cc:	e5d6c000 	ldrb	ip, [r6]
 20003d0:	e561c001 	strb	ip, [r1, #-1]!
 20003d4:	e204400f 	and	r4, r4, #15
 20003d8:	e3a05000 	mov	r5, #0
 20003dc:	e0944002 	adds	r4, r4, r2
 20003e0:	e0a55003 	adc	r5, r5, r3
 20003e4:	e1a0c224 	lsr	ip, r4, #4
 20003e8:	e18c2e05 	orr	r2, ip, r5, lsl #28
 20003ec:	e1a03245 	asr	r3, r5, #4
 20003f0:	e192c003 	orrs	ip, r2, r3
 20003f4:	1affffed 	bne	20003b0 <_Z16StringConvertHexPcx+0x14>
 20003f8:	e1a00001 	mov	r0, r1
 20003fc:	e8bd00f0 	pop	{r4, r5, r6, r7}
 2000400:	e12fff1e 	bx	lr
 2000404:	02000fd8 	andeq	r0, r0, #216, 30	; 0x360

02000408 <_Z11StringUpperPc>:
 2000408:	e5d03000 	ldrb	r3, [r0]
 200040c:	e3530000 	cmp	r3, #0
 2000410:	012fff1e 	bxeq	lr
 2000414:	e1a01000 	mov	r1, r0
 2000418:	e6ef3073 	uxtb	r3, r3
 200041c:	e2432061 	sub	r2, r3, #97	; 0x61
 2000420:	e6ef2072 	uxtb	r2, r2
 2000424:	e3520019 	cmp	r2, #25
 2000428:	92433020 	subls	r3, r3, #32
 200042c:	95c13000 	strbls	r3, [r1]
 2000430:	e5f13001 	ldrb	r3, [r1, #1]!
 2000434:	e3530000 	cmp	r3, #0
 2000438:	1afffff6 	bne	2000418 <_Z11StringUpperPc+0x10>
 200043c:	e12fff1e 	bx	lr

02000440 <_Z12StringFormatPcS_z>:
 2000440:	e92d000e 	push	{r1, r2, r3}
 2000444:	e92d47f0 	push	{r4, r5, r6, r7, r8, r9, sl, lr}
 2000448:	e24dd02c 	sub	sp, sp, #44	; 0x2c
 200044c:	e1a07000 	mov	r7, r0
 2000450:	e59d604c 	ldr	r6, [sp, #76]	; 0x4c
 2000454:	e28d3050 	add	r3, sp, #80	; 0x50
 2000458:	e58d3024 	str	r3, [sp, #36]	; 0x24
 200045c:	e5d63000 	ldrb	r3, [r6]
 2000460:	e3530000 	cmp	r3, #0
 2000464:	0a000056 	beq	20005c4 <_Z12StringFormatPcS_z+0x184>
 2000468:	e3a04000 	mov	r4, #0
 200046c:	e1a05004 	mov	r5, r4
 2000470:	e1a08004 	mov	r8, r4
 2000474:	e3a09025 	mov	r9, #37	; 0x25
 2000478:	e6af2073 	sxtb	r2, r3
 200047c:	e3520025 	cmp	r2, #37	; 0x25
 2000480:	17c73004 	strbne	r3, [r7, r4]
 2000484:	1a000049 	bne	20005b0 <_Z12StringFormatPcS_z+0x170>
 2000488:	e2855001 	add	r5, r5, #1
 200048c:	e7d63005 	ldrb	r3, [r6, r5]
 2000490:	e6af2073 	sxtb	r2, r3
 2000494:	e3520025 	cmp	r2, #37	; 0x25
 2000498:	07c79004 	strbeq	r9, [r7, r4]
 200049c:	0a000043 	beq	20005b0 <_Z12StringFormatPcS_z+0x170>
 20004a0:	e6af2073 	sxtb	r2, r3
 20004a4:	e3520073 	cmp	r2, #115	; 0x73
 20004a8:	1a000004 	bne	20004c0 <_Z12StringFormatPcS_z+0x80>
 20004ac:	e59d3024 	ldr	r3, [sp, #36]	; 0x24
 20004b0:	e2832004 	add	r2, r3, #4
 20004b4:	e58d2024 	str	r2, [sp, #36]	; 0x24
 20004b8:	e593a000 	ldr	sl, [r3]
 20004bc:	ea000033 	b	2000590 <_Z12StringFormatPcS_z+0x150>
 20004c0:	e6af2073 	sxtb	r2, r3
 20004c4:	e3520075 	cmp	r2, #117	; 0x75
 20004c8:	1a000008 	bne	20004f0 <_Z12StringFormatPcS_z+0xb0>
 20004cc:	e59d3024 	ldr	r3, [sp, #36]	; 0x24
 20004d0:	e2832004 	add	r2, r3, #4
 20004d4:	e58d2024 	str	r2, [sp, #36]	; 0x24
 20004d8:	e5932000 	ldr	r2, [r3]
 20004dc:	e1a03008 	mov	r3, r8
 20004e0:	e28d0004 	add	r0, sp, #4
 20004e4:	ebffff84 	bl	20002fc <_Z25StringConvertUnsignedLongPcy>
 20004e8:	e1a0a000 	mov	sl, r0
 20004ec:	ea000027 	b	2000590 <_Z12StringFormatPcS_z+0x150>
 20004f0:	e6af2073 	sxtb	r2, r3
 20004f4:	e3520069 	cmp	r2, #105	; 0x69
 20004f8:	1a000008 	bne	2000520 <_Z12StringFormatPcS_z+0xe0>
 20004fc:	e59d3024 	ldr	r3, [sp, #36]	; 0x24
 2000500:	e2832004 	add	r2, r3, #4
 2000504:	e58d2024 	str	r2, [sp, #36]	; 0x24
 2000508:	e5932000 	ldr	r2, [r3]
 200050c:	e1a03fc2 	asr	r3, r2, #31
 2000510:	e28d0004 	add	r0, sp, #4
 2000514:	ebffff92 	bl	2000364 <_Z17StringConvertLongPcx>
 2000518:	e1a0a000 	mov	sl, r0
 200051c:	ea00001b 	b	2000590 <_Z12StringFormatPcS_z+0x150>
 2000520:	e6af2073 	sxtb	r2, r3
 2000524:	e3520078 	cmp	r2, #120	; 0x78
 2000528:	1a000009 	bne	2000554 <_Z12StringFormatPcS_z+0x114>
 200052c:	e59d3024 	ldr	r3, [sp, #36]	; 0x24
 2000530:	e2833007 	add	r3, r3, #7
 2000534:	e3c33007 	bic	r3, r3, #7
 2000538:	e2832008 	add	r2, r3, #8
 200053c:	e58d2024 	str	r2, [sp, #36]	; 0x24
 2000540:	e1c320d0 	ldrd	r2, [r3]
 2000544:	e28d0004 	add	r0, sp, #4
 2000548:	ebffff93 	bl	200039c <_Z16StringConvertHexPcx>
 200054c:	e1a0a000 	mov	sl, r0
 2000550:	ea00000e 	b	2000590 <_Z12StringFormatPcS_z+0x150>
 2000554:	e6af3073 	sxtb	r3, r3
 2000558:	e3530058 	cmp	r3, #88	; 0x58
 200055c:	11a0a008 	movne	sl, r8
 2000560:	1a00000a 	bne	2000590 <_Z12StringFormatPcS_z+0x150>
 2000564:	e59d3024 	ldr	r3, [sp, #36]	; 0x24
 2000568:	e2833007 	add	r3, r3, #7
 200056c:	e3c33007 	bic	r3, r3, #7
 2000570:	e2832008 	add	r2, r3, #8
 2000574:	e58d2024 	str	r2, [sp, #36]	; 0x24
 2000578:	e1c320d0 	ldrd	r2, [r3]
 200057c:	e28d0004 	add	r0, sp, #4
 2000580:	ebffff85 	bl	200039c <_Z16StringConvertHexPcx>
 2000584:	ebffff9f 	bl	2000408 <_Z11StringUpperPc>
 2000588:	e1a0a000 	mov	sl, r0
 200058c:	eaffffff 	b	2000590 <_Z12StringFormatPcS_z+0x150>
 2000590:	e0871004 	add	r1, r7, r4
 2000594:	e1a0000a 	mov	r0, sl
 2000598:	ebffff1b 	bl	200020c <_Z10StringCopyPcPv>
 200059c:	e1a0000a 	mov	r0, sl
 20005a0:	ebffff12 	bl	20001f0 <_Z15StringGetLengthPc>
 20005a4:	e2444001 	sub	r4, r4, #1
 20005a8:	e0844000 	add	r4, r4, r0
 20005ac:	eaffffff 	b	20005b0 <_Z12StringFormatPcS_z+0x170>
 20005b0:	e2855001 	add	r5, r5, #1
 20005b4:	e2844001 	add	r4, r4, #1
 20005b8:	e7d63005 	ldrb	r3, [r6, r5]
 20005bc:	e3530000 	cmp	r3, #0
 20005c0:	1affffac 	bne	2000478 <_Z12StringFormatPcS_z+0x38>
 20005c4:	e1a00007 	mov	r0, r7
 20005c8:	e28dd02c 	add	sp, sp, #44	; 0x2c
 20005cc:	e8bd47f0 	pop	{r4, r5, r6, r7, r8, r9, sl, lr}
 20005d0:	e28dd00c 	add	sp, sp, #12
 20005d4:	e12fff1e 	bx	lr

020005d8 <_Z11StringLowerPc>:
 20005d8:	e5d03000 	ldrb	r3, [r0]
 20005dc:	e3530000 	cmp	r3, #0
 20005e0:	012fff1e 	bxeq	lr
 20005e4:	e1a01000 	mov	r1, r0
 20005e8:	e6ef3073 	uxtb	r3, r3
 20005ec:	e2432041 	sub	r2, r3, #65	; 0x41
 20005f0:	e6ef2072 	uxtb	r2, r2
 20005f4:	e3520019 	cmp	r2, #25
 20005f8:	92833020 	addls	r3, r3, #32
 20005fc:	95c13000 	strbls	r3, [r1]
 2000600:	e5f13001 	ldrb	r3, [r1, #1]!
 2000604:	e3530000 	cmp	r3, #0
 2000608:	1afffff6 	bne	20005e8 <_Z11StringLowerPc+0x10>
 200060c:	e12fff1e 	bx	lr

02000610 <abort>:
 2000610:	e1a0f00e 	mov	pc, lr

02000614 <memcpy>:
 2000614:	e1a0f00e 	mov	pc, lr

02000618 <_Z9MemorySetPvci>:
 2000618:	e3520000 	cmp	r2, #0
 200061c:	012fff1e 	bxeq	lr
 2000620:	e0802002 	add	r2, r0, r2
 2000624:	e4c01001 	strb	r1, [r0], #1
 2000628:	e1520000 	cmp	r2, r0
 200062c:	1afffffc 	bne	2000624 <_Z9MemorySetPvci+0xc>
 2000630:	e12fff1e 	bx	lr

02000634 <_Z10MemoryCopyPvS_i>:
 2000634:	e3520000 	cmp	r2, #0
 2000638:	0a000037 	beq	200071c <_Z10MemoryCopyPvS_i+0xe8>
 200063c:	e1a03000 	mov	r3, r0
 2000640:	e280c004 	add	ip, r0, #4
 2000644:	e2810004 	add	r0, r1, #4
 2000648:	e1530000 	cmp	r3, r0
 200064c:	3151000c 	cmpcc	r1, ip
 2000650:	23a0c001 	movcs	ip, #1
 2000654:	33a0c000 	movcc	ip, #0
 2000658:	e1830001 	orr	r0, r3, r1
 200065c:	e3520009 	cmp	r2, #9
 2000660:	93a0c000 	movls	ip, #0
 2000664:	820cc001 	andhi	ip, ip, #1
 2000668:	e3100003 	tst	r0, #3
 200066c:	13a0c000 	movne	ip, #0
 2000670:	020cc001 	andeq	ip, ip, #1
 2000674:	e35c0000 	cmp	ip, #0
 2000678:	0a000021 	beq	2000704 <_Z10MemoryCopyPvS_i+0xd0>
 200067c:	e2420004 	sub	r0, r2, #4
 2000680:	e92d40f0 	push	{r4, r5, r6, r7, lr}
 2000684:	e1a00120 	lsr	r0, r0, #2
 2000688:	e242e001 	sub	lr, r2, #1
 200068c:	e2800001 	add	r0, r0, #1
 2000690:	e35e0002 	cmp	lr, #2
 2000694:	e1a0c100 	lsl	ip, r0, #2
 2000698:	9a000017 	bls	20006fc <_Z10MemoryCopyPvS_i+0xc8>
 200069c:	e1a06001 	mov	r6, r1
 20006a0:	e3a04000 	mov	r4, #0
 20006a4:	e2435004 	sub	r5, r3, #4
 20006a8:	e2844001 	add	r4, r4, #1
 20006ac:	e5b57004 	ldr	r7, [r5, #4]!
 20006b0:	e1500004 	cmp	r0, r4
 20006b4:	e4867004 	str	r7, [r6], #4
 20006b8:	8afffffa 	bhi	20006a8 <_Z10MemoryCopyPvS_i+0x74>
 20006bc:	e152000c 	cmp	r2, ip
 20006c0:	e083300c 	add	r3, r3, ip
 20006c4:	e06ce00e 	rsb	lr, ip, lr
 20006c8:	e081c00c 	add	ip, r1, ip
 20006cc:	0a000008 	beq	20006f4 <_Z10MemoryCopyPvS_i+0xc0>
 20006d0:	e5d32000 	ldrb	r2, [r3]
 20006d4:	e35e0000 	cmp	lr, #0
 20006d8:	e5cc2000 	strb	r2, [ip]
 20006dc:	0a000004 	beq	20006f4 <_Z10MemoryCopyPvS_i+0xc0>
 20006e0:	e5d32001 	ldrb	r2, [r3, #1]
 20006e4:	e35e0001 	cmp	lr, #1
 20006e8:	e5cc2001 	strb	r2, [ip, #1]
 20006ec:	15d33002 	ldrbne	r3, [r3, #2]
 20006f0:	15cc3002 	strbne	r3, [ip, #2]
 20006f4:	e1a00001 	mov	r0, r1
 20006f8:	e8bd80f0 	pop	{r4, r5, r6, r7, pc}
 20006fc:	e1a0c001 	mov	ip, r1
 2000700:	eafffff2 	b	20006d0 <_Z10MemoryCopyPvS_i+0x9c>
 2000704:	e0832002 	add	r2, r3, r2
 2000708:	e2410001 	sub	r0, r1, #1
 200070c:	e4d3c001 	ldrb	ip, [r3], #1
 2000710:	e1530002 	cmp	r3, r2
 2000714:	e5e0c001 	strb	ip, [r0, #1]!
 2000718:	1afffffb 	bne	200070c <_Z10MemoryCopyPvS_i+0xd8>
 200071c:	e1a00001 	mov	r0, r1
 2000720:	e12fff1e 	bx	lr

02000724 <_Z13MemoryComparePvS_i>:
 2000724:	e0812002 	add	r2, r1, r2
 2000728:	e1510002 	cmp	r1, r2
 200072c:	0a000005 	beq	2000748 <_Z13MemoryComparePvS_i+0x24>
 2000730:	e0d1c0d1 	ldrsb	ip, [r1], #1
 2000734:	e0d030d1 	ldrsb	r3, [r0], #1
 2000738:	e15c0003 	cmp	ip, r3
 200073c:	0afffff9 	beq	2000728 <_Z13MemoryComparePvS_i+0x4>
 2000740:	e3a00000 	mov	r0, #0
 2000744:	e12fff1e 	bx	lr
 2000748:	e3a00001 	mov	r0, #1
 200074c:	e12fff1e 	bx	lr

02000750 <_Z16GetProgramByNamePc>:
 2000750:	e92d4010 	push	{r4, lr}
 2000754:	e1a01000 	mov	r1, r0
 2000758:	e3a00004 	mov	r0, #4
 200075c:	eb000110 	bl	2000ba4 <_Z10SystemCallmPv>
 2000760:	e8bd8010 	pop	{r4, pc}

02000764 <_Z14GetProgramListv>:
 2000764:	e92d4010 	push	{r4, lr}
 2000768:	e3a01000 	mov	r1, #0
 200076c:	e3a00003 	mov	r0, #3
 2000770:	eb00010b 	bl	2000ba4 <_Z10SystemCallmPv>
 2000774:	e8bd8010 	pop	{r4, pc}

02000778 <_Z16DispatchMessagesv>:
 2000778:	e92d4010 	push	{r4, lr}
 200077c:	e3a01000 	mov	r1, #0
 2000780:	e3a00005 	mov	r0, #5
 2000784:	eb000106 	bl	2000ba4 <_Z10SystemCallmPv>
 2000788:	e8bd8010 	pop	{r4, pc}

0200078c <_Z15ProcessRawInputP5Input>:
 200078c:	e5903000 	ldr	r3, [r0]
 2000790:	e3530000 	cmp	r3, #0
 2000794:	112fff1e 	bxne	lr
 2000798:	e59f3014 	ldr	r3, [pc, #20]	; 20007b4 <_Z15ProcessRawInputP5Input+0x28>
 200079c:	e5933000 	ldr	r3, [r3]
 20007a0:	e3530000 	cmp	r3, #0
 20007a4:	012fff1e 	bxeq	lr
 20007a8:	e92d4010 	push	{r4, lr}
 20007ac:	e12fff33 	blx	r3
 20007b0:	e8bd8010 	pop	{r4, pc}
 20007b4:	0200a008 	andeq	sl, r0, #8

020007b8 <_Z20SetMouseEventHandlerPFvP10MouseEventE>:
 20007b8:	e59f3004 	ldr	r3, [pc, #4]	; 20007c4 <_Z20SetMouseEventHandlerPFvP10MouseEventE+0xc>
 20007bc:	e5830000 	str	r0, [r3]
 20007c0:	e12fff1e 	bx	lr
 20007c4:	0200a008 	andeq	sl, r0, #8

020007c8 <_ZN8Graphics8SetPixelEmm>:
 20007c8:	e59f3044 	ldr	r3, [pc, #68]	; 2000814 <_ZN8Graphics8SetPixelEmm+0x4c>
 20007cc:	e0800080 	add	r0, r0, r0, lsl #1
 20007d0:	e5933000 	ldr	r3, [r3]
 20007d4:	e59f203c 	ldr	r2, [pc, #60]	; 2000818 <_ZN8Graphics8SetPixelEmm+0x50>
 20007d8:	e5933010 	ldr	r3, [r3, #16]
 20007dc:	e59fc038 	ldr	ip, [pc, #56]	; 200081c <_ZN8Graphics8SetPixelEmm+0x54>
 20007e0:	e0210193 	mla	r1, r3, r1, r0
 20007e4:	e5d20000 	ldrb	r0, [r2]
 20007e8:	e59c3000 	ldr	r3, [ip]
 20007ec:	e7c30001 	strb	r0, [r3, r1]
 20007f0:	e59c3000 	ldr	r3, [ip]
 20007f4:	e5d20001 	ldrb	r0, [r2, #1]
 20007f8:	e0833001 	add	r3, r3, r1
 20007fc:	e5c30001 	strb	r0, [r3, #1]
 2000800:	e59c0000 	ldr	r0, [ip]
 2000804:	e5d23002 	ldrb	r3, [r2, #2]
 2000808:	e0801001 	add	r1, r0, r1
 200080c:	e5c13002 	strb	r3, [r1, #2]
 2000810:	e12fff1e 	bx	lr
 2000814:	0200a010 	andeq	sl, r0, #16
 2000818:	02000ff4 	andeq	r0, r0, #244, 30	; 0x3d0
 200081c:	0200a014 	andeq	sl, r0, #20

02000820 <_ZN8Graphics8GetPixelEmm>:
 2000820:	e59f3010 	ldr	r3, [pc, #16]	; 2000838 <_ZN8Graphics8GetPixelEmm+0x18>
 2000824:	e0800080 	add	r0, r0, r0, lsl #1
 2000828:	e5933000 	ldr	r3, [r3]
 200082c:	e5933010 	ldr	r3, [r3, #16]
 2000830:	e0200193 	mla	r0, r3, r1, r0
 2000834:	e12fff1e 	bx	lr
 2000838:	0200a010 	andeq	sl, r0, #16

0200083c <_ZN8Graphics8SetColorEm>:
 200083c:	e59f3014 	ldr	r3, [pc, #20]	; 2000858 <_ZN8Graphics8SetColorEm+0x1c>
 2000840:	e5c30000 	strb	r0, [r3]
 2000844:	e1a02420 	lsr	r2, r0, #8
 2000848:	e5c32001 	strb	r2, [r3, #1]
 200084c:	e1a00820 	lsr	r0, r0, #16
 2000850:	e5c30002 	strb	r0, [r3, #2]
 2000854:	e12fff1e 	bx	lr
 2000858:	02000ff4 	andeq	r0, r0, #244, 30	; 0x3d0

0200085c <_ZN8Graphics8SetColorEiii>:
 200085c:	e59f300c 	ldr	r3, [pc, #12]	; 2000870 <_ZN8Graphics8SetColorEiii+0x14>
 2000860:	e5c30000 	strb	r0, [r3]
 2000864:	e5c31001 	strb	r1, [r3, #1]
 2000868:	e5c32002 	strb	r2, [r3, #2]
 200086c:	e12fff1e 	bx	lr
 2000870:	02000ff4 	andeq	r0, r0, #244, 30	; 0x3d0

02000874 <_ZN8Graphics8FillRectEmmmm>:
 2000874:	e1500002 	cmp	r0, r2
 2000878:	212fff1e 	bxcs	lr
 200087c:	e92d41f0 	push	{r4, r5, r6, r7, r8, lr}
 2000880:	e59f806c 	ldr	r8, [pc, #108]	; 20008f4 <_ZN8Graphics8FillRectEmmmm+0x80>
 2000884:	e59f606c 	ldr	r6, [pc, #108]	; 20008f8 <_ZN8Graphics8FillRectEmmmm+0x84>
 2000888:	e59f506c 	ldr	r5, [pc, #108]	; 20008fc <_ZN8Graphics8FillRectEmmmm+0x88>
 200088c:	e0800080 	add	r0, r0, r0, lsl #1
 2000890:	e0822082 	add	r2, r2, r2, lsl #1
 2000894:	e1510003 	cmp	r1, r3
 2000898:	31a0e001 	movcc	lr, r1
 200089c:	2a000010 	bcs	20008e4 <_ZN8Graphics8FillRectEmmmm+0x70>
 20008a0:	e598c000 	ldr	ip, [r8]
 20008a4:	e5d67000 	ldrb	r7, [r6]
 20008a8:	e59cc010 	ldr	ip, [ip, #16]
 20008ac:	e5954000 	ldr	r4, [r5]
 20008b0:	e02c0e9c 	mla	ip, ip, lr, r0
 20008b4:	e7c4700c 	strb	r7, [r4, ip]
 20008b8:	e5954000 	ldr	r4, [r5]
 20008bc:	e5d67001 	ldrb	r7, [r6, #1]
 20008c0:	e084400c 	add	r4, r4, ip
 20008c4:	e5c47001 	strb	r7, [r4, #1]
 20008c8:	e5954000 	ldr	r4, [r5]
 20008cc:	e28ee001 	add	lr, lr, #1
 20008d0:	e5d67002 	ldrb	r7, [r6, #2]
 20008d4:	e084c00c 	add	ip, r4, ip
 20008d8:	e153000e 	cmp	r3, lr
 20008dc:	e5cc7002 	strb	r7, [ip, #2]
 20008e0:	1affffee 	bne	20008a0 <_ZN8Graphics8FillRectEmmmm+0x2c>
 20008e4:	e2800003 	add	r0, r0, #3
 20008e8:	e1500002 	cmp	r0, r2
 20008ec:	1affffe8 	bne	2000894 <_ZN8Graphics8FillRectEmmmm+0x20>
 20008f0:	e8bd81f0 	pop	{r4, r5, r6, r7, r8, pc}
 20008f4:	0200a010 	andeq	sl, r0, #16
 20008f8:	02000ff4 	andeq	r0, r0, #244, 30	; 0x3d0
 20008fc:	0200a014 	andeq	sl, r0, #20

02000900 <_ZN8Graphics22SetTextBackgroundColorEm>:
 2000900:	e59f3014 	ldr	r3, [pc, #20]	; 200091c <_ZN8Graphics22SetTextBackgroundColorEm+0x1c>
 2000904:	e5c30000 	strb	r0, [r3]
 2000908:	e1a02420 	lsr	r2, r0, #8
 200090c:	e5c32001 	strb	r2, [r3, #1]
 2000910:	e1a00820 	lsr	r0, r0, #16
 2000914:	e5c30002 	strb	r0, [r3, #2]
 2000918:	e12fff1e 	bx	lr
 200091c:	0200a00c 	andeq	sl, r0, #12

02000920 <_ZN8Graphics22SetTextForegroundColorEm>:
 2000920:	e59f3014 	ldr	r3, [pc, #20]	; 200093c <_ZN8Graphics22SetTextForegroundColorEm+0x1c>
 2000924:	e5c30000 	strb	r0, [r3]
 2000928:	e1a02420 	lsr	r2, r0, #8
 200092c:	e5c32001 	strb	r2, [r3, #1]
 2000930:	e1a00820 	lsr	r0, r0, #16
 2000934:	e5c30002 	strb	r0, [r3, #2]
 2000938:	e12fff1e 	bx	lr
 200093c:	02000ff8 	andeq	r0, r0, #248, 30	; 0x3e0

02000940 <_ZN8Graphics11SetTextFontEm>:
 2000940:	e59f3004 	ldr	r3, [pc, #4]	; 200094c <_ZN8Graphics11SetTextFontEm+0xc>
 2000944:	e5830004 	str	r0, [r3, #4]
 2000948:	e12fff1e 	bx	lr
 200094c:	02000ff8 	andeq	r0, r0, #248, 30	; 0x3e0

02000950 <_ZN8Graphics7PutCharEiii>:
 2000950:	e3510077 	cmp	r1, #119	; 0x77
 2000954:	93520025 	cmpls	r2, #37	; 0x25
 2000958:	812fff1e 	bxhi	lr
 200095c:	e92d4ff0 	push	{r4, r5, r6, r7, r8, r9, sl, fp, lr}
 2000960:	e59fe104 	ldr	lr, [pc, #260]	; 2000a6c <_ZN8Graphics7PutCharEiii+0x11c>
 2000964:	e3a06000 	mov	r6, #0
 2000968:	e1a0500e 	mov	r5, lr
 200096c:	e3a0a902 	mov	sl, #32768	; 0x8000
 2000970:	e0622182 	rsb	r2, r2, r2, lsl #3
 2000974:	e1a03281 	lsl	r3, r1, #5
 2000978:	e24dd00c 	sub	sp, sp, #12
 200097c:	e0600180 	rsb	r0, r0, r0, lsl #3
 2000980:	e1a02102 	lsl	r2, r2, #2
 2000984:	e0833201 	add	r3, r3, r1, lsl #4
 2000988:	e59f90e0 	ldr	r9, [pc, #224]	; 2000a70 <_ZN8Graphics7PutCharEiii+0x120>
 200098c:	e59fc0e0 	ldr	ip, [pc, #224]	; 2000a74 <_ZN8Graphics7PutCharEiii+0x124>
 2000990:	e59f40e0 	ldr	r4, [pc, #224]	; 2000a78 <_ZN8Graphics7PutCharEiii+0x128>
 2000994:	e58d2004 	str	r2, [sp, #4]
 2000998:	e1a08100 	lsl	r8, r0, #2
 200099c:	e58d3000 	str	r3, [sp]
 20009a0:	e59d3004 	ldr	r3, [sp, #4]
 20009a4:	e59d0000 	ldr	r0, [sp]
 20009a8:	e3a01000 	mov	r1, #0
 20009ac:	e0867003 	add	r7, r6, r3
 20009b0:	ea00000e 	b	20009f0 <_ZN8Graphics7PutCharEiii+0xa0>
 20009b4:	e5d5b002 	ldrb	fp, [r5, #2]
 20009b8:	e59c2000 	ldr	r2, [ip]
 20009bc:	e2811001 	add	r1, r1, #1
 20009c0:	e7c2b003 	strb	fp, [r2, r3]
 20009c4:	e59c2000 	ldr	r2, [ip]
 20009c8:	e5d5b001 	ldrb	fp, [r5, #1]
 20009cc:	e0822003 	add	r2, r2, r3
 20009d0:	e5c2b001 	strb	fp, [r2, #1]
 20009d4:	e59cb000 	ldr	fp, [ip]
 20009d8:	e5d52002 	ldrb	r2, [r5, #2]
 20009dc:	e08b3003 	add	r3, fp, r3
 20009e0:	e3510010 	cmp	r1, #16
 20009e4:	e5c32002 	strb	r2, [r3, #2]
 20009e8:	e2800003 	add	r0, r0, #3
 20009ec:	0a000019 	beq	2000a58 <_ZN8Graphics7PutCharEiii+0x108>
 20009f0:	e59e3004 	ldr	r3, [lr, #4]
 20009f4:	e5992000 	ldr	r2, [r9]
 20009f8:	e0633183 	rsb	r3, r3, r3, lsl #3
 20009fc:	e0883503 	add	r3, r8, r3, lsl #10
 2000a00:	e0833006 	add	r3, r3, r6
 2000a04:	e08e3083 	add	r3, lr, r3, lsl #1
 2000a08:	e1d3b0b8 	ldrh	fp, [r3, #8]
 2000a0c:	e5923010 	ldr	r3, [r2, #16]
 2000a10:	e01b215a 	ands	r2, fp, sl, asr r1
 2000a14:	e0230793 	mla	r3, r3, r7, r0
 2000a18:	1affffe5 	bne	20009b4 <_ZN8Graphics7PutCharEiii+0x64>
 2000a1c:	e5d4b000 	ldrb	fp, [r4]
 2000a20:	e59c2000 	ldr	r2, [ip]
 2000a24:	e2811001 	add	r1, r1, #1
 2000a28:	e7c2b003 	strb	fp, [r2, r3]
 2000a2c:	e59c2000 	ldr	r2, [ip]
 2000a30:	e5d4b001 	ldrb	fp, [r4, #1]
 2000a34:	e0822003 	add	r2, r2, r3
 2000a38:	e5c2b001 	strb	fp, [r2, #1]
 2000a3c:	e59cb000 	ldr	fp, [ip]
 2000a40:	e5d42002 	ldrb	r2, [r4, #2]
 2000a44:	e08b3003 	add	r3, fp, r3
 2000a48:	e3510010 	cmp	r1, #16
 2000a4c:	e5c32002 	strb	r2, [r3, #2]
 2000a50:	e2800003 	add	r0, r0, #3
 2000a54:	1affffe5 	bne	20009f0 <_ZN8Graphics7PutCharEiii+0xa0>
 2000a58:	e2866001 	add	r6, r6, #1
 2000a5c:	e356001c 	cmp	r6, #28
 2000a60:	1affffce 	bne	20009a0 <_ZN8Graphics7PutCharEiii+0x50>
 2000a64:	e28dd00c 	add	sp, sp, #12
 2000a68:	e8bd8ff0 	pop	{r4, r5, r6, r7, r8, r9, sl, fp, pc}
 2000a6c:	02000ff8 	andeq	r0, r0, #248, 30	; 0x3e0
 2000a70:	0200a010 	andeq	sl, r0, #16
 2000a74:	0200a014 	andeq	sl, r0, #20
 2000a78:	0200a00c 	andeq	sl, r0, #12

02000a7c <_ZN8Graphics9PutStringEPciii>:
 2000a7c:	e92d41f0 	push	{r4, r5, r6, r7, r8, lr}
 2000a80:	e1a07000 	mov	r7, r0
 2000a84:	e1a05001 	mov	r5, r1
 2000a88:	e1a06002 	mov	r6, r2
 2000a8c:	e3530001 	cmp	r3, #1
 2000a90:	1a000003 	bne	2000aa4 <_ZN8Graphics9PutStringEPciii+0x28>
 2000a94:	ebfffdd5 	bl	20001f0 <_Z15StringGetLengthPc>
 2000a98:	e2853001 	add	r3, r5, #1
 2000a9c:	e0605003 	rsb	r5, r0, r3
 2000aa0:	ea000004 	b	2000ab8 <_ZN8Graphics9PutStringEPciii+0x3c>
 2000aa4:	e3530002 	cmp	r3, #2
 2000aa8:	1a000002 	bne	2000ab8 <_ZN8Graphics9PutStringEPciii+0x3c>
 2000aac:	ebfffdcf 	bl	20001f0 <_Z15StringGetLengthPc>
 2000ab0:	e2400001 	sub	r0, r0, #1
 2000ab4:	e04550a0 	sub	r5, r5, r0, lsr #1
 2000ab8:	e5d70000 	ldrb	r0, [r7]
 2000abc:	e3500000 	cmp	r0, #0
 2000ac0:	08bd81f0 	popeq	{r4, r5, r6, r7, r8, pc}
 2000ac4:	e1a04007 	mov	r4, r7
 2000ac8:	e0675005 	rsb	r5, r7, r5
 2000acc:	e1a02006 	mov	r2, r6
 2000ad0:	e0851004 	add	r1, r5, r4
 2000ad4:	e6af0070 	sxtb	r0, r0
 2000ad8:	ebffff9c 	bl	2000950 <_ZN8Graphics7PutCharEiii>
 2000adc:	e5f40001 	ldrb	r0, [r4, #1]!
 2000ae0:	e3500000 	cmp	r0, #0
 2000ae4:	1afffff8 	bne	2000acc <_ZN8Graphics9PutStringEPciii+0x50>
 2000ae8:	e8bd81f0 	pop	{r4, r5, r6, r7, r8, pc}

02000aec <_ZN8Graphics13SetTextColorsEiiiiii>:
 2000aec:	e59fc024 	ldr	ip, [pc, #36]	; 2000b18 <_ZN8Graphics13SetTextColorsEiiiiii+0x2c>
 2000af0:	e5cc0000 	strb	r0, [ip]
 2000af4:	e5cc1001 	strb	r1, [ip, #1]
 2000af8:	e5cc2002 	strb	r2, [ip, #2]
 2000afc:	e59f2018 	ldr	r2, [pc, #24]	; 2000b1c <_ZN8Graphics13SetTextColorsEiiiiii+0x30>
 2000b00:	e5c23000 	strb	r3, [r2]
 2000b04:	e59d3000 	ldr	r3, [sp]
 2000b08:	e5c23001 	strb	r3, [r2, #1]
 2000b0c:	e59d3004 	ldr	r3, [sp, #4]
 2000b10:	e5c23002 	strb	r3, [r2, #2]
 2000b14:	e12fff1e 	bx	lr
 2000b18:	0200a00c 	andeq	sl, r0, #12
 2000b1c:	02000ff8 	andeq	r0, r0, #248, 30	; 0x3e0

02000b20 <_ZN8Graphics5SetupEv>:
 2000b20:	e52de004 	push	{lr}		; (str lr, [sp, #-4]!)
 2000b24:	e24dd00c 	sub	sp, sp, #12
 2000b28:	e3a01000 	mov	r1, #0
 2000b2c:	e3a00002 	mov	r0, #2
 2000b30:	eb00001b 	bl	2000ba4 <_Z10SystemCallmPv>
 2000b34:	e1a03000 	mov	r3, r0
 2000b38:	e59f2050 	ldr	r2, [pc, #80]	; 2000b90 <_ZN8Graphics5SetupEv+0x70>
 2000b3c:	e5820000 	str	r0, [r2]
 2000b40:	e5900020 	ldr	r0, [r0, #32]
 2000b44:	e5820004 	str	r0, [r2, #4]
 2000b48:	e5932024 	ldr	r2, [r3, #36]	; 0x24
 2000b4c:	e3a01000 	mov	r1, #0
 2000b50:	ebfffeb0 	bl	2000618 <_Z9MemorySetPvci>
 2000b54:	e3a020ff 	mov	r2, #255	; 0xff
 2000b58:	e1a01002 	mov	r1, r2
 2000b5c:	e1a00002 	mov	r0, r2
 2000b60:	ebffff3d 	bl	200085c <_ZN8Graphics8SetColorEiii>
 2000b64:	e3a030ff 	mov	r3, #255	; 0xff
 2000b68:	e58d3004 	str	r3, [sp, #4]
 2000b6c:	e58d3000 	str	r3, [sp]
 2000b70:	e3a02000 	mov	r2, #0
 2000b74:	e1a01002 	mov	r1, r2
 2000b78:	e1a00002 	mov	r0, r2
 2000b7c:	ebffffda 	bl	2000aec <_ZN8Graphics13SetTextColorsEiiiiii>
 2000b80:	e3a00001 	mov	r0, #1
 2000b84:	ebffff6d 	bl	2000940 <_ZN8Graphics11SetTextFontEm>
 2000b88:	e28dd00c 	add	sp, sp, #12
 2000b8c:	e49df004 	pop	{pc}		; (ldr pc, [sp], #4)
 2000b90:	0200a010 	andeq	sl, r0, #16

02000b94 <_ZN8Graphics14GetFramebufferEv>:
 2000b94:	e59f3004 	ldr	r3, [pc, #4]	; 2000ba0 <_ZN8Graphics14GetFramebufferEv+0xc>
 2000b98:	e5930004 	ldr	r0, [r3, #4]
 2000b9c:	e12fff1e 	bx	lr
 2000ba0:	0200a010 	andeq	sl, r0, #16

02000ba4 <_Z10SystemCallmPv>:
 2000ba4:	e92d4010 	push	{r4, lr}
 2000ba8:	e59f3008 	ldr	r3, [pc, #8]	; 2000bb8 <_Z10SystemCallmPv+0x14>
 2000bac:	e5933000 	ldr	r3, [r3]
 2000bb0:	e12fff33 	blx	r3
 2000bb4:	e8bd8010 	pop	{r4, pc}
 2000bb8:	0200a020 	andeq	sl, r0, #32

02000bbc <_Z14MessageHandlermPv>:
 2000bbc:	e92d4070 	push	{r4, r5, r6, lr}
 2000bc0:	e1a04000 	mov	r4, r0
 2000bc4:	e1a05001 	mov	r5, r1
 2000bc8:	e3a03000 	mov	r3, #0
 2000bcc:	e1a02003 	mov	r2, r3
 2000bd0:	e3a01032 	mov	r1, #50	; 0x32
 2000bd4:	e59f0014 	ldr	r0, [pc, #20]	; 2000bf0 <_Z14MessageHandlermPv+0x34>
 2000bd8:	ebffffa7 	bl	2000a7c <_ZN8Graphics9PutStringEPciii>
 2000bdc:	e3540001 	cmp	r4, #1
 2000be0:	18bd8070 	popne	{r4, r5, r6, pc}
 2000be4:	e1a00005 	mov	r0, r5
 2000be8:	ebfffee7 	bl	200078c <_Z15ProcessRawInputP5Input>
 2000bec:	e8bd8070 	pop	{r4, r5, r6, pc}
 2000bf0:	02000fec 	andeq	r0, r0, #236, 30	; 0x3b0

02000bf4 <_Z24ProgramSetMessageHandlerPv>:
 2000bf4:	e92d4010 	push	{r4, lr}
 2000bf8:	e1a01000 	mov	r1, r0
 2000bfc:	e3a00001 	mov	r0, #1
 2000c00:	ebffffe7 	bl	2000ba4 <_Z10SystemCallmPv>
 2000c04:	e8bd8010 	pop	{r4, pc}

02000c08 <__aeabi_uldivmod>:
 2000c08:	e3530000 	cmp	r3, #0
 2000c0c:	03520000 	cmpeq	r2, #0
 2000c10:	1a000004 	bne	2000c28 <__aeabi_uldivmod+0x20>
 2000c14:	e3510000 	cmp	r1, #0
 2000c18:	03500000 	cmpeq	r0, #0
 2000c1c:	13e01000 	mvnne	r1, #0
 2000c20:	13e00000 	mvnne	r0, #0
 2000c24:	ea000027 	b	2000cc8 <__aeabi_idiv0>
 2000c28:	e24dd008 	sub	sp, sp, #8
 2000c2c:	e92d6000 	push	{sp, lr}
 2000c30:	eb000014 	bl	2000c88 <__gnu_uldivmod_helper>
 2000c34:	e59de004 	ldr	lr, [sp, #4]
 2000c38:	e28dd008 	add	sp, sp, #8
 2000c3c:	e8bd000c 	pop	{r2, r3}
 2000c40:	e12fff1e 	bx	lr

02000c44 <__gnu_ldivmod_helper>:
 2000c44:	e92d47f0 	push	{r4, r5, r6, r7, r8, r9, sl, lr}
 2000c48:	e59d6020 	ldr	r6, [sp, #32]
 2000c4c:	e1a07002 	mov	r7, r2
 2000c50:	e1a0a003 	mov	sl, r3
 2000c54:	e1a04000 	mov	r4, r0
 2000c58:	e1a05001 	mov	r5, r1
 2000c5c:	eb00001a 	bl	2000ccc <__divdi3>
 2000c60:	e1a03000 	mov	r3, r0
 2000c64:	e0020197 	mul	r2, r7, r1
 2000c68:	e0898097 	umull	r8, r9, r7, r0
 2000c6c:	e023239a 	mla	r3, sl, r3, r2
 2000c70:	e0544008 	subs	r4, r4, r8
 2000c74:	e0839009 	add	r9, r3, r9
 2000c78:	e0c55009 	sbc	r5, r5, r9
 2000c7c:	e8860030 	stm	r6, {r4, r5}
 2000c80:	e8bd47f0 	pop	{r4, r5, r6, r7, r8, r9, sl, lr}
 2000c84:	e12fff1e 	bx	lr

02000c88 <__gnu_uldivmod_helper>:
 2000c88:	e92d41f0 	push	{r4, r5, r6, r7, r8, lr}
 2000c8c:	e59d5018 	ldr	r5, [sp, #24]
 2000c90:	e1a04002 	mov	r4, r2
 2000c94:	e1a08003 	mov	r8, r3
 2000c98:	e1a06000 	mov	r6, r0
 2000c9c:	e1a07001 	mov	r7, r1
 2000ca0:	eb000067 	bl	2000e44 <__udivdi3>
 2000ca4:	e0080890 	mul	r8, r0, r8
 2000ca8:	e0832490 	umull	r2, r3, r0, r4
 2000cac:	e0248491 	mla	r4, r1, r4, r8
 2000cb0:	e0566002 	subs	r6, r6, r2
 2000cb4:	e0843003 	add	r3, r4, r3
 2000cb8:	e0c77003 	sbc	r7, r7, r3
 2000cbc:	e88500c0 	stm	r5, {r6, r7}
 2000cc0:	e8bd41f0 	pop	{r4, r5, r6, r7, r8, lr}
 2000cc4:	e12fff1e 	bx	lr

02000cc8 <__aeabi_idiv0>:
 2000cc8:	e12fff1e 	bx	lr

02000ccc <__divdi3>:
 2000ccc:	e3510000 	cmp	r1, #0
 2000cd0:	e92d4ff8 	push	{r3, r4, r5, r6, r7, r8, r9, sl, fp, lr}
 2000cd4:	a1a04000 	movge	r4, r0
 2000cd8:	a1a05001 	movge	r5, r1
 2000cdc:	a3a0a000 	movge	sl, #0
 2000ce0:	ba000053 	blt	2000e34 <__divdi3+0x168>
 2000ce4:	e3530000 	cmp	r3, #0
 2000ce8:	a1a08002 	movge	r8, r2
 2000cec:	a1a09003 	movge	r9, r3
 2000cf0:	ba00004b 	blt	2000e24 <__divdi3+0x158>
 2000cf4:	e1550009 	cmp	r5, r9
 2000cf8:	01540008 	cmpeq	r4, r8
 2000cfc:	33a02000 	movcc	r2, #0
 2000d00:	33a03000 	movcc	r3, #0
 2000d04:	3a00003b 	bcc	2000df8 <__divdi3+0x12c>
 2000d08:	e1a01009 	mov	r1, r9
 2000d0c:	e1a00008 	mov	r0, r8
 2000d10:	eb000093 	bl	2000f64 <__clzdi2>
 2000d14:	e1a01005 	mov	r1, r5
 2000d18:	e1a0b000 	mov	fp, r0
 2000d1c:	e1a00004 	mov	r0, r4
 2000d20:	eb00008f 	bl	2000f64 <__clzdi2>
 2000d24:	e060000b 	rsb	r0, r0, fp
 2000d28:	e240e020 	sub	lr, r0, #32
 2000d2c:	e1a07019 	lsl	r7, r9, r0
 2000d30:	e1877e18 	orr	r7, r7, r8, lsl lr
 2000d34:	e260c020 	rsb	ip, r0, #32
 2000d38:	e1877c38 	orr	r7, r7, r8, lsr ip
 2000d3c:	e1550007 	cmp	r5, r7
 2000d40:	e1a06018 	lsl	r6, r8, r0
 2000d44:	01540006 	cmpeq	r4, r6
 2000d48:	e1a01000 	mov	r1, r0
 2000d4c:	33a02000 	movcc	r2, #0
 2000d50:	33a03000 	movcc	r3, #0
 2000d54:	3a000005 	bcc	2000d70 <__divdi3+0xa4>
 2000d58:	e3a08001 	mov	r8, #1
 2000d5c:	e0544006 	subs	r4, r4, r6
 2000d60:	e1a03e18 	lsl	r3, r8, lr
 2000d64:	e1833c38 	orr	r3, r3, r8, lsr ip
 2000d68:	e0c55007 	sbc	r5, r5, r7
 2000d6c:	e1a02018 	lsl	r2, r8, r0
 2000d70:	e3500000 	cmp	r0, #0
 2000d74:	0a00001f 	beq	2000df8 <__divdi3+0x12c>
 2000d78:	e1b070a7 	lsrs	r7, r7, #1
 2000d7c:	e1a06066 	rrx	r6, r6
 2000d80:	ea000007 	b	2000da4 <__divdi3+0xd8>
 2000d84:	e0544006 	subs	r4, r4, r6
 2000d88:	e0c55007 	sbc	r5, r5, r7
 2000d8c:	e0944004 	adds	r4, r4, r4
 2000d90:	e0a55005 	adc	r5, r5, r5
 2000d94:	e2944001 	adds	r4, r4, #1
 2000d98:	e2a55000 	adc	r5, r5, #0
 2000d9c:	e2500001 	subs	r0, r0, #1
 2000da0:	0a000006 	beq	2000dc0 <__divdi3+0xf4>
 2000da4:	e1570005 	cmp	r7, r5
 2000da8:	01560004 	cmpeq	r6, r4
 2000dac:	9afffff4 	bls	2000d84 <__divdi3+0xb8>
 2000db0:	e0944004 	adds	r4, r4, r4
 2000db4:	e0a55005 	adc	r5, r5, r5
 2000db8:	e2500001 	subs	r0, r0, #1
 2000dbc:	1afffff8 	bne	2000da4 <__divdi3+0xd8>
 2000dc0:	e261c020 	rsb	ip, r1, #32
 2000dc4:	e1a00134 	lsr	r0, r4, r1
 2000dc8:	e0922004 	adds	r2, r2, r4
 2000dcc:	e241e020 	sub	lr, r1, #32
 2000dd0:	e1800c15 	orr	r0, r0, r5, lsl ip
 2000dd4:	e1a04135 	lsr	r4, r5, r1
 2000dd8:	e1800e35 	orr	r0, r0, r5, lsr lr
 2000ddc:	e1a07114 	lsl	r7, r4, r1
 2000de0:	e1877e10 	orr	r7, r7, r0, lsl lr
 2000de4:	e1a06110 	lsl	r6, r0, r1
 2000de8:	e0a33005 	adc	r3, r3, r5
 2000dec:	e1877c30 	orr	r7, r7, r0, lsr ip
 2000df0:	e0522006 	subs	r2, r2, r6
 2000df4:	e0c33007 	sbc	r3, r3, r7
 2000df8:	e29a0000 	adds	r0, sl, #0
 2000dfc:	13a00001 	movne	r0, #1
 2000e00:	e3a01000 	mov	r1, #0
 2000e04:	e2704000 	rsbs	r4, r0, #0
 2000e08:	e2e15000 	rsc	r5, r1, #0
 2000e0c:	e0222004 	eor	r2, r2, r4
 2000e10:	e0233005 	eor	r3, r3, r5
 2000e14:	e0900002 	adds	r0, r0, r2
 2000e18:	e0a11003 	adc	r1, r1, r3
 2000e1c:	e8bd4ff8 	pop	{r3, r4, r5, r6, r7, r8, r9, sl, fp, lr}
 2000e20:	e12fff1e 	bx	lr
 2000e24:	e2728000 	rsbs	r8, r2, #0
 2000e28:	e1e0a00a 	mvn	sl, sl
 2000e2c:	e2e39000 	rsc	r9, r3, #0
 2000e30:	eaffffaf 	b	2000cf4 <__divdi3+0x28>
 2000e34:	e2704000 	rsbs	r4, r0, #0
 2000e38:	e2e15000 	rsc	r5, r1, #0
 2000e3c:	e3e0a000 	mvn	sl, #0
 2000e40:	eaffffa7 	b	2000ce4 <__divdi3+0x18>

02000e44 <__udivdi3>:
 2000e44:	e1510003 	cmp	r1, r3
 2000e48:	01500002 	cmpeq	r0, r2
 2000e4c:	e92d47f0 	push	{r4, r5, r6, r7, r8, r9, sl, lr}
 2000e50:	e1a04000 	mov	r4, r0
 2000e54:	e1a05001 	mov	r5, r1
 2000e58:	e1a08002 	mov	r8, r2
 2000e5c:	e1a09003 	mov	r9, r3
 2000e60:	33a00000 	movcc	r0, #0
 2000e64:	33a01000 	movcc	r1, #0
 2000e68:	3a00003b 	bcc	2000f5c <__udivdi3+0x118>
 2000e6c:	e1a01003 	mov	r1, r3
 2000e70:	e1a00002 	mov	r0, r2
 2000e74:	eb00003a 	bl	2000f64 <__clzdi2>
 2000e78:	e1a01005 	mov	r1, r5
 2000e7c:	e1a0a000 	mov	sl, r0
 2000e80:	e1a00004 	mov	r0, r4
 2000e84:	eb000036 	bl	2000f64 <__clzdi2>
 2000e88:	e060300a 	rsb	r3, r0, sl
 2000e8c:	e243e020 	sub	lr, r3, #32
 2000e90:	e1a07319 	lsl	r7, r9, r3
 2000e94:	e1877e18 	orr	r7, r7, r8, lsl lr
 2000e98:	e263c020 	rsb	ip, r3, #32
 2000e9c:	e1877c38 	orr	r7, r7, r8, lsr ip
 2000ea0:	e1550007 	cmp	r5, r7
 2000ea4:	e1a06318 	lsl	r6, r8, r3
 2000ea8:	01540006 	cmpeq	r4, r6
 2000eac:	e1a02003 	mov	r2, r3
 2000eb0:	33a00000 	movcc	r0, #0
 2000eb4:	33a01000 	movcc	r1, #0
 2000eb8:	3a000005 	bcc	2000ed4 <__udivdi3+0x90>
 2000ebc:	e3a08001 	mov	r8, #1
 2000ec0:	e0544006 	subs	r4, r4, r6
 2000ec4:	e1a01e18 	lsl	r1, r8, lr
 2000ec8:	e1811c38 	orr	r1, r1, r8, lsr ip
 2000ecc:	e0c55007 	sbc	r5, r5, r7
 2000ed0:	e1a00318 	lsl	r0, r8, r3
 2000ed4:	e3530000 	cmp	r3, #0
 2000ed8:	0a00001f 	beq	2000f5c <__udivdi3+0x118>
 2000edc:	e1b070a7 	lsrs	r7, r7, #1
 2000ee0:	e1a06066 	rrx	r6, r6
 2000ee4:	ea000007 	b	2000f08 <__udivdi3+0xc4>
 2000ee8:	e0544006 	subs	r4, r4, r6
 2000eec:	e0c55007 	sbc	r5, r5, r7
 2000ef0:	e0944004 	adds	r4, r4, r4
 2000ef4:	e0a55005 	adc	r5, r5, r5
 2000ef8:	e2944001 	adds	r4, r4, #1
 2000efc:	e2a55000 	adc	r5, r5, #0
 2000f00:	e2533001 	subs	r3, r3, #1
 2000f04:	0a000006 	beq	2000f24 <__udivdi3+0xe0>
 2000f08:	e1570005 	cmp	r7, r5
 2000f0c:	01560004 	cmpeq	r6, r4
 2000f10:	9afffff4 	bls	2000ee8 <__udivdi3+0xa4>
 2000f14:	e0944004 	adds	r4, r4, r4
 2000f18:	e0a55005 	adc	r5, r5, r5
 2000f1c:	e2533001 	subs	r3, r3, #1
 2000f20:	1afffff8 	bne	2000f08 <__udivdi3+0xc4>
 2000f24:	e0948000 	adds	r8, r4, r0
 2000f28:	e0a59001 	adc	r9, r5, r1
 2000f2c:	e1a03234 	lsr	r3, r4, r2
 2000f30:	e2621020 	rsb	r1, r2, #32
 2000f34:	e2420020 	sub	r0, r2, #32
 2000f38:	e1833115 	orr	r3, r3, r5, lsl r1
 2000f3c:	e1a0c235 	lsr	ip, r5, r2
 2000f40:	e1833035 	orr	r3, r3, r5, lsr r0
 2000f44:	e1a0721c 	lsl	r7, ip, r2
 2000f48:	e1877013 	orr	r7, r7, r3, lsl r0
 2000f4c:	e1a06213 	lsl	r6, r3, r2
 2000f50:	e1877133 	orr	r7, r7, r3, lsr r1
 2000f54:	e0580006 	subs	r0, r8, r6
 2000f58:	e0c91007 	sbc	r1, r9, r7
 2000f5c:	e8bd47f0 	pop	{r4, r5, r6, r7, r8, r9, sl, lr}
 2000f60:	e12fff1e 	bx	lr

02000f64 <__clzdi2>:
 2000f64:	e92d4010 	push	{r4, lr}
 2000f68:	e3510000 	cmp	r1, #0
 2000f6c:	1a000002 	bne	2000f7c <__clzdi2+0x18>
 2000f70:	eb000005 	bl	2000f8c <__clzsi2>
 2000f74:	e2800020 	add	r0, r0, #32
 2000f78:	ea000001 	b	2000f84 <__clzdi2+0x20>
 2000f7c:	e1a00001 	mov	r0, r1
 2000f80:	eb000001 	bl	2000f8c <__clzsi2>
 2000f84:	e8bd4010 	pop	{r4, lr}
 2000f88:	e12fff1e 	bx	lr

02000f8c <__clzsi2>:
 2000f8c:	e3a0101c 	mov	r1, #28
 2000f90:	e3500801 	cmp	r0, #65536	; 0x10000
 2000f94:	21a00820 	lsrcs	r0, r0, #16
 2000f98:	22411010 	subcs	r1, r1, #16
 2000f9c:	e3500c01 	cmp	r0, #256	; 0x100
 2000fa0:	21a00420 	lsrcs	r0, r0, #8
 2000fa4:	22411008 	subcs	r1, r1, #8
 2000fa8:	e3500010 	cmp	r0, #16
 2000fac:	21a00220 	lsrcs	r0, r0, #4
 2000fb0:	22411004 	subcs	r1, r1, #4
 2000fb4:	e28f2008 	add	r2, pc, #8
 2000fb8:	e7d20000 	ldrb	r0, [r2, r0]
 2000fbc:	e0800001 	add	r0, r0, r1
 2000fc0:	e12fff1e 	bx	lr
 2000fc4:	02020304 	andeq	r0, r2, #4, 6	; 0x10000000
 2000fc8:	01010101 	tsteq	r1, r1, lsl #2
	...

Disassembly of section .rodata:

02000fd4 <_ZZ16StringConvertHexPcxE3HEX-0x4>:
 2000fd4:	00007525 	andeq	r7, r0, r5, lsr #10

02000fd8 <_ZZ16StringConvertHexPcxE3HEX>:
 2000fd8:	33323130 	teqcc	r2, #48, 2
 2000fdc:	37363534 			; <UNDEFINED> instruction: 0x37363534
 2000fe0:	62613938 	rsbvs	r3, r1, #56, 18	; 0xe0000
 2000fe4:	66656463 	strbtvs	r6, [r5], -r3, ror #8
 2000fe8:	00000000 	andeq	r0, r0, r0
 2000fec:	00534145 	subseq	r4, r3, r5, asr #2

Disassembly of section .data:

02000ff0 <Running>:
 2000ff0:	00000001 	andeq	r0, r0, r1

02000ff4 <_ZN8Graphics7PaletteE>:
 2000ff4:	00ffffff 	ldrshteq	pc, [pc], #255	; <UNPREDICTABLE>

02000ff8 <_ZN8Graphics14TextForegroundE>:
 2000ff8:	00ffffff 	ldrshteq	pc, [pc], #255	; <UNPREDICTABLE>

02000ffc <_ZN8Graphics11CurrentFontE>:
 2000ffc:	00000001 	andeq	r0, r0, r1

02001000 <FontData>:
 2001000:	ffffffff 			; <UNDEFINED> instruction: 0xffffffff
 2001004:	ffffffff 			; <UNDEFINED> instruction: 0xffffffff
 2001008:	ffffffff 			; <UNDEFINED> instruction: 0xffffffff
 200100c:	ffffffff 			; <UNDEFINED> instruction: 0xffffffff
 2001010:	ffffffff 			; <UNDEFINED> instruction: 0xffffffff
 2001014:	ffffffff 			; <UNDEFINED> instruction: 0xffffffff
 2001018:	ffffffff 			; <UNDEFINED> instruction: 0xffffffff
 200101c:	ffffffff 			; <UNDEFINED> instruction: 0xffffffff
 2001020:	ffffffff 			; <UNDEFINED> instruction: 0xffffffff
 2001024:	ffffffff 			; <UNDEFINED> instruction: 0xffffffff
 2001028:	ffffffff 			; <UNDEFINED> instruction: 0xffffffff
 200102c:	ffffffff 			; <UNDEFINED> instruction: 0xffffffff
 2001030:	ffffffff 			; <UNDEFINED> instruction: 0xffffffff
 2001034:	ffffffff 			; <UNDEFINED> instruction: 0xffffffff
	...
 2001744:	03e001c0 	mvneq	r0, #192, 2	; 0x30
 2001748:	03e003e0 	mvneq	r0, #224, 6	; 0x80000003
 200174c:	03e003e0 	mvneq	r0, #224, 6	; 0x80000003
 2001750:	01c003e0 	biceq	r0, r0, r0, ror #7
 2001754:	01c001c0 	biceq	r0, r0, r0, asr #3
 2001758:	01c001c0 	biceq	r0, r0, r0, asr #3
 200175c:	00000000 	andeq	r0, r0, r0
 2001760:	01c001c0 	biceq	r0, r0, r0, asr #3
 2001764:	000001c0 	andeq	r0, r0, r0, asr #3
	...
 200177c:	1ce00000 	stclne	0, cr0, [r0]
 2001780:	1ce01ce0 	stclne	12, cr1, [r0], #896	; 0x380
 2001784:	08401ce0 	stmdaeq	r0, {r5, r6, r7, sl, fp, ip}^
 2001788:	08400840 	stmdaeq	r0, {r6, fp}^
 200178c:	00000840 	andeq	r0, r0, r0, asr #16
	...
 20017b0:	0e700e70 	mrceq	14, 3, r0, cr0, cr0, {3}
 20017b4:	0e700e70 	mrceq	14, 3, r0, cr0, cr0, {3}
 20017b8:	0e700e70 	mrceq	14, 3, r0, cr0, cr0, {3}
 20017bc:	7ffc7ffc 	svcvc	0x00fc7ffc
 20017c0:	1ce07ffc 	stclne	15, cr7, [r0], #1008	; 0x3f0
 20017c4:	1ce01ce0 	stclne	12, cr1, [r0], #896	; 0x380
 20017c8:	fff8fff8 			; <UNDEFINED> instruction: 0xfff8fff8
 20017cc:	18c0fff8 	stmiane	r0, {r3, r4, r5, r6, r7, r8, r9, sl, fp, ip, sp, lr, pc}^
 20017d0:	39c039c0 	stmibcc	r0, {r6, r7, r8, fp, ip, sp}^
 20017d4:	39c039c0 	stmibcc	r0, {r6, r7, r8, fp, ip, sp}^
 20017d8:	000039c0 	andeq	r3, r0, r0, asr #19
	...
 20017e8:	01800000 	orreq	r0, r0, r0
 20017ec:	07c00180 	strbeq	r0, [r0, r0, lsl #3]
 20017f0:	3c381ff8 	ldccc	15, cr1, [r8], #-992	; 0xfffffc20
 20017f4:	38003838 	stmdacc	r0, {r3, r4, r5, fp, ip, sp}
 20017f8:	1fe03e00 	svcne	0x00e03e00
 20017fc:	01fc0ff8 	ldrsheq	r0, [ip, #248]!	; 0xf8
 2001800:	301c003c 	andscc	r0, ip, ip, lsr r0
 2001804:	3c38381c 	ldccc	8, cr3, [r8], #-112	; 0xffffff90
 2001808:	3be03ff0 	blcc	18117d0 <__PROGRAM_SIZE+0x18077cc>
 200180c:	01800180 	orreq	r0, r0, r0, lsl #3
 2001810:	01800180 	orreq	r0, r0, r0, lsl #3
	...
 2001824:	0fc00780 	svceq	0x00c00780
 2001828:	18601ce0 	stmdane	r0!, {r5, r6, r7, sl, fp, ip}^
 200182c:	1ce01860 	stclne	8, cr1, [r0], #384	; 0x180
 2001830:	07fc0fdc 	ubfxeq	r0, ip, #31, #29
 2001834:	3fe007e0 	svccc	0x00e007e0
 2001838:	073833f0 			; <UNDEFINED> instruction: 0x073833f0
 200183c:	06180618 			; <UNDEFINED> instruction: 0x06180618
 2001840:	03f00738 	mvnseq	r0, #56, 14	; 0xe00000
 2001844:	000001e0 	andeq	r0, r0, r0, ror #3
	...
 2001860:	03f801c0 	mvnseq	r0, #192, 2	; 0x30
 2001864:	07000720 	streq	r0, [r0, -r0, lsr #14]
 2001868:	07000700 	streq	r0, [r0, -r0, lsl #14]
 200186c:	07c00380 	strbeq	r0, [r0, r0, lsl #7]
 2001870:	1fee0fce 	svcne	0x00ee0fce
 2001874:	1c781cf8 	ldclne	12, cr1, [r8], #-992	; 0xfffffc20
 2001878:	0ffe1c78 	svceq	0x00fe1c78
 200187c:	000007de 	ldrdeq	r0, [r0], -lr
	...
 2001894:	03800000 	orreq	r0, r0, #0
 2001898:	03800380 	orreq	r0, r0, #128, 6
 200189c:	01000380 	smlabbeq	r0, r0, r3, r0
 20018a0:	01000100 	mrseq	r0, (UNDEF: 16)
 20018a4:	00000100 	andeq	r0, r0, r0, lsl #2
	...
 20018cc:	00380018 	eorseq	r0, r8, r8, lsl r0
 20018d0:	00700070 	rsbseq	r0, r0, r0, ror r0
 20018d4:	00e000e0 	rsceq	r0, r0, r0, ror #1
 20018d8:	01c001e0 	biceq	r0, r0, r0, ror #3
 20018dc:	01c001c0 	biceq	r0, r0, r0, asr #3
 20018e0:	01c001c0 	biceq	r0, r0, r0, asr #3
 20018e4:	01e001c0 	mvneq	r0, r0, asr #3
 20018e8:	00e000e0 	rsceq	r0, r0, r0, ror #1
 20018ec:	00700070 	rsbseq	r0, r0, r0, ror r0
 20018f0:	00180038 	andseq	r0, r8, r8, lsr r0
	...
 2001904:	1c001800 	stcne	8, cr1, [r0], {-0}
 2001908:	0e000e00 	cdpeq	14, 0, cr0, cr0, cr0, {0}
 200190c:	07000700 	streq	r0, [r0, -r0, lsl #14]
 2001910:	03800780 	orreq	r0, r0, #128, 14	; 0x2000000
 2001914:	03800380 	orreq	r0, r0, #128, 6
 2001918:	03800380 	orreq	r0, r0, #128, 6
 200191c:	07800380 	streq	r0, [r0, r0, lsl #7]
 2001920:	07000700 	streq	r0, [r0, -r0, lsl #14]
 2001924:	0e000e00 	cdpeq	14, 0, cr0, cr0, cr0, {0}
 2001928:	18001c00 	stmdane	r0, {sl, fp, ip}
	...
 200193c:	01c001c0 	biceq	r0, r0, r0, asr #3
 2001940:	01c001c0 	biceq	r0, r0, r0, asr #3
 2001944:	1ffc1ddc 	svcne	0x00fc1ddc
 2001948:	03e00ff8 	mvneq	r0, #248, 30	; 0x3e0
 200194c:	077003e0 	ldrbeq	r0, [r0, -r0, ror #7]!
 2001950:	06300770 			; <UNDEFINED> instruction: 0x06300770
	...
 2001978:	01c001c0 	biceq	r0, r0, r0, asr #3
 200197c:	01c001c0 	biceq	r0, r0, r0, asr #3
 2001980:	01c001c0 	biceq	r0, r0, r0, asr #3
 2001984:	7fff7fff 	svcvc	0x00ff7fff
 2001988:	01c07fff 	strdeq	r7, [r0, #255]	; 0xff
 200198c:	01c001c0 	biceq	r0, r0, r0, asr #3
 2001990:	01c001c0 	biceq	r0, r0, r0, asr #3
 2001994:	000001c0 	andeq	r0, r0, r0, asr #3
	...
 20019c4:	00e00000 	rsceq	r0, r0, r0
 20019c8:	01c000c0 	biceq	r0, r0, r0, asr #1
 20019cc:	018001c0 	orreq	r0, r0, r0, asr #3
 20019d0:	03000380 	movweq	r0, #896	; 0x380
 20019d4:	00000300 	andeq	r0, r0, r0, lsl #6
	...
 20019f4:	3ff83ff8 	svccc	0x00f83ff8
 20019f8:	00003ff8 	strdeq	r3, [r0], -r8
	...
 2001a34:	01800000 	orreq	r0, r0, r0
 2001a38:	03c003c0 	biceq	r0, r0, #192, 6
 2001a3c:	00000180 	andeq	r0, r0, r0, lsl #3
	...
 2001a50:	001c000c 	andseq	r0, ip, ip
 2001a54:	0038001c 	eorseq	r0, r8, ip, lsl r0
 2001a58:	00700038 	rsbseq	r0, r0, r8, lsr r0
 2001a5c:	00e00070 	rsceq	r0, r0, r0, ror r0
 2001a60:	01c000e0 	biceq	r0, r0, r0, ror #1
 2001a64:	038001c0 	orreq	r0, r0, #192, 2	; 0x30
 2001a68:	07000380 	streq	r0, [r0, -r0, lsl #7]
 2001a6c:	0e000700 	cdpeq	7, 0, cr0, cr0, cr0, {0}
 2001a70:	1c000e00 	stcne	14, cr0, [r0], {-0}
 2001a74:	38001c00 	stmdacc	r0, {sl, fp, ip}
 2001a78:	30003800 	andcc	r3, r0, r0, lsl #16
	...
 2001a8c:	0ff003c0 	svceq	0x00f003c0
 2001a90:	1c381e78 	ldcne	14, cr1, [r8], #-480	; 0xfffffe20
 2001a94:	381c381c 	ldmdacc	ip, {r2, r3, r4, fp, ip, sp}
 2001a98:	381c381c 	ldmdacc	ip, {r2, r3, r4, fp, ip, sp}
 2001a9c:	381c381c 	ldmdacc	ip, {r2, r3, r4, fp, ip, sp}
 2001aa0:	381c381c 	ldmdacc	ip, {r2, r3, r4, fp, ip, sp}
 2001aa4:	1c38381c 	ldcne	8, cr3, [r8], #-112	; 0xffffff90
 2001aa8:	0ff01e78 	svceq	0x00f01e78
 2001aac:	000003c0 	andeq	r0, r0, r0, asr #7
	...
 2001ac4:	07c000c0 	strbeq	r0, [r0, r0, asr #1]
 2001ac8:	3dc03fc0 	stclcc	15, cr3, [r0, #768]	; 0x300
 2001acc:	01c001c0 	biceq	r0, r0, r0, asr #3
 2001ad0:	01c001c0 	biceq	r0, r0, r0, asr #3
 2001ad4:	01c001c0 	biceq	r0, r0, r0, asr #3
 2001ad8:	01c001c0 	biceq	r0, r0, r0, asr #3
 2001adc:	01c001c0 	biceq	r0, r0, r0, asr #3
 2001ae0:	3ffe01c0 	svccc	0x00fe01c0
 2001ae4:	00003ffe 	strdeq	r3, [r0], -lr
	...
 2001afc:	0fe007c0 	svceq	0x00e007c0
 2001b00:	38381c70 	ldmdacc	r8!, {r4, r5, r6, sl, fp, ip}
 2001b04:	38383838 	ldmdacc	r8!, {r3, r4, r5, fp, ip, sp}
 2001b08:	00700078 	rsbseq	r0, r0, r8, ror r0
 2001b0c:	01c000e0 	biceq	r0, r0, r0, ror #1
 2001b10:	07000380 	streq	r0, [r0, -r0, lsl #7]
 2001b14:	1c000e00 	stcne	14, cr0, [r0], {-0}
 2001b18:	7ff83800 	svcvc	0x00f83800
 2001b1c:	00007ff8 	strdeq	r7, [r0], -r8
	...
 2001b34:	0ff007c0 	svceq	0x00f007c0
 2001b38:	18381c70 	ldmdane	r8!, {r4, r5, r6, sl, fp, ip}
 2001b3c:	00380038 	eorseq	r0, r8, r8, lsr r0
 2001b40:	03e00070 	mvneq	r0, #112	; 0x70
 2001b44:	007803e0 	rsbseq	r0, r8, r0, ror #7
 2001b48:	001c003c 	andseq	r0, ip, ip, lsr r0
 2001b4c:	001c001c 	andseq	r0, ip, ip, lsl r0
 2001b50:	3ff83038 	svccc	0x00f83038
 2001b54:	00000fe0 	andeq	r0, r0, r0, ror #31
	...
 2001b6c:	01f000f0 	ldrsheq	r0, [r0, #0]!
 2001b70:	03f001f0 	mvnseq	r0, #240, 2	; 0x3c
 2001b74:	07700770 			; <UNDEFINED> instruction: 0x07700770
 2001b78:	0e700e70 	mrceq	14, 3, r0, cr0, cr0, {3}
 2001b7c:	38701c70 	ldmdacc	r0!, {r4, r5, r6, sl, fp, ip}^
 2001b80:	3ffc3ffc 	svccc	0x00fc3ffc
 2001b84:	00700070 	rsbseq	r0, r0, r0, ror r0
 2001b88:	03fc0070 	mvnseq	r0, #112	; 0x70
 2001b8c:	000003fc 	strdeq	r0, [r0], -ip
	...
 2001ba4:	1ff81ff8 	svcne	0x00f81ff8
 2001ba8:	1c001c00 	stcne	12, cr1, [r0], {-0}
 2001bac:	1de01c00 	stclne	12, cr1, [r0]
 2001bb0:	1c381ff0 	ldcne	15, cr1, [r8], #-960	; 0xfffffc40
 2001bb4:	001c181c 	andseq	r1, ip, ip, lsl r8
 2001bb8:	001c001c 	andseq	r0, ip, ip, lsl r0
 2001bbc:	001c001c 	andseq	r0, ip, ip, lsl r0
 2001bc0:	3ff03038 	svccc	0x00f03038
 2001bc4:	00000fe0 	andeq	r0, r0, r0, ror #31
	...
 2001bdc:	03fc00f8 	mvnseq	r0, #248	; 0xf8
 2001be0:	0e00078c 	cdpeq	7, 0, cr0, cr0, cr12, {4}
 2001be4:	1c001c00 	stcne	12, cr1, [r0], {-0}
 2001be8:	3ff03be0 	svccc	0x00f03be0
 2001bec:	3c3c3e38 	ldccc	14, cr3, [ip], #-224	; 0xffffff20
 2001bf0:	381c381c 	ldmdacc	ip, {r2, r3, r4, fp, ip, sp}
 2001bf4:	1c1c381c 	ldcne	8, cr3, [ip], {28}
 2001bf8:	0ff81c38 	svceq	0x00f81c38
 2001bfc:	000003e0 	andeq	r0, r0, r0, ror #7
	...
 2001c14:	3ff83ff8 	svccc	0x00f83ff8
 2001c18:	30383038 	eorscc	r3, r8, r8, lsr r0
 2001c1c:	00700070 	rsbseq	r0, r0, r0, ror r0
 2001c20:	00e00070 	rsceq	r0, r0, r0, ror r0
 2001c24:	00e000e0 	rsceq	r0, r0, r0, ror #1
 2001c28:	01c001e0 	biceq	r0, r0, r0, ror #3
 2001c2c:	01c001c0 	biceq	r0, r0, r0, asr #3
 2001c30:	03800380 	orreq	r0, r0, #128, 6
 2001c34:	00000380 	andeq	r0, r0, r0, lsl #7
	...
 2001c4c:	1ff807e0 	svcne	0x00f807e0
 2001c50:	381c1c38 	ldmdacc	ip, {r3, r4, r5, sl, fp, ip}
 2001c54:	381c381c 	ldmdacc	ip, {r2, r3, r4, fp, ip, sp}
 2001c58:	0ff01c38 	svceq	0x00f01c38
 2001c5c:	1c380ff0 	ldcne	15, cr0, [r8], #-960	; 0xfffffc40
 2001c60:	381c381c 	ldmdacc	ip, {r2, r3, r4, fp, ip, sp}
 2001c64:	381c381c 	ldmdacc	ip, {r2, r3, r4, fp, ip, sp}
 2001c68:	1ff81c38 	svcne	0x00f81c38
 2001c6c:	000007e0 	andeq	r0, r0, r0, ror #15
	...
 2001c84:	0ff007c0 	svceq	0x00f007c0
 2001c88:	38381c70 	ldmdacc	r8!, {r4, r5, r6, sl, fp, ip}
 2001c8c:	381c3818 	ldmdacc	ip, {r3, r4, fp, ip, sp}
 2001c90:	383c381c 	ldmdacc	ip!, {r2, r3, r4, fp, ip, sp}
 2001c94:	0ffc1c7c 	svceq	0x00fc1c7c
 2001c98:	001c07dc 			; <UNDEFINED> instruction: 0x001c07dc
 2001c9c:	00700038 	rsbseq	r0, r0, r8, lsr r0
 2001ca0:	3fc031f0 	svccc	0x00c031f0
 2001ca4:	00001f00 	andeq	r1, r0, r0, lsl #30
	...
 2001cc4:	01800000 	orreq	r0, r0, r0
 2001cc8:	03c003c0 	biceq	r0, r0, #192, 6
 2001ccc:	00000180 	andeq	r0, r0, r0, lsl #3
 2001cd0:	00000000 	andeq	r0, r0, r0
 2001cd4:	01800000 	orreq	r0, r0, r0
 2001cd8:	03c003c0 	biceq	r0, r0, #192, 6
 2001cdc:	00000180 	andeq	r0, r0, r0, lsl #3
	...
 2001cfc:	00c00000 	sbceq	r0, r0, r0
 2001d00:	01e001e0 	mvneq	r0, r0, ror #3
 2001d04:	000100c0 	andeq	r0, r1, r0, asr #1
 2001d08:	00000000 	andeq	r0, r0, r0
 2001d0c:	01c00000 	biceq	r0, r0, r0
 2001d10:	03800380 	orreq	r0, r0, #128, 6
 2001d14:	06000300 	streq	r0, [r0], -r0, lsl #6
 2001d18:	04000600 	streq	r0, [r0], #-1536	; 0xfffffa00
	...
 2001d30:	003c001c 	eorseq	r0, ip, ip, lsl r0
 2001d34:	03e000f8 	mvneq	r0, #248	; 0xf8
 2001d38:	1f000fc0 	svcne	0x00000fc0
 2001d3c:	f0007c00 			; <UNDEFINED> instruction: 0xf0007c00
 2001d40:	1f007c00 	svcne	0x00007c00
 2001d44:	03f00fc0 	mvnseq	r0, #192, 30	; 0x300
 2001d48:	003c00f8 	ldrshteq	r0, [ip], -r8
 2001d4c:	0000001c 	andeq	r0, r0, ip, lsl r0
	...
 2001d6c:	fffe0000 			; <UNDEFINED> instruction: 0xfffe0000
 2001d70:	fffefffe 			; <UNDEFINED> instruction: 0xfffefffe
 2001d74:	00000000 	andeq	r0, r0, r0
 2001d78:	fffefffe 			; <UNDEFINED> instruction: 0xfffefffe
 2001d7c:	0000fffe 	strdeq	pc, [r0], -lr
	...
 2001da0:	78007000 	stmdavc	r0, {ip, sp, lr}
 2001da4:	0f803e00 	svceq	0x00803e00
 2001da8:	01f007e0 	mvnseq	r0, r0, ror #15
 2001dac:	001f007c 	andseq	r0, pc, ip, ror r0	; <UNPREDICTABLE>
 2001db0:	01f0007c 	mvnseq	r0, ip, ror r0
 2001db4:	1f8007e0 	svcne	0x008007e0
 2001db8:	78003e00 	stmdavc	r0, {r9, sl, fp, ip, sp}
 2001dbc:	00007000 	andeq	r7, r0, r0
	...
 2001dd4:	07c00000 	strbeq	r0, [r0, r0]
 2001dd8:	38701ff0 	ldmdacc	r0!, {r4, r5, r6, r7, r8, r9, sl, fp, ip}^
 2001ddc:	38383838 	ldmdacc	r8!, {r3, r4, r5, fp, ip, sp}
 2001de0:	00f80038 	rscseq	r0, r8, r8, lsr r0
 2001de4:	03e003f0 	mvneq	r0, #240, 6	; 0xc0000003
 2001de8:	03800380 	orreq	r0, r0, #128, 6
 2001dec:	00000000 	andeq	r0, r0, r0
 2001df0:	03c003c0 	biceq	r0, r0, #192, 6
 2001df4:	000003c0 	andeq	r0, r0, r0, asr #7
	...
 2001e08:	03e00000 	mvneq	r0, #0
 2001e0c:	1c380ff0 	ldcne	15, cr0, [r8], #-960	; 0xfffffc40
 2001e10:	38181818 	ldmdacc	r8, {r3, r4, fp, ip}
 2001e14:	31f83078 	mvnscc	r3, r8, ror r0
 2001e18:	33183398 	tstcc	r8, #152, 6	; 0x60000002
 2001e1c:	33983318 	orrscc	r3, r8, #24, 6	; 0x60000000
 2001e20:	30fc31fc 	ldrshtcc	r3, [ip], #28
 2001e24:	38003000 	stmdacc	r0, {ip, sp}
 2001e28:	1c191801 	ldcne	8, cr1, [r9], {1}
 2001e2c:	03e00ff8 	mvneq	r0, #248, 30	; 0x3e0
	...
 2001e44:	3fc03fc0 	svccc	0x00c03fc0
 2001e48:	03e003e0 	mvneq	r0, #224, 6	; 0x80000003
 2001e4c:	07700760 	ldrbeq	r0, [r0, -r0, ror #14]!
 2001e50:	0e300e70 	mrceq	14, 1, r0, cr0, cr0, {3}
 2001e54:	1ff80c38 	svcne	0x00f80c38
 2001e58:	381c1ffc 	ldmdacc	ip, {r2, r3, r4, r5, r6, r7, r8, r9, sl, fp, ip}
 2001e5c:	700e381c 	andvc	r3, lr, ip, lsl r8
 2001e60:	fc3ffc3f 	ldc2	12, cr15, [pc], #-252	; 2001d6c <FontData+0xd6c>
	...
 2001e7c:	fff0ffc0 			; <UNDEFINED> instruction: 0xfff0ffc0
 2001e80:	38383878 	ldmdacc	r8!, {r3, r4, r5, r6, fp, ip, sp}
 2001e84:	38383838 	ldmdacc	r8!, {r3, r4, r5, fp, ip, sp}
 2001e88:	3ff03878 	svccc	0x00f03878
 2001e8c:	383c3ff8 	ldmdacc	ip!, {r3, r4, r5, r6, r7, r8, r9, sl, fp, ip, sp}
 2001e90:	380e381e 	stmdacc	lr, {r1, r2, r3, r4, fp, ip, sp}
 2001e94:	381e380e 	ldmdacc	lr, {r1, r2, r3, fp, ip, sp}
 2001e98:	fff8fffc 			; <UNDEFINED> instruction: 0xfff8fffc
	...
 2001eb4:	0ffe07ee 	svceq	0x00fe07ee
 2001eb8:	380e1c3e 	stmdacc	lr, {r1, r2, r3, r4, r5, sl, fp, ip}
 2001ebc:	700e380e 	andvc	r3, lr, lr, lsl #16
 2001ec0:	70007000 	andvc	r7, r0, r0
 2001ec4:	70007000 	andvc	r7, r0, r0
 2001ec8:	78067000 	stmdavc	r6, {ip, sp, lr}
 2001ecc:	1e1e380e 	cdpne	8, 1, cr3, cr14, cr14, {0}
 2001ed0:	03f00ffc 	mvnseq	r0, #252, 30	; 0x3f0
	...
 2001eec:	fff0ffc0 			; <UNDEFINED> instruction: 0xfff0ffc0
 2001ef0:	381c3838 	ldmdacc	ip, {r3, r4, r5, fp, ip, sp}
 2001ef4:	380e381c 	stmdacc	lr, {r2, r3, r4, fp, ip, sp}
 2001ef8:	380e380e 	stmdacc	lr, {r1, r2, r3, fp, ip, sp}
 2001efc:	380e380e 	stmdacc	lr, {r1, r2, r3, fp, ip, sp}
 2001f00:	380e380e 	stmdacc	lr, {r1, r2, r3, fp, ip, sp}
 2001f04:	3838381c 	ldmdacc	r8!, {r2, r3, r4, fp, ip, sp}
 2001f08:	ffe0fff0 			; <UNDEFINED> instruction: 0xffe0fff0
	...
 2001f24:	fffcfffc 			; <UNDEFINED> instruction: 0xfffcfffc
 2001f28:	380c380c 	stmdacc	ip, {r2, r3, fp, ip, sp}
 2001f2c:	38c0380c 	stmiacc	r0, {r2, r3, fp, ip, sp}^
 2001f30:	3fc038c0 	svccc	0x00c038c0
 2001f34:	38c03fc0 	stmiacc	r0, {r6, r7, r8, r9, sl, fp, ip, sp}^
 2001f38:	380c38c0 	stmdacc	ip, {r6, r7, fp, ip, sp}
 2001f3c:	380c380c 	stmdacc	ip, {r2, r3, fp, ip, sp}
 2001f40:	fffcfffc 			; <UNDEFINED> instruction: 0xfffcfffc
	...
 2001f5c:	7ffe7ffe 	svcvc	0x00fe7ffe
 2001f60:	1c061c06 	stcne	12, cr1, [r6], {6}
 2001f64:	1c301c06 	ldcne	12, cr1, [r0], #-24	; 0xffffffe8
 2001f68:	1ff01c30 	svcne	0x00f01c30
 2001f6c:	1c301ff0 	ldcne	15, cr1, [r0], #-960	; 0xfffffc40
 2001f70:	1c001c30 	stcne	12, cr1, [r0], {48}	; 0x30
 2001f74:	1c001c00 	stcne	12, cr1, [r0], {-0}
 2001f78:	7fe07fe0 	svcvc	0x00e07fe0
	...
 2001f94:	0ffe03f6 	svceq	0x00fe03f6
 2001f98:	380e1e0e 	stmdacc	lr, {r1, r2, r3, r9, sl, fp, ip}
 2001f9c:	70003806 	andvc	r3, r0, r6, lsl #16
 2001fa0:	70007000 	andvc	r7, r0, r0
 2001fa4:	71ff71ff 	ldrshvc	r7, [pc, #31]	; 2001fcb <FontData+0xfcb>
 2001fa8:	700e700e 	andvc	r7, lr, lr
 2001fac:	3c1e380e 	ldccc	8, cr3, [lr], {14}
 2001fb0:	07f01ffc 			; <UNDEFINED> instruction: 0x07f01ffc
	...
 2001fcc:	fe7ffe7f 	mrc2	14, 3, pc, cr15, cr15, {3}
 2001fd0:	381c381c 	ldmdacc	ip, {r2, r3, r4, fp, ip, sp}
 2001fd4:	381c381c 	ldmdacc	ip, {r2, r3, r4, fp, ip, sp}
 2001fd8:	3ffc381c 	svccc	0x00fc381c
 2001fdc:	381c3ffc 	ldmdacc	ip, {r2, r3, r4, r5, r6, r7, r8, r9, sl, fp, ip, sp}
 2001fe0:	381c381c 	ldmdacc	ip, {r2, r3, r4, fp, ip, sp}
 2001fe4:	381c381c 	ldmdacc	ip, {r2, r3, r4, fp, ip, sp}
 2001fe8:	fe7ffe7f 	mrc2	14, 3, pc, cr15, cr15, {3}
	...
 2002004:	7ffc7ffc 	svcvc	0x00fc7ffc
 2002008:	03800380 	orreq	r0, r0, #128, 6
 200200c:	03800380 	orreq	r0, r0, #128, 6
 2002010:	03800380 	orreq	r0, r0, #128, 6
 2002014:	03800380 	orreq	r0, r0, #128, 6
 2002018:	03800380 	orreq	r0, r0, #128, 6
 200201c:	03800380 	orreq	r0, r0, #128, 6
 2002020:	7ffc7ffc 	svcvc	0x00fc7ffc
	...
 200203c:	07ff07ff 			; <UNDEFINED> instruction: 0x07ff07ff
 2002040:	00380038 	eorseq	r0, r8, r8, lsr r0
 2002044:	00380038 	eorseq	r0, r8, r8, lsr r0
 2002048:	00380038 	eorseq	r0, r8, r8, lsr r0
 200204c:	38383838 	ldmdacc	r8!, {r3, r4, r5, fp, ip, sp}
 2002050:	38383838 	ldmdacc	r8!, {r3, r4, r5, fp, ip, sp}
 2002054:	38703838 	ldmdacc	r0!, {r3, r4, r5, fp, ip, sp}^
 2002058:	0fc03fe0 	svceq	0x00c03fe0
	...
 2002074:	fe3ffe3f 	mrc2	14, 1, pc, cr15, cr15, {1}
 2002078:	3838381c 	ldmdacc	r8!, {r2, r3, r4, fp, ip, sp}
 200207c:	39e03870 	stmibcc	r0!, {r4, r5, r6, fp, ip, sp}^
 2002080:	3fc03b80 	svccc	0x00c03b80
 2002084:	3cf03fe0 	ldclcc	15, cr3, [r0], #896	; 0x380
 2002088:	38383870 	ldmdacc	r8!, {r4, r5, r6, fp, ip, sp}
 200208c:	381c383c 	ldmdacc	ip, {r2, r3, r4, r5, fp, ip, sp}
 2002090:	fe0ffe0f 	cdp2	14, 0, cr15, cr15, cr15, {0}
	...
 20020ac:	ffe0ffe0 			; <UNDEFINED> instruction: 0xffe0ffe0
 20020b0:	0e000e00 	cdpeq	14, 0, cr0, cr0, cr0, {0}
 20020b4:	0e000e00 	cdpeq	14, 0, cr0, cr0, cr0, {0}
 20020b8:	0e000e00 	cdpeq	14, 0, cr0, cr0, cr0, {0}
 20020bc:	0e060e00 	cdpeq	14, 0, cr0, cr6, cr0, {0}
 20020c0:	0e060e06 	cdpeq	14, 0, cr0, cr6, cr6, {0}
 20020c4:	0e060e06 	cdpeq	14, 0, cr0, cr6, cr6, {0}
 20020c8:	ffffffff 			; <UNDEFINED> instruction: 0xffffffff
	...
 20020e4:	f81ff00f 			; <UNDEFINED> instruction: 0xf81ff00f
 20020e8:	7c3e781e 	ldcvc	8, cr7, [lr], #-120	; 0xffffff88
 20020ec:	766e7c3e 			; <UNDEFINED> instruction: 0x766e7c3e
 20020f0:	724e766e 	subvc	r7, lr, #115343360	; 0x6e00000
 20020f4:	73ce73ce 	bicvc	r7, lr, #939524099	; 0x38000003
 20020f8:	718e718e 	orrvc	r7, lr, lr, lsl #3
 20020fc:	700e700e 	andvc	r7, lr, lr
 2002100:	fe7ffe7f 	mrc2	14, 3, pc, cr15, cr15, {3}
	...
 200211c:	f8fff8ff 			; <UNDEFINED> instruction: 0xf8fff8ff
 2002120:	3c1c3c1c 	ldccc	12, cr3, [ip], {28}
 2002124:	3f1c3e1c 	svccc	0x001c3e1c
 2002128:	3b9c3b1c 	blcc	710da0 <__PROGRAM_SIZE+0x706d9c>
 200212c:	38dc39dc 	ldmcc	ip, {r2, r3, r4, r6, r7, r8, fp, ip, sp}^
 2002130:	387c38fc 	ldmdacc	ip!, {r2, r3, r4, r5, r6, r7, fp, ip, sp}^
 2002134:	383c383c 	ldmdacc	ip!, {r2, r3, r4, r5, fp, ip, sp}
 2002138:	ff1cff1c 			; <UNDEFINED> instruction: 0xff1cff1c
	...
 2002154:	0ff003c0 	svceq	0x00f003c0
 2002158:	381c1c38 	ldmdacc	ip, {r3, r4, r5, sl, fp, ip}
 200215c:	700e381c 	andvc	r3, lr, ip, lsl r8
 2002160:	700e700e 	andvc	r7, lr, lr
 2002164:	700e700e 	andvc	r7, lr, lr
 2002168:	381c700e 	ldmdacc	ip, {r1, r2, r3, ip, sp, lr}
 200216c:	1c38381c 	ldcne	8, cr3, [r8], #-112	; 0xffffff90
 2002170:	03c00ff0 	biceq	r0, r0, #240, 30	; 0x3c0
	...
 200218c:	7ff87ff0 	svcvc	0x00f87ff0
 2002190:	1c0e1c1c 	stcne	12, cr1, [lr], {28}
 2002194:	1c0e1c0e 	stcne	12, cr1, [lr], {14}
 2002198:	1c1e1c0e 	ldcne	12, cr1, [lr], {14}
 200219c:	1ff81c3c 	svcne	0x00f81c3c
 20021a0:	1c001fe0 	stcne	15, cr1, [r0], {224}	; 0xe0
 20021a4:	1c001c00 	stcne	12, cr1, [r0], {-0}
 20021a8:	7fe07fe0 	svcvc	0x00e07fe0
	...
 20021c4:	0ff003c0 	svceq	0x00f003c0
 20021c8:	381c1c38 	ldmdacc	ip, {r3, r4, r5, sl, fp, ip}
 20021cc:	700e381c 	andvc	r3, lr, ip, lsl r8
 20021d0:	700e700e 	andvc	r7, lr, lr
 20021d4:	700e700e 	andvc	r7, lr, lr
 20021d8:	381c700e 	ldmdacc	ip, {r1, r2, r3, ip, sp, lr}
 20021dc:	1c38381c 	ldcne	8, cr3, [r8], #-112	; 0xffffff90
 20021e0:	07c00ff0 			; <UNDEFINED> instruction: 0x07c00ff0
 20021e4:	0ffe03ce 	svceq	0x00fe03ce
	...
 20021fc:	fff8ffe0 			; <UNDEFINED> instruction: 0xfff8ffe0
 2002200:	381c3838 	ldmdacc	ip, {r3, r4, r5, fp, ip, sp}
 2002204:	381c381c 	ldmdacc	ip, {r2, r3, r4, fp, ip, sp}
 2002208:	3ff03878 	svccc	0x00f03878
 200220c:	38f03fe0 	ldmcc	r0!, {r5, r6, r7, r8, r9, sl, fp, ip, sp}^
 2002210:	38383838 	ldmdacc	r8!, {r3, r4, r5, fp, ip, sp}
 2002214:	381c381c 	ldmdacc	ip, {r2, r3, r4, fp, ip, sp}
 2002218:	ff0fff0f 			; <UNDEFINED> instruction: 0xff0fff0f
	...
 2002234:	1ff807d8 	svcne	0x00f807d8
 2002238:	38181c38 	ldmdacc	r8, {r3, r4, r5, sl, fp, ip}
 200223c:	3c003818 	stccc	8, cr3, [r0], {24}
 2002240:	1fe03f00 	svcne	0x00e03f00
 2002244:	00fc07f8 	ldrshteq	r0, [ip], #120	; 0x78
 2002248:	301c003c 	andscc	r0, ip, ip, lsr r0
 200224c:	3c38381c 	ldccc	8, cr3, [r8], #-112	; 0xffffff90
 2002250:	37e03ff8 			; <UNDEFINED> instruction: 0x37e03ff8
	...
 200226c:	fffefffe 			; <UNDEFINED> instruction: 0xfffefffe
 2002270:	c386c386 	orrgt	ip, r6, #402653186	; 0x18000002
 2002274:	c386c386 	orrgt	ip, r6, #402653186	; 0x18000002
 2002278:	0380c386 	orreq	ip, r0, #402653186	; 0x18000002
 200227c:	03800380 	orreq	r0, r0, #128, 6
 2002280:	03800380 	orreq	r0, r0, #128, 6
 2002284:	03800380 	orreq	r0, r0, #128, 6
 2002288:	3ff83ff8 	svccc	0x00f83ff8
	...
 20022a4:	fe7ffe7f 	mrc2	14, 3, pc, cr15, cr15, {3}
 20022a8:	381c381c 	ldmdacc	ip, {r2, r3, r4, fp, ip, sp}
 20022ac:	381c381c 	ldmdacc	ip, {r2, r3, r4, fp, ip, sp}
 20022b0:	381c381c 	ldmdacc	ip, {r2, r3, r4, fp, ip, sp}
 20022b4:	381c381c 	ldmdacc	ip, {r2, r3, r4, fp, ip, sp}
 20022b8:	381c381c 	ldmdacc	ip, {r2, r3, r4, fp, ip, sp}
 20022bc:	1c381c38 	ldcne	12, cr1, [r8], #-224	; 0xffffff20
 20022c0:	03c00ff0 	biceq	r0, r0, #240, 30	; 0x3c0
	...
 20022dc:	ff7fff7f 			; <UNDEFINED> instruction: 0xff7fff7f
 20022e0:	380e380e 	stmdacc	lr, {r1, r2, r3, fp, ip, sp}
 20022e4:	1c1c1c1c 	ldcne	12, cr1, [ip], {28}
 20022e8:	0e381c1c 	mrceq	12, 1, r1, cr8, cr12, {0}
 20022ec:	07700e38 			; <UNDEFINED> instruction: 0x07700e38
 20022f0:	07700770 			; <UNDEFINED> instruction: 0x07700770
 20022f4:	03e003e0 	mvneq	r0, #224, 6	; 0x80000003
 20022f8:	01c003e0 	biceq	r0, r0, r0, ror #7
	...
 2002314:	ff7fff7f 			; <UNDEFINED> instruction: 0xff7fff7f
 2002318:	380e380e 	stmdacc	lr, {r1, r2, r3, fp, ip, sp}
 200231c:	39ce388e 	stmibcc	lr, {r1, r2, r3, r7, fp, ip, sp}^
 2002320:	394e39ce 	stmdbcc	lr, {r1, r2, r3, r6, r7, r8, fp, ip, sp}^
 2002324:	1b6c3b6e 	blne	3b110e4 <__PROGRAM_END+0x1b070b8>
 2002328:	1e3c1b6c 	vsubne.f64	d1, d12, d28
 200232c:	1e3c1e3c 	mrcne	14, 1, r1, cr12, cr12, {1}
 2002330:	1c1c1c1c 	ldcne	12, cr1, [ip], {28}
	...
 200234c:	fe7ffe7f 	mrc2	14, 3, pc, cr15, cr15, {3}
 2002350:	1c38381c 	ldcne	8, cr3, [r8], #-112	; 0xffffff90
 2002354:	06600e70 			; <UNDEFINED> instruction: 0x06600e70
 2002358:	03c007e0 	biceq	r0, r0, #224, 14	; 0x3800000
 200235c:	07e003c0 	strbeq	r0, [r0, r0, asr #7]!
 2002360:	0e700660 	cdpeq	6, 7, cr0, cr0, cr0, {3}
 2002364:	381c1c38 	ldmdacc	ip, {r3, r4, r5, sl, fp, ip}
 2002368:	fe7ffe7f 	mrc2	14, 3, pc, cr15, cr15, {3}
	...
 2002384:	7e3f7e3f 	mrcvc	14, 1, r7, cr15, cr15, {1}
 2002388:	0e381c1c 	mrceq	12, 1, r1, cr8, cr12, {0}
 200238c:	07700e38 			; <UNDEFINED> instruction: 0x07700e38
 2002390:	03e003e0 	mvneq	r0, #224, 6	; 0x80000003
 2002394:	01c001c0 	biceq	r0, r0, r0, asr #3
 2002398:	01c001c0 	biceq	r0, r0, r0, asr #3
 200239c:	01c001c0 	biceq	r0, r0, r0, asr #3
 20023a0:	1ffc1ffc 	svcne	0x00fc1ffc
	...
 20023bc:	1ff81ff8 	svcne	0x00f81ff8
 20023c0:	18701838 	ldmdane	r0!, {r3, r4, r5, fp, ip}^
 20023c4:	18e018e0 	stmiane	r0!, {r5, r6, r7, fp, ip}^
 20023c8:	038001c0 	orreq	r0, r0, #192, 2	; 0x30
 20023cc:	07000380 	streq	r0, [r0, -r0, lsl #7]
 20023d0:	0e180e18 	mrceq	14, 0, r0, cr8, cr8, {0}
 20023d4:	38181c18 	ldmdacc	r8, {r3, r4, sl, fp, ip}
 20023d8:	3ff83ff8 	svccc	0x00f83ff8
	...
 20023f0:	03f80000 	mvnseq	r0, #0
 20023f4:	038003f8 	orreq	r0, r0, #248, 6	; 0xe0000003
 20023f8:	03800380 	orreq	r0, r0, #128, 6
 20023fc:	03800380 	orreq	r0, r0, #128, 6
 2002400:	03800380 	orreq	r0, r0, #128, 6
 2002404:	03800380 	orreq	r0, r0, #128, 6
 2002408:	03800380 	orreq	r0, r0, #128, 6
 200240c:	03800380 	orreq	r0, r0, #128, 6
 2002410:	03800380 	orreq	r0, r0, #128, 6
 2002414:	03f80380 	mvnseq	r0, #128, 6
	...
 2002424:	30000000 	andcc	r0, r0, r0
 2002428:	38003800 	stmdacc	r0, {fp, ip, sp}
 200242c:	1c001c00 	stcne	12, cr1, [r0], {-0}
 2002430:	0e000e00 	cdpeq	14, 0, cr0, cr0, cr0, {0}
 2002434:	07000700 	streq	r0, [r0, -r0, lsl #14]
 2002438:	03800380 	orreq	r0, r0, #128, 6
 200243c:	01c001c0 	biceq	r0, r0, r0, asr #3
 2002440:	00e000e0 	rsceq	r0, r0, r0, ror #1
 2002444:	00700070 	rsbseq	r0, r0, r0, ror r0
 2002448:	00380038 	eorseq	r0, r8, r8, lsr r0
 200244c:	001c001c 	andseq	r0, ip, ip, lsl r0
	...
 2002460:	3f800000 	svccc	0x00800000
 2002464:	03803f80 	orreq	r3, r0, #128, 30	; 0x200
 2002468:	03800380 	orreq	r0, r0, #128, 6
 200246c:	03800380 	orreq	r0, r0, #128, 6
 2002470:	03800380 	orreq	r0, r0, #128, 6
 2002474:	03800380 	orreq	r0, r0, #128, 6
 2002478:	03800380 	orreq	r0, r0, #128, 6
 200247c:	03800380 	orreq	r0, r0, #128, 6
 2002480:	03800380 	orreq	r0, r0, #128, 6
 2002484:	3f800380 	svccc	0x00800380
	...
 2002498:	03800100 	orreq	r0, r0, #0, 2
 200249c:	07c00380 	strbeq	r0, [r0, r0, lsl #7]
 20024a0:	1c700ee0 	ldclne	14, cr0, [r0], #-896	; 0xfffffc80
 20024a4:	38383c78 	ldmdacc	r8!, {r3, r4, r5, r6, sl, fp, ip, sp}
 20024a8:	00003018 	andeq	r3, r0, r8, lsl r0
	...
 2002508:	06000000 	streq	r0, [r0], -r0
 200250c:	01c00700 	biceq	r0, r0, r0, lsl #14
 2002510:	000000c0 	andeq	r0, r0, r0, asr #1
	...
 200254c:	07e00000 	strbeq	r0, [r0, r0]!
 2002550:	18781ff0 	ldmdane	r8!, {r4, r5, r6, r7, r8, r9, sl, fp, ip}^
 2002554:	00380038 	eorseq	r0, r8, r8, lsr r0
 2002558:	3ff80ff8 	svccc	0x00f80ff8
 200255c:	70387838 	eorsvc	r7, r8, r8, lsr r8
 2002560:	3ffe7078 	svccc	0x00fe7078
 2002564:	00001fbe 			; <UNDEFINED> instruction: 0x00001fbe
	...
 200257c:	f800f800 			; <UNDEFINED> instruction: 0xf800f800
 2002580:	38003800 	stmdacc	r0, {fp, ip, sp}
 2002584:	3be03800 	blcc	181058c <__PROGRAM_SIZE+0x1806588>
 2002588:	3e3c3ff8 	mrccc	15, 1, r3, cr12, cr8, {7}
 200258c:	380e3c1c 	stmdacc	lr, {r2, r3, r4, sl, fp, ip, sp}
 2002590:	380e380e 	stmdacc	lr, {r1, r2, r3, fp, ip, sp}
 2002594:	3c1e380e 	ldccc	8, cr3, [lr], {14}
 2002598:	fff83e3c 			; <UNDEFINED> instruction: 0xfff83e3c
 200259c:	0000fbe0 	andeq	pc, r0, r0, ror #23
	...
 20025bc:	07ec0000 	strbeq	r0, [ip, r0]!
 20025c0:	3c3c1ffc 	ldccc	15, cr1, [ip], #-1008	; 0xfffffc10
 20025c4:	700c381c 	andvc	r3, ip, ip, lsl r8
 20025c8:	70007000 	andvc	r7, r0, r0
 20025cc:	78067000 	stmdavc	r6, {ip, sp, lr}
 20025d0:	1ffc3c1e 	svcne	0x00fc3c1e
 20025d4:	000007f0 	strdeq	r0, [r0], -r0	; <UNPREDICTABLE>
	...
 20025ec:	007c007c 	rsbseq	r0, ip, ip, ror r0
 20025f0:	001c001c 	andseq	r0, ip, ip, lsl r0
 20025f4:	07dc001c 	bfieq	r0, ip, #0, #29
 20025f8:	3c7c1ffc 	ldclcc	15, cr1, [ip], #-1008	; 0xfffffc10
 20025fc:	701c383c 	andsvc	r3, ip, ip, lsr r8
 2002600:	701c701c 	andsvc	r7, ip, ip, lsl r0
 2002604:	783c701c 	ldmdavc	ip!, {r2, r3, r4, ip, sp, lr}
 2002608:	1fff3c7c 	svcne	0x00ff3c7c
 200260c:	000007df 	ldrdeq	r0, [r0], -pc	; <UNPREDICTABLE>
	...
 200262c:	07e00000 	strbeq	r0, [r0, r0]!
 2002630:	3c3c1ff8 	ldccc	15, cr1, [ip], #-992	; 0xfffffc20
 2002634:	700e381c 	andvc	r3, lr, ip, lsl r8
 2002638:	7ffe7ffe 	svcvc	0x00fe7ffe
 200263c:	38007000 	stmdacc	r0, {ip, sp, lr}
 2002640:	1ffe3c0e 	svcne	0x00fe3c0e
 2002644:	000007f8 	strdeq	r0, [r0], -r8
	...
 200265c:	03fe01fc 	mvnseq	r0, #252, 2	; 0x3f
 2002660:	0700070e 	streq	r0, [r0, -lr, lsl #14]
 2002664:	3ffc0700 	svccc	0x00fc0700
 2002668:	07003ffc 			; <UNDEFINED> instruction: 0x07003ffc
 200266c:	07000700 	streq	r0, [r0, -r0, lsl #14]
 2002670:	07000700 	streq	r0, [r0, -r0, lsl #14]
 2002674:	07000700 	streq	r0, [r0, -r0, lsl #14]
 2002678:	7ffc0700 	svcvc	0x00fc0700
 200267c:	00007ffc 	strdeq	r7, [r0], -ip
	...
 200269c:	07df0000 	ldrbeq	r0, [pc, r0]
 20026a0:	3c7c1fff 	ldclcc	15, cr1, [ip], #-1020	; 0xfffffc04
 20026a4:	701c383c 	andsvc	r3, ip, ip, lsr r8
 20026a8:	701c701c 	andsvc	r7, ip, ip, lsl r0
 20026ac:	383c701c 	ldmdacc	ip!, {r2, r3, r4, ip, sp, lr}
 20026b0:	1ffc3c7c 	svcne	0x00fc3c7c
 20026b4:	001c07dc 			; <UNDEFINED> instruction: 0x001c07dc
 20026b8:	0038001c 	eorseq	r0, r8, ip, lsl r0
 20026bc:	0fe00ff8 	svceq	0x00e00ff8
	...
 20026cc:	7c007c00 	stcvc	12, cr7, [r0], {-0}
 20026d0:	1c001c00 	stcne	12, cr1, [r0], {-0}
 20026d4:	1de01c00 	stclne	12, cr1, [r0]
 20026d8:	1e381ff0 	mrcne	15, 1, r1, cr8, cr0, {7}
 20026dc:	1c381c38 	ldcne	12, cr1, [r8], #-224	; 0xffffff20
 20026e0:	1c381c38 	ldcne	12, cr1, [r8], #-224	; 0xffffff20
 20026e4:	1c381c38 	ldcne	12, cr1, [r8], #-224	; 0xffffff20
 20026e8:	7e7e1c38 	mrcvc	12, 3, r1, cr14, cr8, {1}
 20026ec:	00007e7e 	andeq	r7, r0, lr, ror lr
	...
 2002704:	01c001c0 	biceq	r0, r0, r0, asr #3
 2002708:	000001c0 	andeq	r0, r0, r0, asr #3
 200270c:	1fc00000 	svcne	0x00c00000
 2002710:	01c01fc0 	biceq	r1, r0, r0, asr #31
 2002714:	01c001c0 	biceq	r0, r0, r0, asr #3
 2002718:	01c001c0 	biceq	r0, r0, r0, asr #3
 200271c:	01c001c0 	biceq	r0, r0, r0, asr #3
 2002720:	3ffe01c0 	svccc	0x00fe01c0
 2002724:	00003ffe 	strdeq	r3, [r0], -lr
	...
 200273c:	01c001c0 	biceq	r0, r0, r0, asr #3
 2002740:	000001c0 	andeq	r0, r0, r0, asr #3
 2002744:	3ff00000 	svccc	0x00f00000	; IMB
 2002748:	00703ff0 	ldrshteq	r3, [r0], #-240	; 0xffffff10
 200274c:	00700070 	rsbseq	r0, r0, r0, ror r0
 2002750:	00700070 	rsbseq	r0, r0, r0, ror r0
 2002754:	00700070 	rsbseq	r0, r0, r0, ror r0
 2002758:	00700070 	rsbseq	r0, r0, r0, ror r0
 200275c:	00700070 	rsbseq	r0, r0, r0, ror r0
 2002760:	00e00070 	rsceq	r0, r0, r0, ror r0
 2002764:	3f803fe0 	svccc	0x00803fe0
	...
 2002774:	7c007c00 	stcvc	12, cr7, [r0], {-0}
 2002778:	1c001c00 	stcne	12, cr1, [r0], {-0}
 200277c:	1cfe1c00 	ldclne	12, cr1, [lr]
 2002780:	1ce01cfe 	stclne	12, cr1, [r0], #1016	; 0x3f8
 2002784:	1f801dc0 	svcne	0x00801dc0
 2002788:	1f801f00 	svcne	0x00801f00
 200278c:	1ce01dc0 	stclne	13, cr1, [r0], #768	; 0x300
 2002790:	7c7f1c70 	ldclvc	12, cr1, [pc], #-448	; 20025d8 <FontData+0x15d8>
 2002794:	00007c7f 	andeq	r7, r0, pc, ror ip
	...
 20027ac:	1fc01fc0 	svcne	0x00c01fc0
 20027b0:	01c001c0 	biceq	r0, r0, r0, asr #3
 20027b4:	01c001c0 	biceq	r0, r0, r0, asr #3
 20027b8:	01c001c0 	biceq	r0, r0, r0, asr #3
 20027bc:	01c001c0 	biceq	r0, r0, r0, asr #3
 20027c0:	01c001c0 	biceq	r0, r0, r0, asr #3
 20027c4:	01c001c0 	biceq	r0, r0, r0, asr #3
 20027c8:	3fff01c0 	svccc	0x00ff01c0
 20027cc:	00003fff 	strdeq	r3, [r0], -pc	; <UNPREDICTABLE>
	...
 20027ec:	f73c0000 			; <UNDEFINED> instruction: 0xf73c0000
 20027f0:	79e7fffe 	stmibvc	r7!, {r1, r2, r3, r4, r5, r6, r7, r8, r9, sl, fp, ip, sp, lr, pc}^
 20027f4:	71c771c7 	bicvc	r7, r7, r7, asr #3
 20027f8:	71c771c7 	bicvc	r7, r7, r7, asr #3
 20027fc:	71c771c7 	bicvc	r7, r7, r7, asr #3
 2002800:	fdf771c7 	ldc2l	1, cr7, [r7, #796]!	; 0x31c
 2002804:	0000fdf7 	strdeq	pc, [r0], -r7
	...
 2002824:	7de00000 	stclvc	0, cr0, [r0]
 2002828:	1e387ff0 	mrcne	15, 1, r7, cr8, cr0, {7}
 200282c:	1c381c38 	ldcne	12, cr1, [r8], #-224	; 0xffffff20
 2002830:	1c381c38 	ldcne	12, cr1, [r8], #-224	; 0xffffff20
 2002834:	1c381c38 	ldcne	12, cr1, [r8], #-224	; 0xffffff20
 2002838:	fe7e1c38 	mrc2	12, 3, r1, cr14, cr8, {1}
 200283c:	0000fe7e 	andeq	pc, r0, lr, ror lr	; <UNPREDICTABLE>
	...
 200285c:	07e00000 	strbeq	r0, [r0, r0]!
 2002860:	3c3c1ff8 	ldccc	15, cr1, [ip], #-992	; 0xfffffc20
 2002864:	700e381c 	andvc	r3, lr, ip, lsl r8
 2002868:	700e700e 	andvc	r7, lr, lr
 200286c:	381c700e 	ldmdacc	ip, {r1, r2, r3, ip, sp, lr}
 2002870:	1ff83c3c 	svcne	0x00f83c3c
 2002874:	000007e0 	andeq	r0, r0, r0, ror #15
	...
 2002894:	fbe00000 	blx	180289e <__PROGRAM_SIZE+0x17f889a>
 2002898:	3e3cfff8 	mrccc	15, 1, APSR_nzcv, cr12, cr8, {7}
 200289c:	380e3c1c 	stmdacc	lr, {r2, r3, r4, sl, fp, ip, sp}
 20028a0:	380e380e 	stmdacc	lr, {r1, r2, r3, fp, ip, sp}
 20028a4:	3c1e380e 	ldccc	8, cr3, [lr], {14}
 20028a8:	3ff83e3c 	svccc	0x00f83e3c
 20028ac:	38003be0 	stmdacc	r0, {r5, r6, r7, r8, r9, fp, ip, sp}
 20028b0:	38003800 	stmdacc	r0, {fp, ip, sp}
 20028b4:	ff80ff80 			; <UNDEFINED> instruction: 0xff80ff80
	...
 20028cc:	07df0000 	ldrbeq	r0, [pc, r0]
 20028d0:	3c7c1fff 	ldclcc	15, cr1, [ip], #-1020	; 0xfffffc04
 20028d4:	701c383c 	andsvc	r3, ip, ip, lsr r8
 20028d8:	701c701c 	andsvc	r7, ip, ip, lsl r0
 20028dc:	783c701c 	ldmdavc	ip!, {r2, r3, r4, ip, sp, lr}
 20028e0:	1ffc3c7c 	svcne	0x00fc3c7c
 20028e4:	001c07dc 			; <UNDEFINED> instruction: 0x001c07dc
 20028e8:	001c001c 	andseq	r0, ip, ip, lsl r0
 20028ec:	01ff01ff 	ldrsheq	r0, [pc, #31]	; 2002913 <FontData+0x1913>
	...
 2002904:	3f3c0000 	svccc	0x003c0000
 2002908:	07e63f7e 			; <UNDEFINED> instruction: 0x07e63f7e
 200290c:	070007c6 	streq	r0, [r0, -r6, asr #15]
 2002910:	07000700 	streq	r0, [r0, -r0, lsl #14]
 2002914:	07000700 	streq	r0, [r0, -r0, lsl #14]
 2002918:	7ffc0700 	svcvc	0x00fc0700
 200291c:	00007ffc 	strdeq	r7, [r0], -ip
	...
 200293c:	07d80000 	ldrbeq	r0, [r8, r0]
 2002940:	1c380ff8 	ldcne	15, cr0, [r8], #-992	; 0xfffffc20
 2002944:	1f801c18 	svcne	0x00801c18
 2002948:	03f80ff0 	mvnseq	r0, #240, 30	; 0x3c0
 200294c:	381c003c 	ldmdacc	ip, {r2, r3, r4, r5}
 2002950:	3ff83c3c 	svccc	0x00f83c3c
 2002954:	000037e0 	andeq	r3, r0, r0, ror #15
	...
 200296c:	0e000000 	cdpeq	0, 0, cr0, cr0, cr0, {0}
 2002970:	0e000e00 	cdpeq	14, 0, cr0, cr0, cr0, {0}
 2002974:	3ff80e00 	svccc	0x00f80e00
 2002978:	0e003ff8 	mcreq	15, 0, r3, cr0, cr8, {7}
 200297c:	0e000e00 	cdpeq	14, 0, cr0, cr0, cr0, {0}
 2002980:	0e000e00 	cdpeq	14, 0, cr0, cr0, cr0, {0}
 2002984:	0e000e00 	cdpeq	14, 0, cr0, cr0, cr0, {0}
 2002988:	07fe0e0e 	ldrbeq	r0, [lr, lr, lsl #28]!
 200298c:	000003f8 	strdeq	r0, [r0], -r8
	...
 20029ac:	7cf80000 	ldclvc	0, cr0, [r8]
 20029b0:	1c387cf8 	ldcne	12, cr7, [r8], #-992	; 0xfffffc20
 20029b4:	1c381c38 	ldcne	12, cr1, [r8], #-224	; 0xffffff20
 20029b8:	1c381c38 	ldcne	12, cr1, [r8], #-224	; 0xffffff20
 20029bc:	1c381c38 	ldcne	12, cr1, [r8], #-224	; 0xffffff20
 20029c0:	0ffe1c78 	svceq	0x00fe1c78
 20029c4:	000007be 			; <UNDEFINED> instruction: 0x000007be
	...
 20029e4:	7e1f0000 	cdpvc	0, 1, cr0, cr15, cr0, {0}
 20029e8:	1c1c7e1f 	ldcne	14, cr7, [ip], {31}
 20029ec:	0e381c1c 	mrceq	12, 1, r1, cr8, cr12, {0}
 20029f0:	07700e38 			; <UNDEFINED> instruction: 0x07700e38
 20029f4:	03e00770 	mvneq	r0, #112, 14	; 0x1c00000
 20029f8:	01c003e0 	biceq	r0, r0, r0, ror #7
 20029fc:	000001c0 	andeq	r0, r0, r0, asr #3
	...
 2002a1c:	fc7f0000 	ldc2l	0, cr0, [pc], #-0	; 2002a24 <FontData+0x1a24>
 2002a20:	601cfc7f 	andsvs	pc, ip, pc, ror ip	; <UNPREDICTABLE>
 2002a24:	739c711c 	orrsvc	r7, ip, #28, 2
 2002a28:	33b83398 			; <UNDEFINED> instruction: 0x33b83398
 2002a2c:	3ef83ef8 	mrccc	14, 7, r3, cr8, cr8, {7}
 2002a30:	1c701c70 	ldclne	12, cr1, [r0], #-448	; 0xfffffe40
 2002a34:	00001830 	andeq	r1, r0, r0, lsr r8
	...
 2002a54:	3e7c0000 	cdpcc	0, 7, cr0, cr12, cr0, {0}
 2002a58:	1c383e7c 	ldcne	14, cr3, [r8], #-496	; 0xfffffe10
 2002a5c:	07e00e70 			; <UNDEFINED> instruction: 0x07e00e70
 2002a60:	03c003c0 	biceq	r0, r0, #192, 6
 2002a64:	0e7007e0 	cdpeq	7, 7, cr0, cr0, cr0, {7}
 2002a68:	7e7e1c38 	mrcvc	12, 3, r1, cr14, cr8, {1}
 2002a6c:	00007e7e 	andeq	r7, r0, lr, ror lr
	...
 2002a8c:	fe7f0000 	cdp2	0, 7, cr0, cr15, cr0, {0}
 2002a90:	381cfe7f 	ldmdacc	ip, {r0, r1, r2, r3, r4, r5, r6, r9, sl, fp, ip, sp, lr, pc}
 2002a94:	1c381c1c 	ldcne	12, cr1, [r8], #-112	; 0xffffff90
 2002a98:	06700e38 			; <UNDEFINED> instruction: 0x06700e38
 2002a9c:	03e00770 	mvneq	r0, #112, 14	; 0x1c00000
 2002aa0:	01c003c0 	biceq	r0, r0, r0, asr #7
 2002aa4:	03800380 	orreq	r0, r0, #128, 6
 2002aa8:	07000700 	streq	r0, [r0, -r0, lsl #14]
 2002aac:	ffe0ffe0 			; <UNDEFINED> instruction: 0xffe0ffe0
	...
 2002ac4:	3ff80000 	svccc	0x00f80000
 2002ac8:	30383ff8 	ldrshtcc	r3, [r8], -r8
 2002acc:	00e03070 	rsceq	r3, r0, r0, ror r0
 2002ad0:	070003c0 	streq	r0, [r0, -r0, asr #7]
 2002ad4:	1c180e00 	ldcne	14, cr0, [r8], {-0}
 2002ad8:	3ff83818 	svccc	0x00f83818
 2002adc:	00003ff8 	strdeq	r3, [r0], -r8
	...
 2002af4:	01c000c0 	biceq	r0, r0, r0, asr #1
 2002af8:	038003c0 	orreq	r0, r0, #192, 6
 2002afc:	03800380 	orreq	r0, r0, #128, 6
 2002b00:	03800380 	orreq	r0, r0, #128, 6
 2002b04:	07800380 	streq	r0, [r0, r0, lsl #7]
 2002b08:	07800f00 	streq	r0, [r0, r0, lsl #30]
 2002b0c:	03800380 	orreq	r0, r0, #128, 6
 2002b10:	03800380 	orreq	r0, r0, #128, 6
 2002b14:	03c00380 	biceq	r0, r0, #128, 6
 2002b18:	00c001c0 	sbceq	r0, r0, r0, asr #3
	...
 2002b2c:	03800380 	orreq	r0, r0, #128, 6
 2002b30:	03800380 	orreq	r0, r0, #128, 6
 2002b34:	03800380 	orreq	r0, r0, #128, 6
 2002b38:	03800380 	orreq	r0, r0, #128, 6
 2002b3c:	03800380 	orreq	r0, r0, #128, 6
 2002b40:	03800380 	orreq	r0, r0, #128, 6
 2002b44:	03800380 	orreq	r0, r0, #128, 6
 2002b48:	03800380 	orreq	r0, r0, #128, 6
 2002b4c:	03800380 	orreq	r0, r0, #128, 6
 2002b50:	03800380 	orreq	r0, r0, #128, 6
	...
 2002b64:	07000600 	streq	r0, [r0, -r0, lsl #12]
 2002b68:	03800780 	orreq	r0, r0, #128, 14	; 0x2000000
 2002b6c:	03800380 	orreq	r0, r0, #128, 6
 2002b70:	03800380 	orreq	r0, r0, #128, 6
 2002b74:	03c00380 	biceq	r0, r0, #128, 6
 2002b78:	03e001e0 	mvneq	r0, #224, 2	; 0x38
 2002b7c:	03800380 	orreq	r0, r0, #128, 6
 2002b80:	03800380 	orreq	r0, r0, #128, 6
 2002b84:	07800380 	streq	r0, [r0, r0, lsl #7]
 2002b88:	06000700 	streq	r0, [r0], -r0, lsl #14
	...
 2002ba8:	1e000000 	cdpne	0, 0, cr0, cr0, cr0, {0}
 2002bac:	7f9c3f0c 	svcvc	0x009c3f0c
 2002bb0:	61f873fc 	ldrshvs	r7, [r8, #60]!	; 0x3c
 2002bb4:	000000f0 	strdeq	r0, [r0], -r0	; <UNPREDICTABLE>
	...
 2004f44:	00800080 	addeq	r0, r0, r0, lsl #1
 2004f48:	00800080 	addeq	r0, r0, r0, lsl #1
 2004f4c:	00800080 	addeq	r0, r0, r0, lsl #1
 2004f50:	00800080 	addeq	r0, r0, r0, lsl #1
 2004f54:	00800080 	addeq	r0, r0, r0, lsl #1
 2004f58:	00000080 	andeq	r0, r0, r0, lsl #1
 2004f5c:	00000000 	andeq	r0, r0, r0
 2004f60:	01c001c0 	biceq	r0, r0, r0, asr #3
 2004f64:	000001c0 	andeq	r0, r0, r0, asr #3
	...
 2004f7c:	1c701c70 	ldclne	12, cr1, [r0], #-448	; 0xfffffe40
 2004f80:	0c301c70 	ldceq	12, cr1, [r0], #-448	; 0xfffffe40
 2004f84:	0c300c30 	ldceq	12, cr0, [r0], #-192	; 0xffffff40
 2004f88:	00000c30 	andeq	r0, r0, r0, lsr ip
	...
 2004fb0:	01100000 	tsteq	r0, r0
 2004fb4:	01100110 	tsteq	r0, r0, lsl r1
 2004fb8:	02200110 	eoreq	r0, r0, #16, 2
 2004fbc:	02200220 	eoreq	r0, r0, #32, 4
 2004fc0:	02201ffc 	eoreq	r1, r0, #252, 30	; 0x3f0
 2004fc4:	02200220 	eoreq	r0, r0, #32, 4
 2004fc8:	1ffc0220 	svcne	0x00fc0220
 2004fcc:	02200220 	eoreq	r0, r0, #32, 4
 2004fd0:	04400220 	strbeq	r0, [r0], #-544	; 0xfffffde0
 2004fd4:	04400440 	strbeq	r0, [r0], #-1088	; 0xfffffbc0
 2004fd8:	00000440 	andeq	r0, r0, r0, asr #8
	...
 2004fe8:	01000000 	mrseq	r0, (UNDEF: 0)
 2004fec:	07800100 	streq	r0, [r0, r0, lsl #2]
 2004ff0:	10100870 	andsne	r0, r0, r0, ror r8
 2004ff4:	10001010 	andne	r1, r0, r0, lsl r0
 2004ff8:	0e001000 	cdpeq	0, 0, cr1, cr0, cr0, {0}
 2004ffc:	001001e0 	andseq	r0, r0, r0, ror #3
 2005000:	00080008 	andeq	r0, r8, r8
 2005004:	20182008 	andscs	r2, r8, r8
 2005008:	2fc03030 	svccs	0x00c03030
 200500c:	01000100 	mrseq	r0, (UNDEF: 16)
 2005010:	01000100 	mrseq	r0, (UNDEF: 16)
	...
 2005024:	08800700 	stmeq	r0, {r8, r9, sl}
 2005028:	10401040 	subne	r1, r0, r0, asr #32
 200502c:	08801040 	stmeq	r0, {r6, ip}
 2005030:	00380700 	eorseq	r0, r8, r0, lsl #14
 2005034:	1c0003c0 	stcne	3, cr0, [r0], {192}	; 0xc0
 2005038:	011000e0 	tsteq	r0, r0, ror #1
 200503c:	02080208 	andeq	r0, r8, #8, 4	; 0x80000000
 2005040:	01100208 	tsteq	r0, r8, lsl #4
 2005044:	000000e0 	andeq	r0, r0, r0, ror #1
	...
 2005060:	03e00000 	mvneq	r0, #0
 2005064:	04000600 	streq	r0, [r0], #-1536	; 0xfffffa00
 2005068:	04000400 	streq	r0, [r0], #-1024	; 0xfffffc00
 200506c:	06000200 	streq	r0, [r0], -r0, lsl #4
 2005070:	10900918 	addsne	r0, r0, r8, lsl r9
 2005074:	106010a0 	rsbne	r1, r0, r0, lsr #1
 2005078:	08601060 	stmdaeq	r0!, {r5, r6, ip}^
 200507c:	00000798 	muleq	r0, r8, r7
	...
 2005094:	03c003c0 	biceq	r0, r0, #192, 6
 2005098:	03c003c0 	biceq	r0, r0, #192, 6
 200509c:	01800180 	orreq	r0, r0, r0, lsl #3
 20050a0:	01800180 	orreq	r0, r0, r0, lsl #3
	...
 20050cc:	00300010 	eorseq	r0, r0, r0, lsl r0
 20050d0:	00600020 	rsbeq	r0, r0, r0, lsr #32
 20050d4:	00400040 	subeq	r0, r0, r0, asr #32
 20050d8:	00800080 	addeq	r0, r0, r0, lsl #1
 20050dc:	00800080 	addeq	r0, r0, r0, lsl #1
 20050e0:	00800080 	addeq	r0, r0, r0, lsl #1
 20050e4:	00800080 	addeq	r0, r0, r0, lsl #1
 20050e8:	00400040 	subeq	r0, r0, r0, asr #32
 20050ec:	00200060 	eoreq	r0, r0, r0, rrx
 20050f0:	00100030 	andseq	r0, r0, r0, lsr r0
	...
 2005104:	0c000800 	stceq	8, cr0, [r0], {-0}
 2005108:	06000400 	streq	r0, [r0], -r0, lsl #8
 200510c:	02000200 	andeq	r0, r0, #0, 4
 2005110:	01000100 	mrseq	r0, (UNDEF: 16)
 2005114:	01000100 	mrseq	r0, (UNDEF: 16)
 2005118:	01000100 	mrseq	r0, (UNDEF: 16)
 200511c:	01000100 	mrseq	r0, (UNDEF: 16)
 2005120:	02000200 	andeq	r0, r0, #0, 4
 2005124:	04000600 	streq	r0, [r0], #-1536	; 0xfffffa00
 2005128:	08000c00 	stmdaeq	r0, {sl, fp}
	...
 200513c:	01000100 	mrseq	r0, (UNDEF: 16)
 2005140:	01000100 	mrseq	r0, (UNDEF: 16)
 2005144:	07e01918 			; <UNDEFINED> instruction: 0x07e01918
 2005148:	01800100 	orreq	r0, r0, r0, lsl #2
 200514c:	04200240 	strteq	r0, [r0], #-576	; 0xfffffdc0
	...
 2005178:	00800000 	addeq	r0, r0, r0
 200517c:	00800080 	addeq	r0, r0, r0, lsl #1
 2005180:	00800080 	addeq	r0, r0, r0, lsl #1
 2005184:	3ffe0080 	svccc	0x00fe0080
 2005188:	00800080 	addeq	r0, r0, r0, lsl #1
 200518c:	00800080 	addeq	r0, r0, r0, lsl #1
 2005190:	00800080 	addeq	r0, r0, r0, lsl #1
	...
 20051c4:	03c00000 	biceq	r0, r0, #0
 20051c8:	07800380 	streq	r0, [r0, r0, lsl #7]
 20051cc:	07000700 	streq	r0, [r0, -r0, lsl #14]
 20051d0:	0c000e00 	stceq	14, cr0, [r0], {-0}
 20051d4:	00000c00 	andeq	r0, r0, r0, lsl #24
	...
 20051f4:	3ff83ff8 	svccc	0x00f83ff8
	...
 2005234:	01800000 	orreq	r0, r0, r0
 2005238:	03c003c0 	biceq	r0, r0, #192, 6
 200523c:	00000180 	andeq	r0, r0, r0, lsl #3
	...
 2005250:	00100010 	andseq	r0, r0, r0, lsl r0
 2005254:	00200020 	eoreq	r0, r0, r0, lsr #32
 2005258:	00400040 	subeq	r0, r0, r0, asr #32
 200525c:	00800080 	addeq	r0, r0, r0, lsl #1
 2005260:	01000180 	smlabbeq	r0, r0, r1, r0
 2005264:	02000300 	andeq	r0, r0, #0, 6
 2005268:	04000600 	streq	r0, [r0], #-1536	; 0xfffffa00
 200526c:	08000400 	stmdaeq	r0, {sl}
 2005270:	10000800 	andne	r0, r0, r0, lsl #16
 2005274:	20001000 	andcs	r1, r0, r0
 2005278:	00002000 	andeq	r2, r0, r0
	...
 200528c:	042003c0 	strteq	r0, [r0], #-960	; 0xfffffc40
 2005290:	08100810 	ldmdaeq	r0, {r4, fp}
 2005294:	10081008 	andne	r1, r8, r8
 2005298:	10081008 	andne	r1, r8, r8
 200529c:	10081008 	andne	r1, r8, r8
 20052a0:	10081008 	andne	r1, r8, r8
 20052a4:	08101008 	ldmdaeq	r0, {r3, ip}
 20052a8:	04200810 	strteq	r0, [r0], #-2064	; 0xfffff7f0
 20052ac:	000003c0 	andeq	r0, r0, r0, asr #7
	...
 20052c4:	07800180 	streq	r0, [r0, r0, lsl #3]
 20052c8:	00801880 	addeq	r1, r0, r0, lsl #17
 20052cc:	00800080 	addeq	r0, r0, r0, lsl #1
 20052d0:	00800080 	addeq	r0, r0, r0, lsl #1
 20052d4:	00800080 	addeq	r0, r0, r0, lsl #1
 20052d8:	00800080 	addeq	r0, r0, r0, lsl #1
 20052dc:	00800080 	addeq	r0, r0, r0, lsl #1
 20052e0:	00800080 	addeq	r0, r0, r0, lsl #1
 20052e4:	00001ffc 	strdeq	r1, [r0], -ip
	...
 20052fc:	0c3003c0 	ldceq	3, cr0, [r0], #-768	; 0xfffffd00
 2005300:	10080810 	andne	r0, r8, r0, lsl r8
 2005304:	00081008 	andeq	r1, r8, r8
 2005308:	00200010 	eoreq	r0, r0, r0, lsl r0
 200530c:	00800040 	addeq	r0, r0, r0, asr #32
 2005310:	02000100 	andeq	r0, r0, #0, 2
 2005314:	08000400 	stmdaeq	r0, {sl}
 2005318:	20081000 	andcs	r1, r8, r0
 200531c:	00003ff8 	strdeq	r3, [r0], -r8
	...
 2005334:	0c2007c0 	stceq	7, cr0, [r0], #-768	; 0xfffffd00
 2005338:	00101010 	andseq	r1, r0, r0, lsl r0
 200533c:	00100010 	andseq	r0, r0, r0, lsl r0
 2005340:	01c00020 	biceq	r0, r0, r0, lsr #32
 2005344:	00100020 	andseq	r0, r0, r0, lsr #32
 2005348:	00080008 	andeq	r0, r8, r8
 200534c:	00080008 	andeq	r0, r8, r8
 2005350:	18203010 	stmdane	r0!, {r4, ip, sp}
 2005354:	000007c0 	andeq	r0, r0, r0, asr #15
	...
 200536c:	00a00060 	adceq	r0, r0, r0, rrx
 2005370:	012000a0 	smulwbeq	r0, r0, r0
 2005374:	02200120 	eoreq	r0, r0, #32, 2
 2005378:	04200220 	strteq	r0, [r0], #-544	; 0xfffffde0
 200537c:	08200420 	stmdaeq	r0!, {r5, sl}
 2005380:	10200820 	eorne	r0, r0, r0, lsr #16
 2005384:	00201ff8 	strdeq	r1, [r0], -r8	; <UNPREDICTABLE>
 2005388:	00200020 	eoreq	r0, r0, r0, lsr #32
 200538c:	000001f8 	strdeq	r0, [r0], -r8
	...
 20053a4:	10001fe0 	andne	r1, r0, r0, ror #31
 20053a8:	10001000 	andne	r1, r0, r0
 20053ac:	10001000 	andne	r1, r0, r0
 20053b0:	183017c0 	ldmdane	r0!, {r6, r7, r8, r9, sl, ip}
 20053b4:	00080010 	andeq	r0, r8, r0, lsl r0
 20053b8:	00080008 	andeq	r0, r8, r8
 20053bc:	00080008 	andeq	r0, r8, r8
 20053c0:	10202010 	eorne	r2, r0, r0, lsl r0
 20053c4:	00000fc0 	andeq	r0, r0, r0, asr #31
	...
 20053dc:	0184007c 	orreq	r0, r4, ip, ror r0
 20053e0:	04000200 	streq	r0, [r0], #-512	; 0xfffffe00
 20053e4:	08000800 	stmdaeq	r0, {fp}
 20053e8:	08f00800 	ldmeq	r0!, {fp}^
 20053ec:	0a080b08 	beq	2208014 <__PROGRAM_END+0x1fdfe8>
 20053f0:	08040c04 	stmdaeq	r4, {r2, sl, fp}
 20053f4:	08040804 	stmdaeq	r4, {r2, fp}
 20053f8:	02180408 	andseq	r0, r8, #8, 8	; 0x8000000
 20053fc:	000001f0 	strdeq	r0, [r0], -r0	; <UNPREDICTABLE>
	...
 2005414:	10101ff0 			; <UNDEFINED> instruction: 0x10101ff0
 2005418:	00201010 	eoreq	r1, r0, r0, lsl r0
 200541c:	00200020 	eoreq	r0, r0, r0, lsr #32
 2005420:	00400020 	subeq	r0, r0, r0, lsr #32
 2005424:	00400040 	subeq	r0, r0, r0, asr #32
 2005428:	00800040 	addeq	r0, r0, r0, asr #32
 200542c:	00800080 	addeq	r0, r0, r0, lsl #1
 2005430:	01000080 	smlabbeq	r0, r0, r0, r0
 2005434:	00000100 	andeq	r0, r0, r0, lsl #2
	...
 200544c:	0c3003c0 	ldceq	3, cr0, [r0], #-768	; 0xfffffd00
 2005450:	10080810 	andne	r0, r8, r0, lsl r8
 2005454:	10081008 	andne	r1, r8, r8
 2005458:	08101010 	ldmdaeq	r0, {r4, ip}
 200545c:	081007e0 	ldmdaeq	r0, {r5, r6, r7, r8, r9, sl}
 2005460:	10081008 	andne	r1, r8, r8
 2005464:	10081008 	andne	r1, r8, r8
 2005468:	0c100810 	ldceq	8, cr0, [r0], {16}
 200546c:	000003e0 	andeq	r0, r0, r0, ror #7
	...
 2005484:	061003e0 	ldreq	r0, [r0], -r0, ror #7
 2005488:	08080408 	stmdaeq	r8, {r3, sl}
 200548c:	08040804 	stmdaeq	r4, {r2, fp}
 2005490:	040c0804 	streq	r0, [ip], #-2052	; 0xfffff7fc
 2005494:	01e40614 	mvneq	r0, r4, lsl r6
 2005498:	00040004 	andeq	r0, r4, r4
 200549c:	00080008 	andeq	r0, r8, r8
 20054a0:	00600010 	rsbeq	r0, r0, r0, lsl r0
 20054a4:	00000f80 	andeq	r0, r0, r0, lsl #31
	...
 20054c4:	01800000 	orreq	r0, r0, r0
 20054c8:	03c003c0 	biceq	r0, r0, #192, 6
 20054cc:	00000180 	andeq	r0, r0, r0, lsl #3
 20054d0:	00000000 	andeq	r0, r0, r0
 20054d4:	01800000 	orreq	r0, r0, r0
 20054d8:	03c003c0 	biceq	r0, r0, #192, 6
 20054dc:	00000180 	andeq	r0, r0, r0, lsl #3
	...
 20054fc:	01800000 	orreq	r0, r0, r0
 2005500:	03c003c0 	biceq	r0, r0, #192, 6
 2005504:	00000180 	andeq	r0, r0, r0, lsl #3
 2005508:	00000000 	andeq	r0, r0, r0
 200550c:	038003c0 	orreq	r0, r0, #192, 6
 2005510:	07000700 	streq	r0, [r0, -r0, lsl #14]
 2005514:	0e000600 	cfmadd32eq	mvax0, mvfx0, mvfx0, mvfx0
 2005518:	00000c00 	andeq	r0, r0, r0, lsl #24
	...
 2005530:	000c0000 	andeq	r0, ip, r0
 2005534:	00c00030 	sbceq	r0, r0, r0, lsr r0
 2005538:	06000100 	streq	r0, [r0], -r0, lsl #2
 200553c:	60001800 	andvs	r1, r0, r0, lsl #16
 2005540:	06001800 	streq	r1, [r0], -r0, lsl #16
 2005544:	00c00100 	sbceq	r0, r0, r0, lsl #2
 2005548:	000c0030 	andeq	r0, ip, r0, lsr r0
	...
 2005570:	7ffc0000 	svcvc	0x00fc0000
 2005574:	00000000 	andeq	r0, r0, r0
 2005578:	7ffc0000 	svcvc	0x00fc0000
	...
 20055a0:	30000000 	andcc	r0, r0, r0
 20055a4:	03000c00 	movweq	r0, #3072	; 0xc00
 20055a8:	00600080 	rsbeq	r0, r0, r0, lsl #1
 20055ac:	00060018 	andeq	r0, r6, r8, lsl r0
 20055b0:	00600018 	rsbeq	r0, r0, r8, lsl r0
 20055b4:	03000080 	movweq	r0, #128	; 0x80
 20055b8:	30000c00 	andcc	r0, r0, r0, lsl #24
	...
 20055d4:	03e00000 	mvneq	r0, #0
 20055d8:	08180c30 	ldmdaeq	r8, {r4, r5, sl, fp}
 20055dc:	00080808 	andeq	r0, r8, r8, lsl #16
 20055e0:	00100008 	andseq	r0, r0, r8
 20055e4:	01c00060 	biceq	r0, r0, r0, rrx
 20055e8:	01000100 	mrseq	r0, (UNDEF: 16)
 20055ec:	00000000 	andeq	r0, r0, r0
 20055f0:	03c003c0 	biceq	r0, r0, #192, 6
 20055f4:	000003c0 	andeq	r0, r0, r0, asr #7
	...
 2005608:	03e00000 	mvneq	r0, #0
 200560c:	08080410 	stmdaeq	r8, {r4, sl}
 2005610:	10081008 	andne	r1, r8, r8
 2005614:	10781008 	rsbsne	r1, r8, r8
 2005618:	11081088 	smlabbne	r8, r8, r0, r1
 200561c:	11081108 	tstne	r8, r8, lsl #2
 2005620:	107c1088 	rsbsne	r1, ip, r8, lsl #1
 2005624:	10001000 	andne	r1, r0, r0
 2005628:	08000800 	stmdaeq	r0, {fp}
 200562c:	03e00410 	mvneq	r0, #16, 8	; 0x10000000
	...
 2005644:	1f800000 	svcne	0x00800000
 2005648:	02400180 	subeq	r0, r0, #128, 2
 200564c:	02400240 	subeq	r0, r0, #64, 4
 2005650:	04200420 	strteq	r0, [r0], #-1056	; 0xfffffbe0
 2005654:	08100420 	ldmdaeq	r0, {r5, sl}
 2005658:	08100ff0 	ldmdaeq	r0, {r4, r5, r6, r7, r8, r9, sl, fp}
 200565c:	10081008 	andne	r1, r8, r8
 2005660:	20042004 	andcs	r2, r4, r4
 2005664:	0000f81f 	andeq	pc, r0, pc, lsl r8	; <UNPREDICTABLE>
	...
 200567c:	3fe00000 	svccc	0x00e00000
 2005680:	08080810 	stmdaeq	r8, {r4, fp}
 2005684:	08080808 	stmdaeq	r8, {r3, fp}
 2005688:	08100808 	ldmdaeq	r0, {r3, fp}
 200568c:	08100fe0 	ldmdaeq	r0, {r5, r6, r7, r8, r9, sl, fp}
 2005690:	08040808 	stmdaeq	r4, {r3, fp}
 2005694:	08040804 	stmdaeq	r4, {r2, fp}
 2005698:	08080804 	stmdaeq	r8, {r2, fp}
 200569c:	00003ff0 	strdeq	r3, [r0], -r0
	...
 20056b4:	07e40000 	strbeq	r0, [r4, r0]!
 20056b8:	100c0814 	andne	r0, ip, r4, lsl r8
 20056bc:	40042004 	andmi	r2, r4, r4
 20056c0:	40004000 	andmi	r4, r0, r0
 20056c4:	40004000 	andmi	r4, r0, r0
 20056c8:	40004000 	andmi	r4, r0, r0
 20056cc:	20044000 	andcs	r4, r4, r0
 20056d0:	08101008 	ldmdaeq	r0, {r3, ip}
 20056d4:	000007e0 	andeq	r0, r0, r0, ror #15
	...
 20056ec:	3fe00000 	svccc	0x00e00000
 20056f0:	08080818 	stmdaeq	r8, {r3, r4, fp}
 20056f4:	08020804 	stmdaeq	r2, {r2, fp}
 20056f8:	08020802 	stmdaeq	r2, {r1, fp}
 20056fc:	08020802 	stmdaeq	r2, {r1, fp}
 2005700:	08020802 	stmdaeq	r2, {r1, fp}
 2005704:	08040802 	stmdaeq	r4, {r1, fp}
 2005708:	08180808 	ldmdaeq	r8, {r3, fp}
 200570c:	00003fe0 	andeq	r3, r0, r0, ror #31
	...
 2005724:	3ffc0000 	svccc	0x00fc0000
 2005728:	08040804 	stmdaeq	r4, {r2, fp}
 200572c:	08000804 	stmdaeq	r0, {r2, fp}
 2005730:	08400840 	stmdaeq	r0, {r6, fp}^
 2005734:	08400fc0 	stmdaeq	r0, {r6, r7, r8, r9, sl, fp}^
 2005738:	08000840 	stmdaeq	r0, {r6, fp}
 200573c:	08020802 	stmdaeq	r2, {r1, fp}
 2005740:	08020802 	stmdaeq	r2, {r1, fp}
 2005744:	00003ffe 	strdeq	r3, [r0], -lr
	...
 200575c:	3ffc0000 	svccc	0x00fc0000
 2005760:	08040804 	stmdaeq	r4, {r2, fp}
 2005764:	08000804 	stmdaeq	r0, {r2, fp}
 2005768:	08400840 	stmdaeq	r0, {r6, fp}^
 200576c:	08400fc0 	stmdaeq	r0, {r6, r7, r8, r9, sl, fp}^
 2005770:	08000840 	stmdaeq	r0, {r6, fp}
 2005774:	08000800 	stmdaeq	r0, {fp}
 2005778:	08000800 	stmdaeq	r0, {fp}
 200577c:	00003fc0 	andeq	r3, r0, r0, asr #31
	...
 2005794:	03e40000 	mvneq	r0, #0
 2005798:	10040c1c 	andne	r0, r4, ip, lsl ip
 200579c:	20001004 	andcs	r1, r0, r4
 20057a0:	20002000 	andcs	r2, r0, r0
 20057a4:	20002000 	andcs	r2, r0, r0
 20057a8:	200420ff 	strdcs	r2, [r4], -pc	; <UNPREDICTABLE>
 20057ac:	10042004 	andne	r2, r4, r4
 20057b0:	0c0c1004 	stceq	0, cr1, [ip], {4}
 20057b4:	000003f0 	strdeq	r0, [r0], -r0	; <UNPREDICTABLE>
	...
 20057cc:	7c3e0000 	ldcvc	0, cr0, [lr], #-0
 20057d0:	10081008 	andne	r1, r8, r8
 20057d4:	10081008 	andne	r1, r8, r8
 20057d8:	10081008 	andne	r1, r8, r8
 20057dc:	10081ff8 	strdne	r1, [r8], -r8
 20057e0:	10081008 	andne	r1, r8, r8
 20057e4:	10081008 	andne	r1, r8, r8
 20057e8:	10081008 	andne	r1, r8, r8
 20057ec:	00007c3e 	andeq	r7, r0, lr, lsr ip
	...
 2005804:	3ff80000 	svccc	0x00f80000
 2005808:	01000100 	mrseq	r0, (UNDEF: 16)
 200580c:	01000100 	mrseq	r0, (UNDEF: 16)
 2005810:	01000100 	mrseq	r0, (UNDEF: 16)
 2005814:	01000100 	mrseq	r0, (UNDEF: 16)
 2005818:	01000100 	mrseq	r0, (UNDEF: 16)
 200581c:	01000100 	mrseq	r0, (UNDEF: 16)
 2005820:	01000100 	mrseq	r0, (UNDEF: 16)
 2005824:	00003ff8 	strdeq	r3, [r0], -r8
	...
 200583c:	03fe0000 	mvnseq	r0, #0
 2005840:	00100010 	andseq	r0, r0, r0, lsl r0
 2005844:	00100010 	andseq	r0, r0, r0, lsl r0
 2005848:	00100010 	andseq	r0, r0, r0, lsl r0
 200584c:	00100010 	andseq	r0, r0, r0, lsl r0
 2005850:	20102010 	andscs	r2, r0, r0, lsl r0
 2005854:	20102010 	andscs	r2, r0, r0, lsl r0
 2005858:	18602020 	stmdane	r0!, {r5, sp}^
 200585c:	00000780 	andeq	r0, r0, r0, lsl #15
	...
 2005874:	3e0f0000 	cdpcc	0, 0, cr0, cr15, cr0, {0}
 2005878:	08080804 	stmdaeq	r8, {r2, fp}
 200587c:	08200810 	stmdaeq	r0!, {r4, fp}
 2005880:	090008c0 	stmdbeq	r0, {r6, r7, fp}
 2005884:	0c800b00 	vstmiaeq	r0, {d0-d-1}
 2005888:	08200860 	stmdaeq	r0!, {r5, r6, fp}
 200588c:	08100810 	ldmdaeq	r0, {r4, fp}
 2005890:	08080808 	stmdaeq	r8, {r3, fp}
 2005894:	00003e0e 	andeq	r3, r0, lr, lsl #28
	...
 20058ac:	3f800000 	svccc	0x00800000
 20058b0:	04000400 	streq	r0, [r0], #-1024	; 0xfffffc00
 20058b4:	04000400 	streq	r0, [r0], #-1024	; 0xfffffc00
 20058b8:	04000400 	streq	r0, [r0], #-1024	; 0xfffffc00
 20058bc:	04000400 	streq	r0, [r0], #-1024	; 0xfffffc00
 20058c0:	04040400 	streq	r0, [r4], #-1024	; 0xfffffc00
 20058c4:	04040404 	streq	r0, [r4], #-1028	; 0xfffffbfc
 20058c8:	04040404 	streq	r0, [r4], #-1028	; 0xfffffbfc
 20058cc:	00003ffc 	strdeq	r3, [r0], -ip
	...
 20058e4:	f00f0000 			; <UNDEFINED> instruction: 0xf00f0000
 20058e8:	2814300c 	ldmdacs	r4, {r2, r3, ip, sp}
 20058ec:	24242814 	strtcs	r2, [r4], #-2068	; 0xfffff7ec
 20058f0:	22242424 	eorcs	r2, r4, #36, 8	; 0x24000000
 20058f4:	21442244 	cmpcs	r4, r4, asr #4
 20058f8:	20842184 	addcs	r2, r4, r4, lsl #3
 20058fc:	20042004 	andcs	r2, r4, r4
 2005900:	20042004 	andcs	r2, r4, r4
 2005904:	0000f81f 	andeq	pc, r0, pc, lsl r8	; <UNPREDICTABLE>
	...
 200591c:	703e0000 	eorsvc	r0, lr, r0
 2005920:	18081808 	stmdane	r8, {r3, fp, ip}
 2005924:	16081408 	strne	r1, [r8], -r8, lsl #8
 2005928:	11081208 	tstne	r8, r8, lsl #4
 200592c:	10881108 	addne	r1, r8, r8, lsl #2
 2005930:	10481088 	subne	r1, r8, r8, lsl #1
 2005934:	10281068 	eorne	r1, r8, r8, rrx
 2005938:	10181018 	andsne	r1, r8, r8, lsl r0
 200593c:	00007c08 	andeq	r7, r0, r8, lsl #24
	...
 2005954:	03c00000 	biceq	r0, r0, #0
 2005958:	10080c30 	andne	r0, r8, r0, lsr ip
 200595c:	20042004 	andcs	r2, r4, r4
 2005960:	40024002 	andmi	r4, r2, r2
 2005964:	40024002 	andmi	r4, r2, r2
 2005968:	40024002 	andmi	r4, r2, r2
 200596c:	20042004 	andcs	r2, r4, r4
 2005970:	0c301008 	ldceq	0, cr1, [r0], #-32	; 0xffffffe0
 2005974:	000003c0 	andeq	r0, r0, r0, asr #7
	...
 200598c:	3fe00000 	svccc	0x00e00000
 2005990:	08080810 	stmdaeq	r8, {r4, fp}
 2005994:	08040804 	stmdaeq	r4, {r2, fp}
 2005998:	08040804 	stmdaeq	r4, {r2, fp}
 200599c:	08100808 	ldmdaeq	r0, {r3, fp}
 20059a0:	08000fe0 	stmdaeq	r0, {r5, r6, r7, r8, r9, sl, fp}
 20059a4:	08000800 	stmdaeq	r0, {fp}
 20059a8:	08000800 	stmdaeq	r0, {fp}
 20059ac:	00003fc0 	andeq	r3, r0, r0, asr #31
	...
 20059c4:	03e00000 	mvneq	r0, #0
 20059c8:	10080c30 	andne	r0, r8, r0, lsr ip
 20059cc:	20042004 	andcs	r2, r4, r4
 20059d0:	40024002 	andmi	r4, r2, r2
 20059d4:	40024002 	andmi	r4, r2, r2
 20059d8:	40024002 	andmi	r4, r2, r2
 20059dc:	20042004 	andcs	r2, r4, r4
 20059e0:	0c301008 	ldceq	0, cr1, [r0], #-32	; 0xffffffe0
 20059e4:	020007c0 	andeq	r0, r0, #192, 14	; 0x3000000
 20059e8:	041c03e2 	ldreq	r0, [ip], #-994	; 0xfffffc1e
	...
 20059fc:	3fe00000 	svccc	0x00e00000
 2005a00:	08080818 	stmdaeq	r8, {r3, r4, fp}
 2005a04:	08040804 	stmdaeq	r4, {r2, fp}
 2005a08:	08080804 	stmdaeq	r8, {r2, fp}
 2005a0c:	0fe00818 	svceq	0x00e00818
 2005a10:	08100820 	ldmdaeq	r0, {r5, fp}
 2005a14:	08040808 	stmdaeq	r4, {r3, fp}
 2005a18:	08020804 	stmdaeq	r2, {r2, fp}
 2005a1c:	00003e03 	andeq	r3, r0, r3, lsl #28
	...
 2005a34:	07e80000 	strbeq	r0, [r8, r0]!
 2005a38:	10180838 	andsne	r0, r8, r8, lsr r8
 2005a3c:	10081008 	andne	r1, r8, r8
 2005a40:	0c001800 	stceq	8, cr1, [r0], {-0}
 2005a44:	003003c0 	eorseq	r0, r0, r0, asr #7
 2005a48:	00080008 	andeq	r0, r8, r8
 2005a4c:	20082008 	andcs	r2, r8, r8
 2005a50:	38303010 	ldmdacc	r0!, {r4, ip, sp}
 2005a54:	000027c0 	andeq	r2, r0, r0, asr #15
	...
 2005a6c:	3ffe0000 	svccc	0x00fe0000
 2005a70:	20822082 	addcs	r2, r2, r2, lsl #1
 2005a74:	20822082 	addcs	r2, r2, r2, lsl #1
 2005a78:	00802082 	addeq	r2, r0, r2, lsl #1
 2005a7c:	00800080 	addeq	r0, r0, r0, lsl #1
 2005a80:	00800080 	addeq	r0, r0, r0, lsl #1
 2005a84:	00800080 	addeq	r0, r0, r0, lsl #1
 2005a88:	00800080 	addeq	r0, r0, r0, lsl #1
 2005a8c:	000007f0 	strdeq	r0, [r0], -r0	; <UNPREDICTABLE>
	...
 2005aa4:	7c3e0000 	ldcvc	0, cr0, [lr], #-0
 2005aa8:	10081008 	andne	r1, r8, r8
 2005aac:	10081008 	andne	r1, r8, r8
 2005ab0:	10081008 	andne	r1, r8, r8
 2005ab4:	10081008 	andne	r1, r8, r8
 2005ab8:	10081008 	andne	r1, r8, r8
 2005abc:	10081008 	andne	r1, r8, r8
 2005ac0:	04200810 	strteq	r0, [r0], #-2064	; 0xfffff7f0
 2005ac4:	000003c0 	andeq	r0, r0, r0, asr #7
	...
 2005adc:	f81f0000 			; <UNDEFINED> instruction: 0xf81f0000
 2005ae0:	20042004 	andcs	r2, r4, r4
 2005ae4:	10081008 	andne	r1, r8, r8
 2005ae8:	08101008 	ldmdaeq	r0, {r3, ip}
 2005aec:	04200810 	strteq	r0, [r0], #-2064	; 0xfffff7f0
 2005af0:	04200420 	strteq	r0, [r0], #-1056	; 0xfffffbe0
 2005af4:	02400240 	subeq	r0, r0, #64, 4
 2005af8:	01800240 	orreq	r0, r0, r0, asr #4
 2005afc:	00000180 	andeq	r0, r0, r0, lsl #3
	...
 2005b14:	fc1f0000 	ldc2	0, cr0, [pc], {-0}
 2005b18:	20022002 	andcs	r2, r2, r2
 2005b1c:	20c22002 	sbccs	r2, r2, r2
 2005b20:	112420c2 	smlawtne	r4, r2, r0, r2
 2005b24:	11241124 	teqne	r4, r4, lsr #2
 2005b28:	12241224 	eorne	r1, r4, #36, 4	; 0x40000002
 2005b2c:	14141214 	ldrne	r1, [r4], #-532	; 0xfffffdec
 2005b30:	14141414 	ldrne	r1, [r4], #-1044	; 0xfffffbec
 2005b34:	00000808 	andeq	r0, r0, r8, lsl #16
	...
 2005b4c:	783c0000 	ldmdavc	ip!, {}	; <UNPREDICTABLE>
 2005b50:	08201010 	stmdaeq	r0!, {r4, ip}
 2005b54:	04400820 	strbeq	r0, [r0], #-2080	; 0xfffff7e0
 2005b58:	02800280 	addeq	r0, r0, #128, 4
 2005b5c:	02800100 	addeq	r0, r0, #0, 2
 2005b60:	04400440 	strbeq	r0, [r0], #-1088	; 0xfffffbc0
 2005b64:	10100820 	andsne	r0, r0, r0, lsr #16
 2005b68:	20081010 	andcs	r1, r8, r0, lsl r0
 2005b6c:	00007c3e 	andeq	r7, r0, lr, lsr ip
	...
 2005b84:	3c1e0000 	ldccc	0, cr0, [lr], {-0}
 2005b88:	08081004 	stmdaeq	r8, {r2, ip}
 2005b8c:	04100410 	ldreq	r0, [r0], #-1040	; 0xfffffbf0
 2005b90:	01400220 	cmpeq	r0, r0, lsr #4
 2005b94:	00800140 	addeq	r0, r0, r0, asr #2
 2005b98:	00800080 	addeq	r0, r0, r0, lsl #1
 2005b9c:	00800080 	addeq	r0, r0, r0, lsl #1
 2005ba0:	00800080 	addeq	r0, r0, r0, lsl #1
 2005ba4:	000007f0 	strdeq	r0, [r0], -r0	; <UNPREDICTABLE>
	...
 2005bbc:	1ff80000 	svcne	0x00f80000
 2005bc0:	10101008 	andsne	r1, r0, r8
 2005bc4:	10201020 	eorne	r1, r0, r0, lsr #32
 2005bc8:	00800040 	addeq	r0, r0, r0, asr #32
 2005bcc:	01000100 	mrseq	r0, (UNDEF: 16)
 2005bd0:	04080200 	streq	r0, [r8], #-512	; 0xfffffe00
 2005bd4:	08080808 	stmdaeq	r8, {r3, fp}
 2005bd8:	20081008 	andcs	r1, r8, r8
 2005bdc:	00003ff8 	strdeq	r3, [r0], -r8
	...
 2005bf4:	010001e0 	smlatteq	r0, r0, r1, r0
 2005bf8:	01000100 	mrseq	r0, (UNDEF: 16)
 2005bfc:	01000100 	mrseq	r0, (UNDEF: 16)
 2005c00:	01000100 	mrseq	r0, (UNDEF: 16)
 2005c04:	01000100 	mrseq	r0, (UNDEF: 16)
 2005c08:	01000100 	mrseq	r0, (UNDEF: 16)
 2005c0c:	01000100 	mrseq	r0, (UNDEF: 16)
 2005c10:	01000100 	mrseq	r0, (UNDEF: 16)
 2005c14:	01000100 	mrseq	r0, (UNDEF: 16)
 2005c18:	01e00100 	mvneq	r0, r0, lsl #2
	...
 2005c28:	20002000 	andcs	r2, r0, r0
 2005c2c:	10001000 	andne	r1, r0, r0
 2005c30:	08000800 	stmdaeq	r0, {fp}
 2005c34:	04000400 	streq	r0, [r0], #-1024	; 0xfffffc00
 2005c38:	02000600 	andeq	r0, r0, #0, 12
 2005c3c:	01000300 	mrseq	r0, LR_irq
 2005c40:	00800180 	addeq	r0, r0, r0, lsl #3
 2005c44:	00400080 	subeq	r0, r0, r0, lsl #1
 2005c48:	00200040 	eoreq	r0, r0, r0, asr #32
 2005c4c:	00100020 	andseq	r0, r0, r0, lsr #32
 2005c50:	00000010 	andeq	r0, r0, r0, lsl r0
	...
 2005c64:	01000f00 	tsteq	r0, r0, lsl #30
 2005c68:	01000100 	mrseq	r0, (UNDEF: 16)
 2005c6c:	01000100 	mrseq	r0, (UNDEF: 16)
 2005c70:	01000100 	mrseq	r0, (UNDEF: 16)
 2005c74:	01000100 	mrseq	r0, (UNDEF: 16)
 2005c78:	01000100 	mrseq	r0, (UNDEF: 16)
 2005c7c:	01000100 	mrseq	r0, (UNDEF: 16)
 2005c80:	01000100 	mrseq	r0, (UNDEF: 16)
 2005c84:	01000100 	mrseq	r0, (UNDEF: 16)
 2005c88:	0f000100 	svceq	0x00000100
	...
 2005c9c:	01800000 	orreq	r0, r0, r0
 2005ca0:	02400180 	subeq	r0, r0, #128, 2
 2005ca4:	08100420 	ldmdaeq	r0, {r5, sl}
 2005ca8:	10080810 	andne	r0, r8, r0, lsl r8
	...
 2005d08:	01800200 	orreq	r0, r0, r0, lsl #4
 2005d0c:	002000c0 	eoreq	r0, r0, r0, asr #1
	...
 2005d4c:	182007c0 	stmdane	r0!, {r6, r7, r8, r9, sl}
 2005d50:	00100010 	andseq	r0, r0, r0, lsl r0
 2005d54:	07f00010 			; <UNDEFINED> instruction: 0x07f00010
 2005d58:	20101810 	andscs	r1, r0, r0, lsl r8
 2005d5c:	20302010 	eorscs	r2, r0, r0, lsl r0
 2005d60:	0f9c1050 	svceq	0x009c1050
	...
 2005d78:	e0000000 	and	r0, r0, r0
 2005d7c:	20002000 	andcs	r2, r0, r0
 2005d80:	20002000 	andcs	r2, r0, r0
 2005d84:	2c3023c0 	ldccs	3, cr2, [r0], #-768	; 0xfffffd00
 2005d88:	30083008 	andcc	r3, r8, r8
 2005d8c:	20042004 	andcs	r2, r4, r4
 2005d90:	20042004 	andcs	r2, r4, r4
 2005d94:	30083008 	andcc	r3, r8, r8
 2005d98:	e3c02c30 	bic	r2, r0, #48, 24	; 0x3000
	...
 2005dbc:	081807e8 	ldmdaeq	r8, {r3, r5, r6, r7, r8, r9, sl}
 2005dc0:	30081008 	andcc	r1, r8, r8
 2005dc4:	20002000 	andcs	r2, r0, r0
 2005dc8:	20002000 	andcs	r2, r0, r0
 2005dcc:	10042000 	andne	r2, r4, r0
 2005dd0:	07e00818 			; <UNDEFINED> instruction: 0x07e00818
	...
 2005de8:	00380000 	eorseq	r0, r8, r0
 2005dec:	00080008 	andeq	r0, r8, r8
 2005df0:	00080008 	andeq	r0, r8, r8
 2005df4:	082807c8 	stmdaeq	r8!, {r3, r6, r7, r8, r9, sl}
 2005df8:	20081018 	andcs	r1, r8, r8, lsl r0
 2005dfc:	20082008 	andcs	r2, r8, r8
 2005e00:	20082008 	andcs	r2, r8, r8
 2005e04:	10182008 	andsne	r2, r8, r8
 2005e08:	07ce0828 	strbeq	r0, [lr, r8, lsr #16]
	...
 2005e2c:	081007e0 	ldmdaeq	r0, {r5, r6, r7, r8, r9, sl}
 2005e30:	20041008 	andcs	r1, r4, r8
 2005e34:	3ffc2004 	svccc	0x00fc2004
 2005e38:	20002000 	andcs	r2, r0, r0
 2005e3c:	10041000 	andne	r1, r4, r0
 2005e40:	03e00c18 	mvneq	r0, #24, 24	; 0x1800
	...
 2005e58:	00fc0000 	rscseq	r0, ip, r0
 2005e5c:	02000100 	andeq	r0, r0, #0, 2
 2005e60:	02000200 	andeq	r0, r0, #0, 4
 2005e64:	02001ff8 	andeq	r1, r0, #248, 30	; 0x3e0
 2005e68:	02000200 	andeq	r0, r0, #0, 4
 2005e6c:	02000200 	andeq	r0, r0, #0, 4
 2005e70:	02000200 	andeq	r0, r0, #0, 4
 2005e74:	02000200 	andeq	r0, r0, #0, 4
 2005e78:	1ff80200 	svcne	0x00f80200
	...
 2005e9c:	082807ce 	stmdaeq	r8!, {r1, r2, r3, r6, r7, r8, r9, sl}
 2005ea0:	20181018 	andscs	r1, r8, r8, lsl r0
 2005ea4:	20082008 	andcs	r2, r8, r8
 2005ea8:	20082008 	andcs	r2, r8, r8
 2005eac:	10182018 	andsne	r2, r8, r8, lsl r0
 2005eb0:	07c80828 	strbeq	r0, [r8, r8, lsr #16]
 2005eb4:	00080008 	andeq	r0, r8, r8
 2005eb8:	00100008 	andseq	r0, r0, r8
 2005ebc:	000007e0 	andeq	r0, r0, r0, ror #15
	...
 2005ec8:	70000000 	andvc	r0, r0, r0
 2005ecc:	10001000 	andne	r1, r0, r0
 2005ed0:	10001000 	andne	r1, r0, r0
 2005ed4:	141013e0 	ldrne	r1, [r0], #-992	; 0xfffffc20
 2005ed8:	10081808 	andne	r1, r8, r8, lsl #16
 2005edc:	10081008 	andne	r1, r8, r8
 2005ee0:	10081008 	andne	r1, r8, r8
 2005ee4:	10081008 	andne	r1, r8, r8
 2005ee8:	7c3e1008 	ldcvc	0, cr1, [lr], #-32	; 0xffffffe0
	...
 2005f00:	03000300 	movweq	r0, #768	; 0x300
 2005f04:	00000300 	andeq	r0, r0, r0, lsl #6
 2005f08:	00000000 	andeq	r0, r0, r0
 2005f0c:	01001f00 	tsteq	r0, r0, lsl #30
 2005f10:	01000100 	mrseq	r0, (UNDEF: 16)
 2005f14:	01000100 	mrseq	r0, (UNDEF: 16)
 2005f18:	01000100 	mrseq	r0, (UNDEF: 16)
 2005f1c:	01000100 	mrseq	r0, (UNDEF: 16)
 2005f20:	3ff80100 	svccc	0x00f80100
	...
 2005f38:	00c000c0 	sbceq	r0, r0, r0, asr #1
 2005f3c:	000000c0 	andeq	r0, r0, r0, asr #1
 2005f40:	00000000 	andeq	r0, r0, r0
 2005f44:	00201fe0 	eoreq	r1, r0, r0, ror #31
 2005f48:	00200020 	eoreq	r0, r0, r0, lsr #32
 2005f4c:	00200020 	eoreq	r0, r0, r0, lsr #32
 2005f50:	00200020 	eoreq	r0, r0, r0, lsr #32
 2005f54:	00200020 	eoreq	r0, r0, r0, lsr #32
 2005f58:	00200020 	eoreq	r0, r0, r0, lsr #32
 2005f5c:	00200020 	eoreq	r0, r0, r0, lsr #32
 2005f60:	00400020 	subeq	r0, r0, r0, lsr #32
 2005f64:	00003f80 	andeq	r3, r0, r0, lsl #31
	...
 2005f70:	38000000 	stmdacc	r0, {}	; <UNPREDICTABLE>
 2005f74:	08000800 	stmdaeq	r0, {fp}
 2005f78:	08000800 	stmdaeq	r0, {fp}
 2005f7c:	0810083e 	ldmdaeq	r0, {r1, r2, r3, r4, r5, fp}
 2005f80:	08400820 	stmdaeq	r0, {r5, fp}^
 2005f84:	0a000980 	beq	200858c <Snake+0x588>
 2005f88:	08800d00 	stmeq	r0, {r8, sl, fp}
 2005f8c:	08200840 	stmdaeq	r0!, {r6, fp}
 2005f90:	383e0810 	ldmdacc	lr!, {r4, fp}
	...
 2005fa8:	1f000000 	svcne	0x00000000
 2005fac:	01000100 	mrseq	r0, (UNDEF: 16)
 2005fb0:	01000100 	mrseq	r0, (UNDEF: 16)
 2005fb4:	01000100 	mrseq	r0, (UNDEF: 16)
 2005fb8:	01000100 	mrseq	r0, (UNDEF: 16)
 2005fbc:	01000100 	mrseq	r0, (UNDEF: 16)
 2005fc0:	01000100 	mrseq	r0, (UNDEF: 16)
 2005fc4:	01000100 	mrseq	r0, (UNDEF: 16)
 2005fc8:	3ff80100 	svccc	0x00f80100
	...
 2005fec:	2924e618 	stmdbcs	r4!, {r3, r4, r9, sl, sp, lr, pc}
 2005ff0:	208230c2 	addcs	r3, r2, r2, asr #1
 2005ff4:	20822082 	addcs	r2, r2, r2, lsl #1
 2005ff8:	20822082 	addcs	r2, r2, r2, lsl #1
 2005ffc:	20822082 	addcs	r2, r2, r2, lsl #1
 2006000:	f8e32082 			; <UNDEFINED> instruction: 0xf8e32082
	...
 2006024:	141073e0 	ldrne	r7, [r0], #-992	; 0xfffffc20
 2006028:	10081808 	andne	r1, r8, r8, lsl #16
 200602c:	10081008 	andne	r1, r8, r8
 2006030:	10081008 	andne	r1, r8, r8
 2006034:	10081008 	andne	r1, r8, r8
 2006038:	7c3e1008 	ldcvc	0, cr1, [lr], #-32	; 0xffffffe0
	...
 200605c:	0c3003c0 	ldceq	3, cr0, [r0], #-768	; 0xfffffd00
 2006060:	20081008 	andcs	r1, r8, r8
 2006064:	20042004 	andcs	r2, r4, r4
 2006068:	20042004 	andcs	r2, r4, r4
 200606c:	10082008 	andne	r2, r8, r8
 2006070:	07e00810 			; <UNDEFINED> instruction: 0x07e00810
	...
 2006094:	2c30e3c0 	ldccs	3, cr14, [r0], #-768	; 0xfffffd00
 2006098:	30083008 	andcc	r3, r8, r8
 200609c:	20042004 	andcs	r2, r4, r4
 20060a0:	20042004 	andcs	r2, r4, r4
 20060a4:	30083008 	andcc	r3, r8, r8
 20060a8:	23e02c10 	mvncs	r2, #16, 24	; 0x1000
 20060ac:	20002000 	andcs	r2, r0, r0
 20060b0:	20002000 	andcs	r2, r0, r0
 20060b4:	0000fc00 	andeq	pc, r0, r0, lsl #24
	...
 20060cc:	082807ce 	stmdaeq	r8!, {r1, r2, r3, r6, r7, r8, r9, sl}
 20060d0:	20081018 	andcs	r1, r8, r8, lsl r0
 20060d4:	20082008 	andcs	r2, r8, r8
 20060d8:	20082008 	andcs	r2, r8, r8
 20060dc:	10182008 	andsne	r2, r8, r8
 20060e0:	07c80828 	strbeq	r0, [r8, r8, lsr #16]
 20060e4:	00080008 	andeq	r0, r8, r8
 20060e8:	00080008 	andeq	r0, r8, r8
 20060ec:	0000007e 	andeq	r0, r0, lr, ror r0
	...
 2006104:	04841c78 	streq	r1, [r4], #3192	; 0xc78
 2006108:	06000500 	streq	r0, [r0], -r0, lsl #10
 200610c:	04000400 	streq	r0, [r0], #-1024	; 0xfffffc00
 2006110:	04000400 	streq	r0, [r0], #-1024	; 0xfffffc00
 2006114:	04000400 	streq	r0, [r0], #-1024	; 0xfffffc00
 2006118:	3ff00400 	svccc	0x00f00400
	...
 200613c:	081807e8 	ldmdaeq	r8, {r3, r5, r6, r7, r8, r9, sl}
 2006140:	10001008 	andne	r1, r0, r8
 2006144:	07e00800 	strbeq	r0, [r0, r0, lsl #16]!
 2006148:	00080010 	andeq	r0, r8, r0, lsl r0
 200614c:	20082008 	andcs	r2, r8, r8
 2006150:	27e03810 			; <UNDEFINED> instruction: 0x27e03810
	...
 200616c:	04000400 	streq	r0, [r0], #-1024	; 0xfffffc00
 2006170:	04000400 	streq	r0, [r0], #-1024	; 0xfffffc00
 2006174:	04003ff8 	streq	r3, [r0], #-4088	; 0xfffff008
 2006178:	04000400 	streq	r0, [r0], #-1024	; 0xfffffc00
 200617c:	04000400 	streq	r0, [r0], #-1024	; 0xfffffc00
 2006180:	04000400 	streq	r0, [r0], #-1024	; 0xfffffc00
 2006184:	04000400 	streq	r0, [r0], #-1024	; 0xfffffc00
 2006188:	01f80206 	mvnseq	r0, r6, lsl #4
	...
 20061ac:	10087038 	andne	r7, r8, r8, lsr r0
 20061b0:	10081008 	andne	r1, r8, r8
 20061b4:	10081008 	andne	r1, r8, r8
 20061b8:	10081008 	andne	r1, r8, r8
 20061bc:	10181008 	andsne	r1, r8, r8
 20061c0:	07ce0828 	strbeq	r0, [lr, r8, lsr #16]
	...
 20061e4:	10087c3e 	andne	r7, r8, lr, lsr ip
 20061e8:	08101008 	ldmdaeq	r0, {r3, ip}
 20061ec:	04200810 	strteq	r0, [r0], #-2064	; 0xfffff7f0
 20061f0:	04400420 	strbeq	r0, [r0], #-1056	; 0xfffffbe0
 20061f4:	02400240 	subeq	r0, r0, #64, 4
 20061f8:	01800180 	orreq	r0, r0, r0, lsl #3
	...
 200621c:	2002f80f 	andcs	pc, r2, pc, lsl #16
 2006220:	20022002 	andcs	r2, r2, r2
 2006224:	11442082 	smlalbbne	r2, r4, r2, r0
 2006228:	12241144 	eorne	r1, r4, #68, 2
 200622c:	14141414 	ldrne	r1, [r4], #-1044	; 0xfffffbec
 2006230:	08080808 	stmdaeq	r8, {r3, fp}
	...
 2006254:	10103c78 	andsne	r3, r0, r8, ror ip
 2006258:	04400820 	strbeq	r0, [r0], #-2080	; 0xfffff7e0
 200625c:	01000280 	smlabbeq	r0, r0, r2, r0
 2006260:	04400280 	strbeq	r0, [r0], #-640	; 0xfffffd80
 2006264:	10100820 	andsne	r0, r0, r0, lsr #16
 2006268:	7c7c2008 	ldclvc	0, cr2, [ip], #-32	; 0xffffffe0
	...
 200628c:	10047c1f 	andne	r7, r4, pc, lsl ip
 2006290:	08081008 	stmdaeq	r8, {r3, ip}
 2006294:	04100810 	ldreq	r0, [r0], #-2064	; 0xfffff7f0
 2006298:	02200420 	eoreq	r0, r0, #32, 8	; 0x20000000
 200629c:	01400220 	cmpeq	r0, r0, lsr #4
 20062a0:	00800140 	addeq	r0, r0, r0, asr #2
 20062a4:	01000080 	smlabbeq	r0, r0, r0, r0
 20062a8:	02000100 	andeq	r0, r0, #0, 2
 20062ac:	00003f80 	andeq	r3, r0, r0, lsl #31
	...
 20062c4:	10081ff8 	strdne	r1, [r8], -r8
 20062c8:	00201010 	eoreq	r1, r0, r0, lsl r0
 20062cc:	00800040 	addeq	r0, r0, r0, asr #32
 20062d0:	02000100 	andeq	r0, r0, #0, 2
 20062d4:	08080400 	stmdaeq	r8, {sl}
 20062d8:	1ff81008 	svcne	0x00f81008
	...
 20062f4:	010000c0 	smlabteq	r0, r0, r0, r0
 20062f8:	01000100 	mrseq	r0, (UNDEF: 16)
 20062fc:	01000100 	mrseq	r0, (UNDEF: 16)
 2006300:	01000100 	mrseq	r0, (UNDEF: 16)
 2006304:	06000100 	streq	r0, [r0], -r0, lsl #2
 2006308:	01000100 	mrseq	r0, (UNDEF: 16)
 200630c:	01000100 	mrseq	r0, (UNDEF: 16)
 2006310:	01000100 	mrseq	r0, (UNDEF: 16)
 2006314:	01000100 	mrseq	r0, (UNDEF: 16)
 2006318:	000000c0 	andeq	r0, r0, r0, asr #1
	...
 2006328:	01000000 	mrseq	r0, (UNDEF: 0)
 200632c:	01000100 	mrseq	r0, (UNDEF: 16)
 2006330:	01000100 	mrseq	r0, (UNDEF: 16)
 2006334:	01000100 	mrseq	r0, (UNDEF: 16)
 2006338:	01000100 	mrseq	r0, (UNDEF: 16)
 200633c:	01000100 	mrseq	r0, (UNDEF: 16)
 2006340:	01000100 	mrseq	r0, (UNDEF: 16)
 2006344:	01000100 	mrseq	r0, (UNDEF: 16)
 2006348:	01000100 	mrseq	r0, (UNDEF: 16)
 200634c:	01000100 	mrseq	r0, (UNDEF: 16)
 2006350:	00000100 	andeq	r0, r0, r0, lsl #2
	...
 2006364:	01000600 	tsteq	r0, r0, lsl #12
 2006368:	01000100 	mrseq	r0, (UNDEF: 16)
 200636c:	01000100 	mrseq	r0, (UNDEF: 16)
 2006370:	01000100 	mrseq	r0, (UNDEF: 16)
 2006374:	00c00100 	sbceq	r0, r0, r0, lsl #2
 2006378:	01000100 	mrseq	r0, (UNDEF: 16)
 200637c:	01000100 	mrseq	r0, (UNDEF: 16)
 2006380:	01000100 	mrseq	r0, (UNDEF: 16)
 2006384:	01000100 	mrseq	r0, (UNDEF: 16)
 2006388:	00000600 	andeq	r0, r0, r0, lsl #12
	...
 20063a8:	13080e00 	movwne	r0, #36352	; 0x8e00
 20063ac:	00e02190 	smlaleq	r2, r0, r0, r1
	...

Disassembly of section .init_array:

02008000 <.init_array>:
 2008000:	0200019c 	andeq	r0, r0, #156, 2	; 0x27

Disassembly of section .bss:

02008004 <Snake>:
	...

0200a008 <MouseIHandler>:
 200a008:	00000000 	andeq	r0, r0, r0

0200a00c <_ZN8Graphics14TextBackgroundE>:
 200a00c:	00000000 	andeq	r0, r0, r0

0200a010 <_ZN8Graphics15FramebufferDataE>:
 200a010:	00000000 	andeq	r0, r0, r0

0200a014 <_ZN8Graphics11FramebufferE>:
 200a014:	00000000 	andeq	r0, r0, r0

0200a018 <SVCReq>:
	...

0200a020 <SVCHandler>:
 200a020:	00000000 	andeq	r0, r0, r0

Disassembly of section .ARM.exidx:

0200a024 <__PROGRAM_END-0x8>:
 200a024:	7fff6ca8 	svcvc	0x00ff6ca8
 200a028:	00000001 	andeq	r0, r0, r1

Disassembly of section .debug_info:

00000000 <.debug_info>:
       0:	0000018e 	andeq	r0, r0, lr, lsl #3
       4:	00000004 	andeq	r0, r0, r4
       8:	01040000 	mrseq	r0, (UNDEF: 4)
       c:	00000129 	andeq	r0, r0, r9, lsr #2
      10:	00008604 	andeq	r8, r0, r4, lsl #12
      14:	00005700 	andeq	r5, r0, r0, lsl #14
      18:	00002800 	andeq	r2, r0, r0, lsl #16
      1c:	00002002 	andeq	r2, r0, r2
      20:	00000000 	andeq	r0, r0, r0
      24:	05040200 	streq	r0, [r4, #-512]	; 0xfffffe00
      28:	00746e69 	rsbseq	r6, r4, r9, ror #28
      2c:	d0070403 	andle	r0, r7, r3, lsl #8
      30:	03000000 	movweq	r0, #0
      34:	00330601 	eorseq	r0, r3, r1, lsl #12
      38:	01030000 	mrseq	r0, (UNDEF: 3)
      3c:	00003108 	andeq	r3, r0, r8, lsl #2
      40:	05020300 	streq	r0, [r2, #-768]	; 0xfffffd00
      44:	0000010a 	andeq	r0, r0, sl, lsl #2
      48:	44070203 	strmi	r0, [r7], #-515	; 0xfffffdfd
      4c:	03000000 	movweq	r0, #0
      50:	00eb0504 	rsceq	r0, fp, r4, lsl #10
      54:	a4040000 	strge	r0, [r4], #-0
      58:	02000000 	andeq	r0, r0, #0
      5c:	00006141 	andeq	r6, r0, r1, asr #2
      60:	07040300 	streq	r0, [r4, -r0, lsl #6]
      64:	000000cb 	andeq	r0, r0, fp, asr #1
      68:	e6050803 	str	r0, [r5], -r3, lsl #16
      6c:	03000000 	movweq	r0, #0
      70:	00c60708 	sbceq	r0, r6, r8, lsl #14
      74:	a6040000 	strge	r0, [r4], -r0
      78:	03000000 	movweq	r0, #0
      7c:	00005620 	andeq	r5, r0, r0, lsr #12
      80:	00af0400 	adceq	r0, pc, r0, lsl #8
      84:	0b040000 	bleq	10008c <__PROGRAM_SIZE+0xf6088>
      88:	00000076 	andeq	r0, r0, r6, ror r0
      8c:	0000b605 	andeq	fp, r0, r5, lsl #12
      90:	06050800 	streq	r0, [r5], -r0, lsl #16
      94:	000000ad 	andeq	r0, r0, sp, lsr #1
      98:	05005806 	streq	r5, [r0, #-2054]	; 0xfffff7fa
      9c:	00008108 	andeq	r8, r0, r8, lsl #2
      a0:	59060000 	stmdbpl	r6, {}	; <UNPREDICTABLE>
      a4:	81090500 	tsthi	r9, r0, lsl #10
      a8:	04000000 	streq	r0, [r0], #-0
      ac:	00250700 	eoreq	r0, r5, r0, lsl #14
      b0:	20040000 	andcs	r0, r4, r0
      b4:	00f00c05 	rscseq	r0, r0, r5, lsl #24
      b8:	bf080000 	svclt	0x00080000
      bc:	05000000 	streq	r0, [r0, #-0]
      c0:	0000f010 	andeq	pc, r0, r0, lsl r0	; <UNPREDICTABLE>
      c4:	09010000 	stmdbeq	r1, {}	; <UNPREDICTABLE>
      c8:	0000001a 	andeq	r0, r0, sl, lsl r0
      cc:	00811105 	addeq	r1, r1, r5, lsl #2
      d0:	20000000 	andcs	r0, r0, r0
      d4:	00250a01 	eoreq	r0, r5, r1, lsl #20
      d8:	13050000 	movwne	r0, #20480	; 0x5000
      dc:	00000114 	andeq	r0, r0, r4, lsl r1
      e0:	00000108 	andeq	r0, r0, r8, lsl #2
      e4:	0000e901 	andeq	lr, r0, r1, lsl #18
      e8:	01080b00 	tsteq	r8, r0, lsl #22
      ec:	00000000 	andeq	r0, r0, r0
      f0:	00008c0c 	andeq	r8, r0, ip, lsl #24
      f4:	00010100 	andeq	r0, r1, r0, lsl #2
      f8:	01010d00 	tsteq	r1, r0, lsl #26
      fc:	03ff0000 	mvnseq	r0, #0
     100:	07040300 	streq	r0, [r4, -r0, lsl #6]
     104:	000000dd 	ldrdeq	r0, [r0], -sp
     108:	00ad040e 	adceq	r0, sp, lr, lsl #8
     10c:	d50f0000 	strle	r0, [pc, #-0]	; 114 <__PROGRAM_SIZE-0x9ef0>
     110:	01000000 	mrseq	r0, (UNDEF: 0)
     114:	011e0004 	tsteq	lr, r4
     118:	01280000 	teqeq	r8, r0
     11c:	3f100000 	svccc	0x00100000
     120:	28000000 	stmdacs	r0, {}	; <UNPREDICTABLE>
     124:	00000001 	andeq	r0, r0, r1
     128:	00010811 	andeq	r0, r1, r1, lsl r8
     12c:	010e1200 	mrseq	r1, LR_fiq
     130:	00050000 	andeq	r0, r5, r0
     134:	00280000 	eoreq	r0, r8, r0
     138:	00200200 	eoreq	r0, r0, r0, lsl #4
     13c:	9c010000 	stcls	0, cr0, [r1], {-0}
     140:	00000148 	andeq	r0, r0, r8, asr #2
     144:	0000016b 	andeq	r0, r0, fp, ror #2
     148:	00011e13 	andeq	r1, r1, r3, lsl lr
     14c:	00000000 	andeq	r0, r0, r0
     150:	00401400 	subeq	r1, r0, r0, lsl #8
     154:	016b0200 	cmneq	fp, r0, lsl #4
     158:	01150000 	tsteq	r5, r0
     15c:	15300150 	ldrne	r0, [r0, #-336]!	; 0xfffffeb0
     160:	30015101 	andcc	r5, r1, r1, lsl #2
     164:	01520115 	cmpeq	r2, r5, lsl r1
     168:	16000031 			; <UNDEFINED> instruction: 0x16000031
     16c:	00000095 	muleq	r0, r5, r0
     170:	00f40406 	rscseq	r0, r4, r6, lsl #8
     174:	018a0000 	orreq	r0, sl, r0
     178:	81170000 	tsthi	r7, r0
     17c:	17000000 	strne	r0, [r0, -r0]
     180:	00000081 	andeq	r0, r0, r1, lsl #1
     184:	00018a17 	andeq	r8, r1, r7, lsl sl
     188:	01030000 	mrseq	r0, (UNDEF: 3)
     18c:	00000002 	andeq	r0, r0, r2
     190:	045d0000 	ldrbeq	r0, [sp], #-0
     194:	00040000 	andeq	r0, r4, r0
     198:	00000134 	andeq	r0, r0, r4, lsr r1
     19c:	01290104 	teqeq	r9, r4, lsl #2
     1a0:	ea040000 	b	1001a8 <__PROGRAM_SIZE+0xf61a4>
     1a4:	57000001 	strpl	r0, [r0, -r1]
     1a8:	48000000 	stmdami	r0, {}	; <UNPREDICTABLE>
     1ac:	68020000 	stmdavs	r2, {}	; <UNPREDICTABLE>
     1b0:	df000001 	svcle	0x00000001
     1b4:	02000000 	andeq	r0, r0, #0
     1b8:	6e690504 	cdpvs	5, 6, cr0, cr9, cr4, {0}
     1bc:	04030074 	streq	r0, [r3], #-116	; 0xffffff8c
     1c0:	0000d007 	andeq	sp, r0, r7
     1c4:	06010300 	streq	r0, [r1], -r0, lsl #6
     1c8:	00000033 	andeq	r0, r0, r3, lsr r0
     1cc:	31080103 	tstcc	r8, r3, lsl #2
     1d0:	03000000 	movweq	r0, #0
     1d4:	010a0502 	tsteq	sl, r2, lsl #10
     1d8:	02030000 	andeq	r0, r3, #0
     1dc:	00004407 	andeq	r4, r0, r7, lsl #8
     1e0:	05040300 	streq	r0, [r4, #-768]	; 0xfffffd00
     1e4:	000000eb 	andeq	r0, r0, fp, ror #1
     1e8:	0000a404 	andeq	sl, r0, r4, lsl #8
     1ec:	61410200 	mrsvs	r0, (UNDEF: 97)
     1f0:	03000000 	movweq	r0, #0
     1f4:	00cb0704 	sbceq	r0, fp, r4, lsl #14
     1f8:	08030000 	stmdaeq	r3, {}	; <UNPREDICTABLE>
     1fc:	0000e605 	andeq	lr, r0, r5, lsl #12
     200:	07080300 	streq	r0, [r8, -r0, lsl #6]
     204:	000000c6 	andeq	r0, r0, r6, asr #1
     208:	0000a604 	andeq	sl, r0, r4, lsl #12
     20c:	56200300 	strtpl	r0, [r0], -r0, lsl #6
     210:	04000000 	streq	r0, [r0], #-0
     214:	000000af 	andeq	r0, r0, pc, lsr #1
     218:	00760b04 	rsbseq	r0, r6, r4, lsl #22
     21c:	04050000 	streq	r0, [r5], #-0
     220:	00000092 	muleq	r0, r2, r0
     224:	3a060103 	bcc	180638 <__PROGRAM_SIZE+0x176634>
     228:	06000000 	streq	r0, [r0], -r0
     22c:	32050504 	andcc	r0, r5, #4, 10	; 0x1000000
     230:	b2000007 	andlt	r0, r0, #7
     234:	07000000 	streq	r0, [r0, -r0]
     238:	0000027b 	andeq	r0, r0, fp, ror r2
     23c:	00250605 	eoreq	r0, r5, r5, lsl #12
     240:	00000000 	andeq	r0, r0, r0
     244:	00073304 	andeq	r3, r7, r4, lsl #6
     248:	99070500 	stmdbls	r7, {r8, sl}
     24c:	06000000 	streq	r0, [r0], -r0
     250:	b90a0510 	stmdblt	sl, {r4, r8, sl}
     254:	fa000001 	blx	260 <__PROGRAM_SIZE-0x9da4>
     258:	07000000 	streq	r0, [r0, -r0]
     25c:	000001c0 	andeq	r0, r0, r0, asr #3
     260:	00b20b05 	adcseq	r0, r2, r5, lsl #22
     264:	07000000 	streq	r0, [r0, -r0]
     268:	000002ef 	andeq	r0, r0, pc, ror #5
     26c:	00250c05 	eoreq	r0, r5, r5, lsl #24
     270:	07040000 	streq	r0, [r4, -r0]
     274:	000002fd 	strdeq	r0, [r0], -sp
     278:	00250d05 	eoreq	r0, r5, r5, lsl #26
     27c:	07080000 	streq	r0, [r8, -r0]
     280:	00000274 	andeq	r0, r0, r4, ror r2
     284:	00250e05 	eoreq	r0, r5, r5, lsl #28
     288:	000c0000 	andeq	r0, ip, r0
     28c:	0001bb04 	andeq	fp, r1, r4, lsl #22
     290:	bd0f0500 	cfstr32lt	mvfx0, [pc, #-0]	; 298 <__PROGRAM_SIZE-0x9d6c>
     294:	03000000 	movweq	r0, #0
     298:	00dd0704 	sbcseq	r0, sp, r4, lsl #14
     29c:	98040000 	stmdals	r4, {}	; <UNPREDICTABLE>
     2a0:	06000003 	streq	r0, [r0], -r3
     2a4:	00008c04 	andeq	r8, r0, r4, lsl #24
     2a8:	00b60800 	adcseq	r0, r6, r0, lsl #16
     2ac:	07080000 	streq	r0, [r8, -r0]
     2b0:	00013806 	andeq	r3, r1, r6, lsl #16
     2b4:	00580900 	subseq	r0, r8, r0, lsl #18
     2b8:	00810807 	addeq	r0, r1, r7, lsl #16
     2bc:	09000000 	stmdbeq	r0, {}	; <UNPREDICTABLE>
     2c0:	09070059 	stmdbeq	r7, {r0, r3, r4, r6}
     2c4:	00000081 	andeq	r0, r0, r1, lsl #1
     2c8:	250a0004 	strcs	r0, [sl, #-4]
     2cc:	04000000 	streq	r0, [r0], #-0
     2d0:	7b0c0720 	blvc	301f58 <__PROGRAM_SIZE+0x2f7f54>
     2d4:	0b000001 	bleq	2e0 <__PROGRAM_SIZE-0x9d24>
     2d8:	000000bf 	strheq	r0, [r0], -pc	; <UNPREDICTABLE>
     2dc:	017b1007 	cmneq	fp, r7
     2e0:	01000000 	mrseq	r0, (UNDEF: 0)
     2e4:	00001a0c 	andeq	r1, r0, ip, lsl #20
     2e8:	81110700 	tsthi	r1, r0, lsl #14
     2ec:	00000000 	andeq	r0, r0, r0
     2f0:	250d0120 	strcs	r0, [sp, #-288]	; 0xfffffee0
     2f4:	07000000 	streq	r0, [r0, -r0]
     2f8:	00011413 	andeq	r1, r1, r3, lsl r4
     2fc:	00018c00 	andeq	r8, r1, r0, lsl #24
     300:	01740100 	cmneq	r4, r0, lsl #2
     304:	8c0e0000 	stchi	0, cr0, [lr], {-0}
     308:	00000001 	andeq	r0, r0, r1
     30c:	01170f00 	tsteq	r7, r0, lsl #30
     310:	018c0000 	orreq	r0, ip, r0
     314:	05100000 	ldreq	r0, [r0, #-0]
     318:	ff000001 			; <UNDEFINED> instruction: 0xff000001
     31c:	04050003 	streq	r0, [r5], #-3
     320:	00000138 	andeq	r0, r0, r8, lsr r1
     324:	00019111 	andeq	r9, r1, r1, lsl r1
     328:	a30b0100 	movwge	r0, #45312	; 0xb100
     32c:	48000001 	stmdami	r0, {r0}
     330:	38020000 	stmdacc	r2, {}	; <UNPREDICTABLE>
     334:	01000000 	mrseq	r0, (UNDEF: 0)
     338:	0001b99c 	muleq	r1, ip, r9
     33c:	01c01200 	biceq	r1, r0, r0, lsl #4
     340:	0b010000 	bleq	40348 <__PROGRAM_SIZE+0x36344>
     344:	000001b9 			; <UNDEFINED> instruction: 0x000001b9
     348:	05005001 	streq	r5, [r0, #-1]
     34c:	0000fa04 	andeq	pc, r0, r4, lsl #20
     350:	0b341300 	bleq	d04f58 <__PROGRAM_SIZE+0xcfaf54>
     354:	1a010000 	bne	4035c <__PROGRAM_SIZE+0x36358>
     358:	000001f8 	strdeq	r0, [r0], -r8
     35c:	000002fc 	strdeq	r0, [r0], -ip
     360:	02000080 	andeq	r0, r0, #128	; 0x80
     364:	0000011c 	andeq	r0, r0, ip, lsl r1
     368:	02fc9c01 	rscseq	r9, ip, #256	; 0x100
     36c:	62140000 	andsvs	r0, r4, #0
     370:	fe1c0100 	cdp2	1, 1, cr0, cr12, cr0, {0}
     374:	03000002 	movweq	r0, #2
     378:	157fb491 	ldrbne	fp, [pc, #-1169]!	; fffffeef <__PROGRAM_END+0xfdff5ec3>
     37c:	32010065 	andcc	r0, r1, #101	; 0x65
     380:	00000025 	andeq	r0, r0, r5, lsr #32
     384:	0000001e 	andeq	r0, r0, lr, lsl r0
     388:	00000016 	andeq	r0, r0, r6, lsl r0
     38c:	00022900 	andeq	r2, r2, r0, lsl #18
     390:	00581500 	subseq	r1, r8, r0, lsl #10
     394:	00812201 	addeq	r2, r1, r1, lsl #4
     398:	00490000 	subeq	r0, r9, r0
     39c:	d8170000 	ldmdale	r7, {}	; <UNPREDICTABLE>
     3a0:	9d020000 	stcls	0, cr0, [r2, #-0]
     3a4:	18000003 	stmdane	r0, {r0, r1}
     3a8:	74025001 	strvc	r5, [r2], #-1
     3ac:	51011800 	tstpl	r1, r0, lsl #16
     3b0:	18007502 	stmdane	r0, {r1, r8, sl, ip, sp, lr}
     3b4:	76025201 	strvc	r5, [r2], -r1, lsl #4
     3b8:	19000000 	stmdbne	r0, {}	; <UNPREDICTABLE>
     3bc:	02000100 	andeq	r0, r0, #0, 2
     3c0:	00000030 	andeq	r0, r0, r0, lsr r0
     3c4:	00000260 	andeq	r0, r0, r0, ror #4
     3c8:	01005915 	tsteq	r0, r5, lsl r9
     3cc:	0000812a 	andeq	r8, r0, sl, lsr #2
     3d0:	00007300 	andeq	r7, r0, r0, lsl #6
     3d4:	01201700 	teqeq	r0, r0, lsl #14
     3d8:	039d0200 	orrseq	r0, sp, #0, 4
     3dc:	01180000 	tsteq	r8, r0
     3e0:	00750250 	rsbseq	r0, r5, r0, asr r2
     3e4:	02510118 	subseq	r0, r1, #24, 2
     3e8:	01180074 	tsteq	r8, r4, ror r0
     3ec:	00760252 	rsbseq	r0, r6, r2, asr r2
     3f0:	9c1a0000 	ldcls	0, cr0, [sl], {-0}
     3f4:	73020000 	movwvc	r0, #8192	; 0x2000
     3f8:	18000002 	stmdane	r0, {r1}
     3fc:	91055001 	tstls	r5, r1
     400:	067fbfa4 	ldrbteq	fp, [pc], -r4, lsr #31
     404:	00ac1b00 	adceq	r1, ip, r0, lsl #22
     408:	03bc0200 			; <UNDEFINED> instruction: 0x03bc0200
     40c:	029a0000 	addseq	r0, sl, #0
     410:	01180000 	tsteq	r8, r0
     414:	04030550 	streq	r0, [r3], #-1360	; 0xfffffab0
     418:	18020080 	stmdane	r2, {r7}
     41c:	91055101 	tstls	r5, r1, lsl #2
     420:	067fbfa4 	ldrbteq	fp, [pc], -r4, lsr #31
     424:	03520118 	cmpeq	r2, #24, 2
     428:	0020040a 	eoreq	r0, r0, sl, lsl #8
     42c:	0000b41b 	andeq	fp, r0, fp, lsl r4
     430:	0003e002 	andeq	lr, r3, r2
     434:	0002b100 	andeq	fp, r2, r0, lsl #2
     438:	50011800 	andpl	r1, r1, r0, lsl #16
     43c:	00480305 	subeq	r0, r8, r5, lsl #6
     440:	1b000200 	blne	c48 <__PROGRAM_SIZE-0x93bc>
     444:	02000154 	andeq	r0, r0, #84, 2
     448:	00000406 	andeq	r0, r0, r6, lsl #8
     44c:	000002d2 	ldrdeq	r0, [r0], -r2
     450:	03500118 	cmpeq	r0, #24, 2
     454:	187fac91 	ldmdane	pc!, {r0, r4, r7, sl, fp, sp, pc}^	; <UNPREDICTABLE>
     458:	77025101 	strvc	r5, [r2, -r1, lsl #2]
     45c:	52011800 	andpl	r1, r1, #0, 16
     460:	00007402 	andeq	r7, r0, r2, lsl #8
     464:	0001641b 	andeq	r6, r1, fp, lsl r4
     468:	00043002 	andeq	r3, r4, r2
     46c:	0002f200 	andeq	pc, r2, r0, lsl #4
     470:	51011800 	tstpl	r1, r0, lsl #16
     474:	18007602 	stmdane	r0, {r1, r9, sl, ip, sp, lr}
     478:	76025201 	strvc	r5, [r2], -r1, lsl #4
     47c:	53011800 	movwpl	r1, #6144	; 0x1800
     480:	00007602 	andeq	r7, r0, r2, lsl #12
     484:	0001681c 	andeq	r6, r1, ip, lsl r8
     488:	00045102 	andeq	r5, r4, r2, lsl #2
     48c:	041d0000 	ldreq	r0, [sp], #-0
     490:	0000920f 	andeq	r9, r0, pc, lsl #4
     494:	00030e00 	andeq	r0, r3, r0, lsl #28
     498:	01051e00 	tsteq	r5, r0, lsl #28
     49c:	00310000 	eorseq	r0, r1, r0
     4a0:	0002801f 	andeq	r8, r2, pc, lsl r0
     4a4:	032f0100 	teqeq	pc, #0, 2
     4a8:	1e200000 	cdpne	0, 2, cr0, cr0, cr0, {0}
     4ac:	01000002 	tsteq	r0, r2
     4b0:	0000253c 	andeq	r2, r0, ip, lsr r5
     4b4:	02aa2000 	adceq	r2, sl, #0
     4b8:	3c010000 	stccc	0, cr0, [r1], {-0}
     4bc:	00000025 	andeq	r0, r0, r5, lsr #32
     4c0:	01d32100 	bicseq	r2, r3, r0, lsl #2
     4c4:	019c0000 	orrseq	r0, ip, r0
     4c8:	00140200 	andseq	r0, r4, r0, lsl #4
     4cc:	9c010000 	stcls	0, cr0, [r1], {-0}
     4d0:	0000036f 	andeq	r0, r0, pc, ror #6
     4d4:	00030e22 	andeq	r0, r3, r2, lsr #28
     4d8:	0001a000 	andeq	sl, r1, r0
     4dc:	00001002 	andeq	r1, r0, r2
     4e0:	233c0100 	teqcs	ip, #0, 2
     4e4:	00000323 	andeq	r0, r0, r3, lsr #6
     4e8:	1824ffff 	stmdane	r4!, {r0, r1, r2, r3, r4, r5, r6, r7, r8, r9, sl, fp, ip, sp, lr, pc}
     4ec:	01000003 	tsteq	r0, r3
     4f0:	0001a825 	andeq	sl, r1, r5, lsr #16
     4f4:	50011802 	andpl	r1, r1, r2, lsl #16
     4f8:	80040305 	andhi	r0, r4, r5, lsl #6
     4fc:	00000200 	andeq	r0, r0, r0, lsl #4
     500:	01e22600 	mvneq	r2, r0, lsl #12
     504:	09010000 	stmdbeq	r1, {}	; <UNPREDICTABLE>
     508:	00000387 	andeq	r0, r0, r7, lsl #7
     50c:	0ff00305 	svceq	0x00f00305
     510:	01030200 	mrseq	r0, R11_usr
     514:	00000002 	andeq	r0, r0, r2
     518:	03802700 	orreq	r2, r0, #0, 14
     51c:	80260000 	eorhi	r0, r6, r0
     520:	01000000 	mrseq	r0, (UNDEF: 0)
     524:	00013818 	andeq	r3, r1, r8, lsl r8
     528:	04030500 	streq	r0, [r3], #-1280	; 0xfffffb00
     52c:	28020080 	stmdacs	r2, {r7}
     530:	00000095 	muleq	r0, r5, r0
     534:	00f40408 	rscseq	r0, r4, r8, lsl #8
     538:	03bc0000 			; <UNDEFINED> instruction: 0x03bc0000
     53c:	81290000 	teqhi	r9, r0
     540:	29000000 	stmdbcs	r0, {}	; <UNPREDICTABLE>
     544:	00000081 	andeq	r0, r0, r1, lsl #1
     548:	00038029 	andeq	r8, r3, r9, lsr #32
     54c:	172a0000 	strne	r0, [sl, -r0]!
     550:	fc000002 	stc2	0, cr0, [r0], {2}
     554:	d9000002 	stmdble	r0, {r1}
     558:	29000003 	stmdbcs	r0, {r0, r1}
     55c:	000002fc 	strdeq	r0, [r0], -ip
     560:	0003d929 	andeq	sp, r3, r9, lsr #18
     564:	01052900 	tsteq	r5, r0, lsl #18
     568:	05000000 	streq	r0, [r0, #-0]
     56c:	0003df04 	andeq	sp, r3, r4, lsl #30
     570:	8e282b00 	vmulhi.f64	d2, d8, d0
     574:	05000001 	streq	r0, [r0, #-1]
     578:	00022d12 	andeq	r2, r2, r2, lsl sp
     57c:	0003f500 	andeq	pc, r3, r0, lsl #10
     580:	03f52900 	mvnseq	r2, #0, 18
     584:	05000000 	streq	r0, [r0, #-0]
     588:	0003fb04 	andeq	pc, r3, r4, lsl #22
     58c:	04062c00 	streq	r2, [r6], #-3072	; 0xfffff400
     590:	b9290000 	stmdblt	r9!, {}	; <UNPREDICTABLE>
     594:	00000001 	andeq	r0, r0, r1
     598:	0001c62d 	andeq	ip, r1, sp, lsr #12
     59c:	010a0600 	tsteq	sl, r0, lsl #12
     5a0:	0c000002 	stceq	0, cr0, [r0], {2}
     5a4:	25000001 	strcs	r0, [r0, #-1]
     5a8:	29000004 	stmdbcs	r0, {r2}
     5ac:	0000010c 	andeq	r0, r0, ip, lsl #2
     5b0:	00010c29 	andeq	r0, r1, r9, lsr #24
     5b4:	2f002e00 	svccs	0x00002e00
     5b8:	000002c6 	andeq	r0, r0, r6, asr #5
     5bc:	04511d09 	ldrbeq	r1, [r1], #-3337	; 0xfffff2f7
     5c0:	e5300000 	ldr	r0, [r0, #-0]!
     5c4:	09000002 	stmdbeq	r0, {r1}
     5c8:	00025733 	andeq	r5, r2, r3, lsr r7
     5cc:	008c2900 	addeq	r2, ip, r0, lsl #18
     5d0:	25290000 	strcs	r0, [r9, #-0]!
     5d4:	29000000 	stmdbcs	r0, {}	; <UNPREDICTABLE>
     5d8:	00000025 	andeq	r0, r0, r5, lsr #32
     5dc:	00002529 	andeq	r2, r0, r9, lsr #10
     5e0:	31000000 	mrscc	r0, (UNDEF: 0)
     5e4:	000002b5 			; <UNDEFINED> instruction: 0x000002b5
     5e8:	02cf120a 	sbceq	r1, pc, #-1610612736	; 0xa0000000
     5ec:	00810000 	addeq	r0, r1, r0
     5f0:	66000000 	strvs	r0, [r0], -r0
     5f4:	04000001 	streq	r0, [r0], #-1
     5f8:	0003c600 	andeq	ip, r3, r0, lsl #12
     5fc:	29010400 	stmdbcs	r1, {sl}
     600:	04000001 	streq	r0, [r0], #-1
     604:	00000347 	andeq	r0, r0, r7, asr #6
     608:	00000057 	andeq	r0, r0, r7, asr r0
     60c:	020001b0 	andeq	r0, r0, #176, 2	; 0x2c
     610:	00000040 	andeq	r0, r0, r0, asr #32
     614:	0000026d 	andeq	r0, r0, sp, ror #4
     618:	69050402 	stmdbvs	r5, {r1, sl}
     61c:	0300746e 	movweq	r7, #1134	; 0x46e
     620:	00d00704 	sbcseq	r0, r0, r4, lsl #14
     624:	01030000 	mrseq	r0, (UNDEF: 3)
     628:	00003306 	andeq	r3, r0, r6, lsl #6
     62c:	08010300 	stmdaeq	r1, {r8, r9}
     630:	00000031 	andeq	r0, r0, r1, lsr r0
     634:	0a050203 	beq	140e48 <__PROGRAM_SIZE+0x136e44>
     638:	03000001 	movweq	r0, #1
     63c:	00440702 	subeq	r0, r4, r2, lsl #14
     640:	04030000 	streq	r0, [r3], #-0
     644:	0000eb05 	andeq	lr, r0, r5, lsl #22
     648:	00a40400 	adceq	r0, r4, r0, lsl #8
     64c:	41020000 	mrsmi	r0, (UNDEF: 2)
     650:	00000061 	andeq	r0, r0, r1, rrx
     654:	cb070403 	blgt	1c1668 <__PROGRAM_SIZE+0x1b7664>
     658:	03000000 	movweq	r0, #0
     65c:	00e60508 	rsceq	r0, r6, r8, lsl #10
     660:	08030000 	stmdaeq	r3, {}	; <UNPREDICTABLE>
     664:	0000c607 	andeq	ip, r0, r7, lsl #12
     668:	00a60400 	adceq	r0, r6, r0, lsl #8
     66c:	20030000 	andcs	r0, r3, r0
     670:	00000056 	andeq	r0, r0, r6, asr r0
     674:	0000af04 	andeq	sl, r0, r4, lsl #30
     678:	760b0400 	strvc	r0, [fp], -r0, lsl #8
     67c:	03000000 	movweq	r0, #0
     680:	003a0601 	eorseq	r0, sl, r1, lsl #12
     684:	95050000 	strls	r0, [r5, #-0]
     688:	01000000 	mrseq	r0, (UNDEF: 0)
     68c:	0000f405 	andeq	pc, r0, r5, lsl #8
     690:	0001b000 	andeq	fp, r1, r0
     694:	00004002 	andeq	r4, r0, r2
     698:	259c0100 	ldrcs	r0, [ip, #256]	; 0x100
     69c:	06000001 	streq	r0, [r0], -r1
     6a0:	05010058 	streq	r0, [r1, #-88]	; 0xffffffa8
     6a4:	00000081 	andeq	r0, r0, r1, lsl #1
     6a8:	00000091 	muleq	r0, r1, r0
     6ac:	01005906 	tsteq	r0, r6, lsl #18
     6b0:	00008105 	andeq	r8, r0, r5, lsl #2
     6b4:	0000b200 	andeq	fp, r0, r0, lsl #4
     6b8:	009c0700 	addseq	r0, ip, r0, lsl #14
     6bc:	05010000 	streq	r0, [r1, #-0]
     6c0:	00000125 	andeq	r0, r0, r5, lsr #2
     6c4:	000000d3 	ldrdeq	r0, [r0], -r3
     6c8:	0001c008 	andeq	ip, r1, r8
     6cc:	00003002 	andeq	r3, r0, r2
     6d0:	03570900 	cmpeq	r7, #0, 18
     6d4:	09010000 	stmdbeq	r1, {}	; <UNPREDICTABLE>
     6d8:	00000081 	andeq	r0, r0, r1, lsl #1
     6dc:	65095401 	strvs	r5, [r9, #-1025]	; 0xfffffbff
     6e0:	01000003 	tsteq	r0, r3
     6e4:	0000810a 	andeq	r8, r0, sl, lsl #2
     6e8:	0a550100 	beq	1540af0 <__PROGRAM_SIZE+0x1536aec>
     6ec:	020001d8 	andeq	r0, r0, #216, 2	; 0x36
     6f0:	00000133 	andeq	r0, r0, r3, lsr r1
     6f4:	0001ec0b 	andeq	lr, r1, fp, lsl #24
     6f8:	00014802 	andeq	r4, r1, r2, lsl #16
     6fc:	50010c00 	andpl	r0, r1, r0, lsl #24
     700:	0c007402 	cfstrseq	mvf7, [r0], {2}
     704:	75025101 	strvc	r5, [r2, #-257]	; 0xfffffeff
     708:	52010c1c 	andpl	r0, r1, #28, 24	; 0x1c00
     70c:	0c107402 	cfldrseq	mvf7, [r0], {2}
     710:	75025301 	strvc	r5, [r2, #-769]	; 0xfffffcff
     714:	0000002c 	andeq	r0, r0, ip, lsr #32
     718:	00020103 	andeq	r0, r2, r3, lsl #2
     71c:	0d000000 	stceq	0, cr0, [r0, #-0]
     720:	000002c6 	andeq	r0, r0, r6, asr #5
     724:	5c0e1d05 	stcpl	13, cr1, [lr], {5}
     728:	05000003 	streq	r0, [r0, #-3]
     72c:	00032628 	andeq	r2, r3, r8, lsr #12
     730:	00014800 	andeq	r4, r1, r0, lsl #16
     734:	00810f00 	addeq	r0, r1, r0, lsl #30
     738:	10000000 	andne	r0, r0, r0
     73c:	0000033e 	andeq	r0, r0, lr, lsr r3
     740:	030b2c05 	movweq	r2, #48133	; 0xbc05
     744:	810f0000 	mrshi	r0, CPSR
     748:	0f000000 	svceq	0x00000000
     74c:	00000081 	andeq	r0, r0, r1, lsl #1
     750:	0000810f 	andeq	r8, r0, pc, lsl #2
     754:	00810f00 	addeq	r0, r1, r0, lsl #30
     758:	00000000 	andeq	r0, r0, r0
     75c:	0005ae00 	andeq	sl, r5, r0, lsl #28
     760:	a5000400 	strge	r0, [r0, #-1024]	; 0xfffffc00
     764:	04000004 	streq	r0, [r0], #-4
     768:	00012901 	andeq	r2, r1, r1, lsl #18
     76c:	036a0400 	cmneq	sl, #0, 8
     770:	04e60000 	strbteq	r0, [r6], #0
     774:	01f00000 	mvnseq	r0, r0
     778:	04200200 	strteq	r0, [r0], #-512	; 0xfffffe00
     77c:	03640000 	cmneq	r4, #0
     780:	08020000 	stmdaeq	r2, {}	; <UNPREDICTABLE>
     784:	0000c607 	andeq	ip, r0, r7, lsl #12
     788:	05040300 	streq	r0, [r4, #-768]	; 0xfffffd00
     78c:	00746e69 	rsbseq	r6, r4, r9, ror #28
     790:	00039f04 	andeq	r9, r3, r4, lsl #30
     794:	3ed80200 	cdpcc	2, 13, cr0, cr8, cr0, {0}
     798:	02000000 	andeq	r0, r0, #0
     79c:	00d00704 	sbcseq	r0, r0, r4, lsl #14
     7a0:	01020000 	mrseq	r0, (UNDEF: 2)
     7a4:	00003306 	andeq	r3, r0, r6, lsl #6
     7a8:	08010200 	stmdaeq	r1, {r9}
     7ac:	00000031 	andeq	r0, r0, r1, lsr r0
     7b0:	0a050202 	beq	140fc0 <__PROGRAM_SIZE+0x136fbc>
     7b4:	02000001 	andeq	r0, r0, #1
     7b8:	00440702 	subeq	r0, r4, r2, lsl #14
     7bc:	04020000 	streq	r0, [r2], #-0
     7c0:	0000eb05 	andeq	lr, r0, r5, lsl #22
     7c4:	07040200 	streq	r0, [r4, -r0, lsl #4]
     7c8:	000000cb 	andeq	r0, r0, fp, asr #1
     7cc:	00043c04 	andeq	r3, r4, r4, lsl #24
     7d0:	7a590300 	bvc	16413d8 <__PROGRAM_SIZE+0x16373d4>
     7d4:	02000000 	andeq	r0, r0, #0
     7d8:	00e60508 	rsceq	r0, r6, r8, lsl #10
     7dc:	04040000 	streq	r0, [r4], #-0
     7e0:	03000005 	movweq	r0, #5
     7e4:	0000255b 	andeq	r2, r0, fp, asr r5
     7e8:	043e0400 	ldrteq	r0, [lr], #-1024	; 0xfffffc00
     7ec:	25040000 	strcs	r0, [r4, #-0]
     7f0:	0000006f 	andeq	r0, r0, pc, rrx
     7f4:	00050604 	andeq	r0, r5, r4, lsl #12
     7f8:	81260400 	teqhi	r6, r0, lsl #8
     7fc:	04000000 	streq	r0, [r0], #-0
     800:	00000398 	muleq	r0, r8, r3
     804:	00ad0405 	adceq	r0, sp, r5, lsl #8
     808:	04050000 	streq	r0, [r5], #-0
     80c:	000000b3 	strheq	r0, [r0], -r3
     810:	3a060102 	bcc	180c20 <__PROGRAM_SIZE+0x176c1c>
     814:	04000000 	streq	r0, [r0], #-0
     818:	00000573 	andeq	r0, r0, r3, ror r5
     81c:	00c52806 	sbceq	r2, r5, r6, lsl #16
     820:	1a060000 	bne	180828 <__PROGRAM_SIZE+0x176824>
     824:	04000004 	streq	r0, [r0], #-4
     828:	00dc0007 	sbcseq	r0, ip, r7
     82c:	9b070000 	blls	1c0834 <__PROGRAM_SIZE+0x1b6830>
     830:	dc000004 	stcle	0, cr0, [r0], {4}
     834:	00000000 	andeq	r0, r0, r0
     838:	04040800 	streq	r0, [r4], #-2048	; 0xfffff800
     83c:	0000041c 	andeq	r0, r0, ip, lsl r4
     840:	00ba6206 	adcseq	r6, sl, r6, lsl #4
     844:	63090000 	movwvs	r0, #36864	; 0x9000
     848:	01000005 	tsteq	r0, r5
     84c:	0003d105 	andeq	sp, r3, r5, lsl #2
     850:	00003300 	andeq	r3, r0, r0, lsl #6
     854:	0001f000 	andeq	pc, r1, r0
     858:	00001c02 	andeq	r1, r0, r2, lsl #24
     85c:	259c0100 	ldrcs	r0, [ip, #256]	; 0x100
     860:	0a000001 	beq	86c <__PROGRAM_SIZE-0x9798>
     864:	00000398 	muleq	r0, r8, r3
     868:	00a20501 	adceq	r0, r2, r1, lsl #10
     86c:	00f40000 	rscseq	r0, r4, r0
     870:	1f0b0000 	svcne	0x000b0000
     874:	01000000 	mrseq	r0, (UNDEF: 0)
     878:	00003307 	andeq	r3, r0, r7, lsl #6
     87c:	00011500 	andeq	r1, r1, r0, lsl #10
     880:	b30c0000 	movwlt	r0, #49152	; 0xc000
     884:	01000004 	tsteq	r0, r4
     888:	0004a00e 	andeq	sl, r4, lr
     88c:	00020c00 	andeq	r0, r2, r0, lsl #24
     890:	00002402 	andeq	r2, r0, r2, lsl #8
     894:	879c0100 	ldrhi	r0, [ip, r0, lsl #2]
     898:	0a000001 	beq	8a4 <__PROGRAM_SIZE-0x9760>
     89c:	00000392 	muleq	r0, r2, r3
     8a0:	00a20e01 	adceq	r0, r2, r1, lsl #28
     8a4:	01340000 	teqeq	r4, r0
     8a8:	470a0000 	strmi	r0, [sl, -r0]
     8ac:	01000005 	tsteq	r0, r5
     8b0:	0000dc0e 	andeq	sp, r0, lr, lsl #24
     8b4:	00015200 	andeq	r5, r1, r0, lsl #4
     8b8:	021c0d00 	andseq	r0, ip, #0, 26
     8bc:	00e90200 	rsceq	r0, r9, r0, lsl #4
     8c0:	01700000 	cmneq	r0, r0
     8c4:	010e0000 	mrseq	r0, (UNDEF: 14)
     8c8:	00740250 	rsbseq	r0, r4, r0, asr r2
     8cc:	022c0f00 	eoreq	r0, ip, #0, 30
     8d0:	05920200 	ldreq	r0, [r2, #512]	; 0x200
     8d4:	010e0000 	mrseq	r0, (UNDEF: 14)
     8d8:	00740250 	rsbseq	r0, r4, r0, asr r2
     8dc:	0251010e 	subseq	r0, r1, #-2147483645	; 0x80000003
     8e0:	00000075 	andeq	r0, r0, r5, ror r0
     8e4:	0003a609 	andeq	sl, r3, r9, lsl #12
     8e8:	d2130100 	andsle	r0, r3, #0, 2
     8ec:	2c000004 	stccs	0, cr0, [r0], {4}
     8f0:	30000000 	andcc	r0, r0, r0
     8f4:	8c020002 	stchi	0, cr0, [r2], {2}
     8f8:	01000000 	mrseq	r0, (UNDEF: 0)
     8fc:	00021c9c 	muleq	r2, ip, ip
     900:	045b0a00 	ldrbeq	r0, [fp], #-2560	; 0xfffff600
     904:	13010000 	movwne	r0, #4096	; 0x1000
     908:	000000a2 	andeq	r0, r0, r2, lsr #1
     90c:	00000170 	andeq	r0, r0, r0, ror r1
     910:	0004630a 	andeq	r6, r4, sl, lsl #6
     914:	a2130100 	andsge	r0, r3, #0, 2
     918:	8e000000 	cdphi	0, 0, cr0, cr0, cr0, {0}
     91c:	0b000001 	bleq	928 <__PROGRAM_SIZE-0x96dc>
     920:	00000553 	andeq	r0, r0, r3, asr r5
     924:	00331501 	eorseq	r1, r3, r1, lsl #10
     928:	01ac0000 			; <UNDEFINED> instruction: 0x01ac0000
     92c:	5b0b0000 	blpl	2c0934 <__PROGRAM_SIZE+0x2b6930>
     930:	01000005 	tsteq	r0, r5
     934:	00003316 	andeq	r3, r0, r6, lsl r3
     938:	0001ca00 	andeq	ip, r1, r0, lsl #20
     93c:	00181000 	andseq	r1, r8, r0
     940:	01f70000 	mvnseq	r0, r0
     944:	69110000 	ldmdbvs	r1, {}	; <UNPREDICTABLE>
     948:	331a0100 	tstcc	sl, #0, 2
     94c:	fe000000 	cdp2	0, 0, cr0, cr0, cr0, {0}
     950:	00000001 	andeq	r0, r0, r1
     954:	0002400d 	andeq	r4, r2, sp
     958:	0000e902 	andeq	lr, r0, r2, lsl #18
     95c:	00020b00 	andeq	r0, r2, r0, lsl #22
     960:	50010e00 	andpl	r0, r1, r0, lsl #28
     964:	00007502 	andeq	r7, r0, r2, lsl #10
     968:	00024c0f 	andeq	r4, r2, pc, lsl #24
     96c:	0000e902 	andeq	lr, r0, r2, lsl #18
     970:	50010e00 	andpl	r0, r1, r0, lsl #28
     974:	00007402 	andeq	r7, r0, r2, lsl #8
     978:	03850900 	orreq	r0, r5, #0, 18
     97c:	26010000 	strcs	r0, [r1], -r0
     980:	00000446 	andeq	r0, r0, r6, asr #8
     984:	000000a2 	andeq	r0, r0, r2, lsr #1
     988:	020002bc 	andeq	r0, r0, #188, 4	; 0xc000000b
     98c:	00000040 	andeq	r0, r0, r0, asr #32
     990:	02b49c01 	adcseq	r9, r4, #256	; 0x100
     994:	5b0a0000 	blpl	28099c <__PROGRAM_SIZE+0x276998>
     998:	01000004 	tsteq	r0, r4
     99c:	0000a226 	andeq	sl, r0, r6, lsr #4
     9a0:	00026000 	andeq	r6, r2, r0
     9a4:	04630a00 	strbteq	r0, [r3], #-2560	; 0xfffff600
     9a8:	26010000 	strcs	r0, [r1], -r0
     9ac:	000000a2 	andeq	r0, r0, r2, lsr #1
     9b0:	0000027e 	andeq	r0, r0, lr, ror r2
     9b4:	0005530b 	andeq	r5, r5, fp, lsl #6
     9b8:	33280100 	teqcc	r8, #0, 2
     9bc:	9c000000 	stcls	0, cr0, [r0], {-0}
     9c0:	0b000002 	bleq	9d0 <__PROGRAM_SIZE-0x9634>
     9c4:	0000055b 	andeq	r0, r0, fp, asr r5
     9c8:	00332901 	eorseq	r2, r3, r1, lsl #18
     9cc:	02ba0000 	adcseq	r0, sl, #0
     9d0:	cc0d0000 	stcgt	0, cr0, [sp], {-0}
     9d4:	e9020002 	stmdb	r2, {r1}
     9d8:	89000000 	stmdbhi	r0, {}	; <UNPREDICTABLE>
     9dc:	0e000002 	cdpeq	0, 0, cr0, cr0, cr2, {0}
     9e0:	75025001 	strvc	r5, [r2, #-1]
     9e4:	d80d0000 	stmdale	sp, {}	; <UNPREDICTABLE>
     9e8:	e9020002 	stmdb	r2, {r1}
     9ec:	9d000000 	stcls	0, cr0, [r0, #-0]
     9f0:	0e000002 	cdpeq	0, 0, cr0, cr0, cr2, {0}
     9f4:	76025001 	strvc	r5, [r2], -r1
     9f8:	ec0f0000 	stc	0, cr0, [pc], {-0}
     9fc:	25020002 	strcs	r0, [r2, #-2]
     a00:	0e000001 	cdpeq	0, 0, cr0, cr0, cr1, {0}
     a04:	76025001 	strvc	r5, [r2], -r1
     a08:	51010e00 	tstpl	r1, r0, lsl #28
     a0c:	00007402 	andeq	r7, r0, r2, lsl #8
     a10:	05a21200 	streq	r1, [r2, #512]!	; 0x200
     a14:	7b010000 	blvc	40a1c <__PROGRAM_SIZE+0x36a18>
     a18:	000003f9 	strdeq	r0, [r0], -r9
     a1c:	000000a2 	andeq	r0, r0, r2, lsr #1
     a20:	020002fc 	andeq	r0, r0, #252, 4	; 0xc000000f
     a24:	00000068 	andeq	r0, r0, r8, rrx
     a28:	02fd9c01 	rscseq	r9, sp, #256	; 0x100
     a2c:	b80a0000 	stmdalt	sl, {}	; <UNPREDICTABLE>
     a30:	01000003 	tsteq	r0, r3
     a34:	0000a27b 	andeq	sl, r0, fp, ror r2
     a38:	0002d800 	andeq	sp, r2, r0, lsl #16
     a3c:	04840a00 	streq	r0, [r4], #2560	; 0xa00
     a40:	7b010000 	blvc	40a48 <__PROGRAM_SIZE+0x36a44>
     a44:	00000097 	muleq	r0, r7, r0
     a48:	000002f9 	strdeq	r0, [r0], -r9
     a4c:	01007011 	tsteq	r0, r1, lsl r0
     a50:	0000ad7d 	andeq	sl, r0, sp, ror sp
     a54:	00033100 	andeq	r3, r3, r0, lsl #2
     a58:	e7090000 	str	r0, [r9, -r0]
     a5c:	01000003 	tsteq	r0, r3
     a60:	00046b6f 	andeq	r6, r4, pc, ror #22
     a64:	0000a200 	andeq	sl, r0, r0, lsl #4
     a68:	00036400 	andeq	r6, r3, r0, lsl #8
     a6c:	00003802 	andeq	r3, r0, r2, lsl #16
     a70:	829c0100 	addshi	r0, ip, #0, 2
     a74:	0a000003 	beq	a88 <__PROGRAM_SIZE-0x957c>
     a78:	000003b8 			; <UNDEFINED> instruction: 0x000003b8
     a7c:	00a26f01 	adceq	r6, r2, r1, lsl #30
     a80:	035e0000 	cmpeq	lr, #0
     a84:	840a0000 	strhi	r0, [sl], #-0
     a88:	01000004 	tsteq	r0, r4
     a8c:	00008c6f 	andeq	r8, r0, pc, ror #24
     a90:	00039800 	andeq	r9, r3, r0, lsl #16
     a94:	00701100 	rsbseq	r1, r0, r0, lsl #2
     a98:	00ad7101 	adceq	r7, sp, r1, lsl #2
     a9c:	03f00000 	mvnseq	r0, #0
     aa0:	66110000 	ldrvs	r0, [r1], -r0
     aa4:	0100676c 	tsteq	r0, ip, ror #14
     aa8:	00002c72 	andeq	r2, r0, r2, ror ip
     aac:	00040e00 	andeq	r0, r4, r0, lsl #28
     ab0:	03800d00 	orreq	r0, r0, #0, 26
     ab4:	02b40200 	adcseq	r0, r4, #0, 4
     ab8:	03690000 	cmneq	r9, #0
     abc:	010e0000 	mrseq	r0, (UNDEF: 14)
     ac0:	01f30350 	mvnseq	r0, r0, asr r3
     ac4:	980f0050 	stmdals	pc, {r4, r6}	; <UNPREDICTABLE>
     ac8:	b4020003 	strlt	r0, [r2], #-3
     acc:	0e000002 	cdpeq	0, 0, cr0, cr0, cr2, {0}
     ad0:	04935206 	ldreq	r5, [r3], #518	; 0x206
     ad4:	05049353 	streq	r9, [r4, #-851]	; 0xfffffcad
     ad8:	02f503f3 	rscseq	r0, r5, #-872415229	; 0xcc000003
     adc:	09000025 	stmdbeq	r0, {r0, r2, r5}
     ae0:	0000048a 	andeq	r0, r0, sl, lsl #9
     ae4:	04248c01 	strteq	r8, [r4], #-3073	; 0xfffff3ff
     ae8:	00a20000 	adceq	r0, r2, r0
     aec:	039c0000 	orrseq	r0, ip, #0
     af0:	006c0200 	rsbeq	r0, ip, r0, lsl #4
     af4:	9c010000 	stcls	0, cr0, [r1], {-0}
     af8:	000003dc 	ldrdeq	r0, [r0], -ip
     afc:	0003b80a 	andeq	fp, r3, sl, lsl #16
     b00:	a28c0100 	addge	r0, ip, #0, 2
     b04:	3a000000 	bcc	b0c <__PROGRAM_SIZE-0x94f8>
     b08:	0a000004 	beq	b20 <__PROGRAM_SIZE-0x94e4>
     b0c:	00000484 	andeq	r0, r0, r4, lsl #9
     b10:	008c8c01 	addeq	r8, ip, r1, lsl #24
     b14:	045b0000 	ldrbeq	r0, [fp], #-0
     b18:	48130000 	ldmdami	r3, {}	; <UNPREDICTABLE>
     b1c:	01005845 	tsteq	r0, r5, asr #16
     b20:	0003f38e 	andeq	pc, r3, lr, lsl #7
     b24:	d8030500 	stmdale	r3, {r8, sl}
     b28:	1102000f 	tstne	r2, pc
     b2c:	8f010070 	svchi	0x00010070
     b30:	000000ad 	andeq	r0, r0, sp, lsr #1
     b34:	00000483 	andeq	r0, r0, r3, lsl #9
     b38:	00b31400 	adcseq	r1, r3, r0, lsl #8
     b3c:	03ec0000 	mvneq	r0, #0
     b40:	ec150000 	ldc	0, cr0, [r5], {-0}
     b44:	10000003 	andne	r0, r0, r3
     b48:	07040200 	streq	r0, [r4, -r0, lsl #4]
     b4c:	000000dd 	ldrdeq	r0, [r0], -sp
     b50:	0003dc16 	andeq	sp, r3, r6, lsl ip
     b54:	04be0900 	ldrteq	r0, [lr], #2304	; 0x900
     b58:	9e010000 	cdpls	0, 0, cr0, cr1, cr0, {0}
     b5c:	000003bf 			; <UNDEFINED> instruction: 0x000003bf
     b60:	000000a2 	andeq	r0, r0, r2, lsr #1
     b64:	02000408 	andeq	r0, r0, #8, 8	; 0x8000000
     b68:	00000038 	andeq	r0, r0, r8, lsr r0
     b6c:	04329c01 	ldrteq	r9, [r2], #-3073	; 0xfffff3ff
     b70:	b8170000 	ldmdalt	r7, {}	; <UNPREDICTABLE>
     b74:	01000003 	tsteq	r0, r3
     b78:	0000a29e 	muleq	r0, lr, r2
     b7c:	0b500100 	bleq	1400f84 <__PROGRAM_SIZE+0x13f6f80>
     b80:	00000541 	andeq	r0, r0, r1, asr #10
     b84:	002ca001 	eoreq	sl, ip, r1
     b88:	04b00000 	ldrteq	r0, [r0], #0
     b8c:	09000000 	stmdbeq	r0, {}	; <UNPREDICTABLE>
     b90:	000001c6 	andeq	r0, r0, r6, asr #3
     b94:	02013101 	andeq	r3, r1, #1073741824	; 0x40000000
     b98:	00a20000 	adceq	r0, r2, r0
     b9c:	04400000 	strbeq	r0, [r0], #-0
     ba0:	01980200 	orrseq	r0, r8, r0, lsl #4
     ba4:	9c010000 	stcls	0, cr0, [r1], {-0}
     ba8:	00000548 	andeq	r0, r0, r8, asr #10
     bac:	0005470a 	andeq	r4, r5, sl, lsl #14
     bb0:	a2310100 	eorsge	r0, r1, #0, 2
     bb4:	c4000000 	strgt	r0, [r0], #-0
     bb8:	17000004 	strne	r0, [r0, -r4]
     bbc:	000004ca 	andeq	r0, r0, sl, asr #9
     bc0:	00a23101 	adceq	r3, r2, r1, lsl #2
     bc4:	91020000 	mrsls	r0, (UNDEF: 2)
     bc8:	24191874 	ldrcs	r1, [r9], #-2164	; 0xfffff78c
     bcc:	01000005 	tsteq	r0, r5
     bd0:	0000de33 	andeq	sp, r0, r3, lsr lr
     bd4:	4c910200 	lfmmi	f0, 4, [r1], {0}
     bd8:	00050f0b 	andeq	r0, r5, fp, lsl #30
     bdc:	2c360100 	ldfcss	f0, [r6], #-0
     be0:	ed000000 	stc	0, cr0, [r0, #-0]
     be4:	0b000004 	bleq	bfc <__PROGRAM_SIZE-0x9408>
     be8:	00000540 	andeq	r0, r0, r0, asr #10
     bec:	002c3701 	eoreq	r3, ip, r1, lsl #14
     bf0:	050c0000 	streq	r0, [ip, #-0]
     bf4:	b2190000 	andslt	r0, r9, #0
     bf8:	01000003 	tsteq	r0, r3
     bfc:	00054839 	andeq	r4, r5, r9, lsr r8
     c00:	ac910300 	ldcge	3, cr0, [r1], {0}
     c04:	00381a7f 	eorseq	r1, r8, pc, ror sl
     c08:	160b0000 	strne	r0, [fp], -r0
     c0c:	01000005 	tsteq	r0, r5
     c10:	0000a23f 	andeq	sl, r0, pc, lsr r2
     c14:	00054300 	andeq	r4, r5, r0, lsl #6
     c18:	04e80d00 	strbteq	r0, [r8], #3328	; 0xd00
     c1c:	02b40200 	adcseq	r0, r4, #0, 4
     c20:	04d10000 	ldrbeq	r0, [r1], #0
     c24:	010e0000 	mrseq	r0, (UNDEF: 14)
     c28:	8c910350 	ldchi	3, cr0, [r1], {80}	; 0x50
     c2c:	180d007f 	stmdane	sp, {r0, r1, r2, r3, r4, r5, r6}
     c30:	fd020005 	stc2	0, cr0, [r2, #-20]	; 0xffffffec
     c34:	e6000002 	str	r0, [r0], -r2
     c38:	0e000004 	cdpeq	0, 0, cr0, cr0, cr4, {0}
     c3c:	91035001 	tstls	r3, r1
     c40:	0d007f8c 	stceq	15, cr7, [r0, #-560]	; 0xfffffdd0
     c44:	0200054c 	andeq	r0, r0, #76, 10	; 0x13000000
     c48:	00000382 	andeq	r0, r0, r2, lsl #7
     c4c:	000004fb 	strdeq	r0, [r0], -fp
     c50:	0350010e 	cmpeq	r0, #-2147483645	; 0x80000003
     c54:	007f8c91 			; <UNDEFINED> instruction: 0x007f8c91
     c58:	0005840d 	andeq	r8, r5, sp, lsl #8
     c5c:	00038202 	andeq	r8, r3, r2, lsl #4
     c60:	00051000 	andeq	r1, r5, r0
     c64:	50010e00 	andpl	r0, r1, r0, lsl #28
     c68:	7f8c9103 	svcvc	0x008c9103
     c6c:	05881b00 	streq	r1, [r8, #2816]	; 0xb00
     c70:	03f80200 	mvnseq	r0, #0, 4
     c74:	9c0d0000 	stcls	0, cr0, [sp], {-0}
     c78:	25020005 	strcs	r0, [r2, #-5]
     c7c:	36000001 	strcc	r0, [r0], -r1
     c80:	0e000005 	cdpeq	0, 0, cr0, cr0, cr5, {0}
     c84:	7a025001 	bvc	94c90 <__PROGRAM_SIZE+0x8ac8c>
     c88:	51010e00 	tstpl	r1, r0, lsl #28
     c8c:	74007705 	strvc	r7, [r0], #-1797	; 0xfffff8fb
     c90:	0f002200 	svceq	0x00002200
     c94:	020005a4 	andeq	r0, r0, #164, 10	; 0x29000000
     c98:	000000e9 	andeq	r0, r0, r9, ror #1
     c9c:	0250010e 	subseq	r0, r0, #-2147483645	; 0x80000003
     ca0:	0000007a 	andeq	r0, r0, sl, ror r0
     ca4:	00b31400 	adcseq	r1, r3, r0, lsl #8
     ca8:	05580000 	ldrbeq	r0, [r8, #-0]
     cac:	ec150000 	ldc	0, cr0, [r5], {-0}
     cb0:	1d000003 	stcne	0, cr0, [r0, #-12]
     cb4:	05820900 	streq	r0, [r2, #2304]	; 0x900
     cb8:	ad010000 	stcge	0, cr0, [r1, #-0]
     cbc:	0000052e 	andeq	r0, r0, lr, lsr #10
     cc0:	000000a2 	andeq	r0, r0, r2, lsr #1
     cc4:	020005d8 	andeq	r0, r0, #216, 10	; 0x36000000
     cc8:	00000038 	andeq	r0, r0, r8, lsr r0
     ccc:	05929c01 	ldreq	r9, [r2, #3073]	; 0xc01
     cd0:	b8170000 	ldmdalt	r7, {}	; <UNPREDICTABLE>
     cd4:	01000003 	tsteq	r0, r3
     cd8:	0000a2ad 	andeq	sl, r0, sp, lsr #5
     cdc:	0b500100 	bleq	14010e4 <__PROGRAM_SIZE+0x13f70e0>
     ce0:	00000541 	andeq	r0, r0, r1, asr #10
     ce4:	002caf01 	eoreq	sl, ip, r1, lsl #30
     ce8:	05c90000 	strbeq	r0, [r9]
     cec:	1c000000 	stcne	0, cr0, [r0], {-0}
     cf0:	0000037a 	andeq	r0, r0, sl, ror r3
     cf4:	058e0508 	streq	r0, [lr, #1288]	; 0x508
     cf8:	00dc0000 	sbcseq	r0, ip, r0
     cfc:	dc1d0000 	ldcle	0, cr0, [sp], {-0}
     d00:	1d000000 	stcne	0, cr0, [r0, #-0]
     d04:	000000dc 	ldrdeq	r0, [r0], -ip
     d08:	00002c1d 	andeq	r2, r0, sp, lsl ip
     d0c:	53000000 	movwpl	r0, #0
     d10:	02000000 	andeq	r0, r0, #0
     d14:	00062b00 	andeq	r2, r6, r0, lsl #22
     d18:	04010400 	streq	r0, [r1], #-1024	; 0xfffffc00
     d1c:	10000005 	andne	r0, r0, r5
     d20:	18020006 	stmdane	r2, {r1, r2}
     d24:	73020006 	movwvc	r0, #8198	; 0x2006
     d28:	6372756f 	cmnvs	r2, #465567744	; 0x1bc00000
     d2c:	70632f65 	rsbvc	r2, r3, r5, ror #30
     d30:	75747370 	ldrbvc	r7, [r4, #-880]!	; 0xfffffc90
     d34:	00532e62 	subseq	r2, r3, r2, ror #28
     d38:	7461642f 	strbtvc	r6, [r1], #-1071	; 0xfffffbd1
     d3c:	65442f61 	strbvs	r2, [r4, #-3937]	; 0xfffff09f
     d40:	6f746b73 	svcvs	0x00746b73
     d44:	69532f70 	ldmdbvs	r3, {r4, r5, r6, r8, r9, sl, fp, sp}^
     d48:	20616b77 	rsbcs	r6, r1, r7, ror fp
     d4c:	532f534f 	teqpl	pc, #1006632961	; 0x3c000001
     d50:	696c6474 	stmdbvs	ip!, {r2, r4, r5, r6, sl, sp, lr}^
     d54:	4e470062 	cdpmi	0, 4, cr0, cr7, cr2, {3}
     d58:	53412055 	movtpl	r2, #4181	; 0x1055
     d5c:	322e3220 	eorcc	r3, lr, #32, 4
     d60:	00302e35 	eorseq	r2, r0, r5, lsr lr
     d64:	01958001 	orrseq	r8, r5, r1
     d68:	00040000 	andeq	r0, r4, r0
     d6c:	0000063f 	andeq	r0, r0, pc, lsr r6
     d70:	01290104 	teqeq	r9, r4, lsl #2
     d74:	d1040000 	mrsle	r0, (UNDEF: 4)
     d78:	e6000005 	str	r0, [r0], -r5
     d7c:	50000004 	andpl	r0, r0, r4
     d80:	00000000 	andeq	r0, r0, r0
     d84:	43000000 	movwmi	r0, #0
     d88:	02000005 	andeq	r0, r0, #5
     d8c:	6e690504 	cdpvs	5, 6, cr0, cr9, cr4, {0}
     d90:	04030074 	streq	r0, [r3], #-116	; 0xffffff8c
     d94:	0000d007 	andeq	sp, r0, r7
     d98:	06010300 	streq	r0, [r1], -r0, lsl #6
     d9c:	00000033 	andeq	r0, r0, r3, lsr r0
     da0:	31080103 	tstcc	r8, r3, lsl #2
     da4:	03000000 	movweq	r0, #0
     da8:	010a0502 	tsteq	sl, r2, lsl #10
     dac:	02030000 	andeq	r0, r3, #0
     db0:	00004407 	andeq	r4, r0, r7, lsl #8
     db4:	05040300 	streq	r0, [r4, #-768]	; 0xfffffd00
     db8:	000000eb 	andeq	r0, r0, fp, ror #1
     dbc:	cb070403 	blgt	1c1dd0 <__PROGRAM_SIZE+0x1b7dcc>
     dc0:	03000000 	movweq	r0, #0
     dc4:	00e60508 	rsceq	r0, r6, r8, lsl #10
     dc8:	08030000 	stmdaeq	r3, {}	; <UNPREDICTABLE>
     dcc:	0000c607 	andeq	ip, r0, r7, lsl #12
     dd0:	05fd0400 	ldrbeq	r0, [sp, #1024]!	; 0x400
     dd4:	03010000 	movweq	r0, #4096	; 0x1000
     dd8:	00000625 	andeq	r0, r0, r5, lsr #12
     ddc:	02000618 	andeq	r0, r0, #24, 12	; 0x1800000
     de0:	0000001c 	andeq	r0, r0, ip, lsl r0
     de4:	00bd9c01 	adcseq	r9, sp, r1, lsl #24
     de8:	c3050000 	movwgt	r0, #20480	; 0x5000
     dec:	01000005 	tsteq	r0, r5
     df0:	0000bd03 	andeq	fp, r0, r3, lsl #26
     df4:	0005dd00 	andeq	sp, r5, r0, lsl #26
     df8:	04840600 	streq	r0, [r4], #1536	; 0x600
     dfc:	03010000 	movweq	r0, #4096	; 0x1000
     e00:	000000bf 	strheq	r0, [r0], -pc	; <UNPREDICTABLE>
     e04:	e2055101 	and	r5, r5, #1073741824	; 0x40000000
     e08:	01000005 	tsteq	r0, r5
     e0c:	00002503 	andeq	r2, r0, r3, lsl #10
     e10:	0005fe00 	andeq	pc, r5, r0, lsl #28
     e14:	05cc0700 	strbeq	r0, [ip, #1792]	; 0x700
     e18:	05010000 	streq	r0, [r1, #-0]
     e1c:	000000c6 	andeq	r0, r0, r6, asr #1
     e20:	08005001 	stmdaeq	r0, {r0, ip, lr}
     e24:	06010304 	streq	r0, [r1], -r4, lsl #6
     e28:	0000003a 	andeq	r0, r0, sl, lsr r0
     e2c:	00bf0409 	adcseq	r0, pc, r9, lsl #8
     e30:	7a0a0000 	bvc	280e38 <__PROGRAM_SIZE+0x276e34>
     e34:	01000003 	tsteq	r0, r3
     e38:	00058e0d 	andeq	r8, r5, sp, lsl #28
     e3c:	0000bd00 	andeq	fp, r0, r0, lsl #26
     e40:	00063400 	andeq	r3, r6, r0, lsl #8
     e44:	0000f002 	andeq	pc, r0, r2
     e48:	339c0100 	orrscc	r0, ip, #0, 2
     e4c:	05000001 	streq	r0, [r0, #-1]
     e50:	0000061e 	andeq	r0, r0, lr, lsl r6
     e54:	00bd0d01 	adcseq	r0, sp, r1, lsl #26
     e58:	06480000 	strbeq	r0, [r8], -r0
     e5c:	47060000 	strmi	r0, [r6, -r0]
     e60:	01000005 	tsteq	r0, r5
     e64:	0000bd0d 	andeq	fp, r0, sp, lsl #26
     e68:	05510100 	ldrbeq	r0, [r1, #-256]	; 0xffffff00
     e6c:	000005e2 	andeq	r0, r0, r2, ror #11
     e70:	00250d01 	eoreq	r0, r5, r1, lsl #26
     e74:	068d0000 	streq	r0, [sp], r0
     e78:	e70b0000 	str	r0, [fp, -r0]
     e7c:	01000005 	tsteq	r0, r5
     e80:	0000c60f 	andeq	ip, r0, pc, lsl #12
     e84:	0006f000 	andeq	pc, r6, r0
     e88:	05bc0b00 	ldreq	r0, [ip, #2816]!	; 0xb00
     e8c:	10010000 	andne	r0, r1, r0
     e90:	000000c6 	andeq	r0, r0, r6, asr #1
     e94:	00000735 	andeq	r0, r0, r5, lsr r7
     e98:	05ef0c00 	strbeq	r0, [pc, #3072]!	; 1aa0 <__PROGRAM_SIZE-0x8564>
     e9c:	1a010000 	bne	40ea4 <__PROGRAM_SIZE+0x36ea0>
     ea0:	00000607 	andeq	r0, r0, r7, lsl #12
     ea4:	00000025 	andeq	r0, r0, r5, lsr #32
     ea8:	02000724 	andeq	r0, r0, #36, 14	; 0x900000
     eac:	0000002c 	andeq	r0, r0, ip, lsr #32
     eb0:	1e059c01 	cdpne	12, 0, cr9, cr5, cr1, {0}
     eb4:	01000006 	tsteq	r0, r6
     eb8:	0000bd1a 	andeq	fp, r0, sl, lsl sp
     ebc:	00078700 	andeq	r8, r7, r0, lsl #14
     ec0:	05470500 	strbeq	r0, [r7, #-1280]	; 0xfffffb00
     ec4:	1a010000 	bne	40ecc <__PROGRAM_SIZE+0x36ec8>
     ec8:	000000bd 	strheq	r0, [r0], -sp
     ecc:	000007a8 	andeq	r0, r0, r8, lsr #15
     ed0:	0005e205 	andeq	lr, r5, r5, lsl #4
     ed4:	251a0100 	ldrcs	r0, [sl, #-256]	; 0xffffff00
     ed8:	c9000000 	stmdbgt	r0, {}	; <UNPREDICTABLE>
     edc:	0b000007 	bleq	f00 <__PROGRAM_SIZE-0x9104>
     ee0:	000005e7 	andeq	r0, r0, r7, ror #11
     ee4:	00c61c01 	sbceq	r1, r6, r1, lsl #24
     ee8:	07f10000 	ldrbeq	r0, [r1, r0]!
     eec:	bc0b0000 	stclt	0, cr0, [fp], {-0}
     ef0:	01000005 	tsteq	r0, r5
     ef4:	0000c61d 	andeq	ip, r0, sp, lsl r6
     ef8:	00081c00 	andeq	r1, r8, r0, lsl #24
     efc:	c4000000 	strgt	r0, [r0], #-0
     f00:	04000001 	streq	r0, [r0], #-1
     f04:	00070500 	andeq	r0, r7, r0, lsl #10
     f08:	29010400 	stmdbcs	r1, {sl}
     f0c:	04000001 	streq	r0, [r0], #-1
     f10:	00000636 	andeq	r0, r0, r6, lsr r6
     f14:	0000067e 	andeq	r0, r0, lr, ror r6
     f18:	02000750 	andeq	r0, r0, #80, 14	; 0x1400000
     f1c:	0000003c 	andeq	r0, r0, ip, lsr r0
     f20:	000005a3 	andeq	r0, r0, r3, lsr #11
     f24:	69050402 	stmdbvs	r5, {r1, sl}
     f28:	0300746e 	movweq	r7, #1134	; 0x46e
     f2c:	00d00704 	sbcseq	r0, r0, r4, lsl #14
     f30:	01030000 	mrseq	r0, (UNDEF: 3)
     f34:	00003306 	andeq	r3, r0, r6, lsl #6
     f38:	08010300 	stmdaeq	r1, {r8, r9}
     f3c:	00000031 	andeq	r0, r0, r1, lsr r0
     f40:	0a050203 	beq	141754 <__PROGRAM_SIZE+0x137750>
     f44:	03000001 	movweq	r0, #1
     f48:	00440702 	subeq	r0, r4, r2, lsl #14
     f4c:	04030000 	streq	r0, [r3], #-0
     f50:	0000eb05 	andeq	lr, r0, r5, lsl #22
     f54:	00a40400 	adceq	r0, r4, r0, lsl #8
     f58:	41020000 	mrsmi	r0, (UNDEF: 2)
     f5c:	00000061 	andeq	r0, r0, r1, rrx
     f60:	cb070403 	blgt	1c1f74 <__PROGRAM_SIZE+0x1b7f70>
     f64:	03000000 	movweq	r0, #0
     f68:	00e60508 	rsceq	r0, r6, r8, lsl #10
     f6c:	08030000 	stmdaeq	r3, {}	; <UNPREDICTABLE>
     f70:	0000c607 	andeq	ip, r0, r7, lsl #12
     f74:	00a60400 	adceq	r0, r6, r0, lsl #8
     f78:	20030000 	andcs	r0, r3, r0
     f7c:	00000056 	andeq	r0, r0, r6, asr r0
     f80:	0000af04 	andeq	sl, r0, r4, lsl #30
     f84:	760b0400 	strvc	r0, [fp], -r0, lsl #8
     f88:	05000000 	streq	r0, [r0, #-0]
     f8c:	052c0604 	streq	r0, [ip, #-1540]!	; 0xfffff9fc
     f90:	00067009 	andeq	r7, r6, r9
     f94:	0000cb00 	andeq	ip, r0, r0, lsl #22
     f98:	06b30700 	ldrteq	r0, [r3], r0, lsl #14
     f9c:	0a050000 	beq	140fa4 <__PROGRAM_SIZE+0x136fa0>
     fa0:	0000002c 	andeq	r0, r0, ip, lsr #32
     fa4:	05e20700 	strbeq	r0, [r2, #1792]!	; 0x700
     fa8:	0b050000 	bleq	140fb0 <__PROGRAM_SIZE+0x136fac>
     fac:	0000002c 	andeq	r0, r0, ip, lsr #32
     fb0:	06ae0704 	strteq	r0, [lr], r4, lsl #14
     fb4:	0c050000 	stceq	0, cr0, [r5], {-0}
     fb8:	000000cb 	andeq	r0, r0, fp, asr #1
     fbc:	066a0708 	strbteq	r0, [sl], -r8, lsl #14
     fc0:	0d050000 	stceq	0, cr0, [r5, #-0]
     fc4:	0000002c 	andeq	r0, r0, ip, lsr #32
     fc8:	3a080028 	bcc	201070 <__PROGRAM_SIZE+0x1f706c>
     fcc:	db000000 	blle	fd4 <__PROGRAM_SIZE-0x9030>
     fd0:	09000000 	stmdbeq	r0, {}	; <UNPREDICTABLE>
     fd4:	000000db 	ldrdeq	r0, [r0], -fp
     fd8:	0403001f 	streq	r0, [r3], #-31	; 0xffffffe1
     fdc:	0000dd07 	andeq	sp, r0, r7, lsl #26
     fe0:	06720400 	ldrbteq	r0, [r2], -r0, lsl #8
     fe4:	0e050000 	cdpeq	0, 0, cr0, cr5, cr0, {0}
     fe8:	0000008e 	andeq	r0, r0, lr, lsl #1
     fec:	0006a20a 	andeq	sl, r6, sl, lsl #4
     ff0:	cf040100 	svcgt	0x00040100
     ff4:	30000006 	andcc	r0, r0, r6
     ff8:	50000001 	andpl	r0, r0, r1
     ffc:	14020007 	strne	r0, [r2], #-7
    1000:	01000000 	mrseq	r0, (UNDEF: 0)
    1004:	0001309c 	muleq	r1, ip, r0
    1008:	06ae0b00 	strteq	r0, [lr], r0, lsl #22
    100c:	04010000 	streq	r0, [r1], #-0
    1010:	00000136 	andeq	r0, r0, r6, lsr r1
    1014:	00000847 	andeq	r0, r0, r7, asr #16
    1018:	0007600c 	andeq	r6, r7, ip
    101c:	0001ad02 	andeq	sl, r1, r2, lsl #26
    1020:	50010d00 	andpl	r0, r1, r0, lsl #26
    1024:	010d3401 	tsteq	sp, r1, lsl #8
    1028:	01f30351 	mvnseq	r0, r1, asr r3
    102c:	0e000050 	mcreq	0, 0, r0, cr0, cr0, {2}
    1030:	0000e204 	andeq	lr, r0, r4, lsl #4
    1034:	3c040e00 	stccc	14, cr0, [r4], {-0}
    1038:	03000001 	movweq	r0, #1
    103c:	003a0601 	eorseq	r0, sl, r1, lsl #12
    1040:	5b0a0000 	blpl	281048 <__PROGRAM_SIZE+0x277044>
    1044:	01000006 	tsteq	r0, r6
    1048:	00064709 	andeq	r4, r6, r9, lsl #14
    104c:	00017500 	andeq	r7, r1, r0, lsl #10
    1050:	00076400 	andeq	r6, r7, r0, lsl #8
    1054:	00001402 	andeq	r1, r0, r2, lsl #8
    1058:	759c0100 	ldrvc	r0, [ip, #256]	; 0x100
    105c:	0c000001 	stceq	0, cr0, [r0], {1}
    1060:	02000774 	andeq	r0, r0, #116, 14	; 0x1d00000
    1064:	000001ad 	andeq	r0, r0, sp, lsr #3
    1068:	0150010d 	cmpeq	r0, sp, lsl #2
    106c:	51010d33 	tstpl	r1, r3, lsr sp
    1070:	00003001 	andeq	r3, r0, r1
    1074:	0130040e 	teqeq	r0, lr, lsl #8
    1078:	b50a0000 	strlt	r0, [sl, #-0]
    107c:	01000002 	tsteq	r0, r2
    1080:	0002cf0e 	andeq	ip, r2, lr, lsl #30
    1084:	00008100 	andeq	r8, r0, r0, lsl #2
    1088:	00077800 	andeq	r7, r7, r0, lsl #16
    108c:	00001402 	andeq	r1, r0, r2, lsl #8
    1090:	ad9c0100 	ldfges	f0, [ip]
    1094:	0c000001 	stceq	0, cr0, [r0], {1}
    1098:	02000788 	andeq	r0, r0, #136, 14	; 0x2200000
    109c:	000001ad 	andeq	r0, r0, sp, lsr #3
    10a0:	0150010d 	cmpeq	r0, sp, lsl #2
    10a4:	51010d35 	tstpl	r1, r5, lsr sp
    10a8:	00003001 	andeq	r3, r0, r1
    10ac:	0006e60f 	andeq	lr, r6, pc, lsl #12
    10b0:	bd100600 	ldclt	6, cr0, [r0, #-0]
    10b4:	81000006 	tsthi	r0, r6
    10b8:	10000000 	andne	r0, r0, r0
    10bc:	00000081 	andeq	r0, r0, r1, lsl #1
    10c0:	00008c10 	andeq	r8, r0, r0, lsl ip
    10c4:	7b000000 	blvc	10cc <__PROGRAM_SIZE-0x8f38>
    10c8:	04000001 	streq	r0, [r0], #-1
    10cc:	0007d800 	andeq	sp, r7, r0, lsl #16
    10d0:	29010400 	stmdbcs	r1, {sl}
    10d4:	04000001 	streq	r0, [r0], #-1
    10d8:	0000070f 	andeq	r0, r0, pc, lsl #14
    10dc:	0000067e 	andeq	r0, r0, lr, ror r6
    10e0:	0200078c 	andeq	r0, r0, #140, 14	; 0x2300000
    10e4:	0000003c 	andeq	r0, r0, ip, lsr r0
    10e8:	0000068c 	andeq	r0, r0, ip, lsl #13
    10ec:	69050402 	stmdbvs	r5, {r1, sl}
    10f0:	0300746e 	movweq	r7, #1134	; 0x46e
    10f4:	00d00704 	sbcseq	r0, r0, r4, lsl #14
    10f8:	01030000 	mrseq	r0, (UNDEF: 3)
    10fc:	00003306 	andeq	r3, r0, r6, lsl #6
    1100:	08010300 	stmdaeq	r1, {r8, r9}
    1104:	00000031 	andeq	r0, r0, r1, lsr r0
    1108:	0a050203 	beq	14191c <__PROGRAM_SIZE+0x137918>
    110c:	03000001 	movweq	r0, #1
    1110:	00440702 	subeq	r0, r4, r2, lsl #14
    1114:	04030000 	streq	r0, [r3], #-0
    1118:	0000eb05 	andeq	lr, r0, r5, lsl #22
    111c:	07040300 	streq	r0, [r4, -r0, lsl #6]
    1120:	000000cb 	andeq	r0, r0, fp, asr #1
    1124:	e6050803 	str	r0, [r5], -r3, lsl #16
    1128:	03000000 	movweq	r0, #0
    112c:	00c60708 	sbceq	r0, r6, r8, lsl #14
    1130:	01030000 	mrseq	r0, (UNDEF: 3)
    1134:	00003a06 	andeq	r3, r0, r6, lsl #20
    1138:	02040400 	andeq	r0, r4, #0, 8
    113c:	00073205 	andeq	r3, r7, r5, lsl #4
    1140:	00008b00 	andeq	r8, r0, r0, lsl #22
    1144:	027b0500 	rsbseq	r0, fp, #0, 10
    1148:	06020000 	streq	r0, [r2], -r0
    114c:	00000025 	andeq	r0, r0, r5, lsr #32
    1150:	33060000 	movwcc	r0, #24576	; 0x6000
    1154:	02000007 	andeq	r0, r0, #7
    1158:	00007207 	andeq	r7, r0, r7, lsl #4
    115c:	02100400 	andseq	r0, r0, #0, 8
    1160:	0001b90a 	andeq	fp, r1, sl, lsl #18
    1164:	0000d300 	andeq	sp, r0, r0, lsl #6
    1168:	01c00500 	biceq	r0, r0, r0, lsl #10
    116c:	0b020000 	bleq	81174 <__PROGRAM_SIZE+0x77170>
    1170:	0000008b 	andeq	r0, r0, fp, lsl #1
    1174:	02ef0500 	rsceq	r0, pc, #0, 10
    1178:	0c020000 	stceq	0, cr0, [r2], {-0}
    117c:	00000025 	andeq	r0, r0, r5, lsr #32
    1180:	02fd0504 	rscseq	r0, sp, #4, 10	; 0x1000000
    1184:	0d020000 	stceq	0, cr0, [r2, #-0]
    1188:	00000025 	andeq	r0, r0, r5, lsr #32
    118c:	02740508 	rsbseq	r0, r4, #8, 10	; 0x2000000
    1190:	0e020000 	cdpeq	0, 0, cr0, cr2, cr0, {0}
    1194:	00000025 	andeq	r0, r0, r5, lsr #32
    1198:	bb06000c 	bllt	1811d0 <__PROGRAM_SIZE+0x1771cc>
    119c:	02000001 	andeq	r0, r0, #1
    11a0:	0000960f 	andeq	r9, r0, pc, lsl #12
    11a4:	06f10700 	ldrbteq	r0, [r1], r0, lsl #14
    11a8:	07010000 	streq	r0, [r1, -r0]
    11ac:	0000071e 	andeq	r0, r0, lr, lsl r7
    11b0:	0200078c 	andeq	r0, r0, #140, 14	; 0x2300000
    11b4:	0000002c 	andeq	r0, r0, ip, lsr #32
    11b8:	01299c01 	teqeq	r9, r1, lsl #24
    11bc:	39080000 	stmdbcc	r8, {}	; <UNPREDICTABLE>
    11c0:	01000007 	tsteq	r0, r7
    11c4:	00012907 	andeq	r2, r1, r7, lsl #18
    11c8:	00087300 	andeq	r7, r8, r0, lsl #6
    11cc:	00600900 	rsbeq	r0, r0, r0, lsl #18
    11d0:	c00a0000 	andgt	r0, sl, r0
    11d4:	01000001 	tsteq	r0, r1
    11d8:	00012f0f 	andeq	r2, r1, pc, lsl #30
    11dc:	00089400 	andeq	r9, r8, r0, lsl #8
    11e0:	07b00b00 	ldreq	r0, [r0, r0, lsl #22]!
    11e4:	010c0200 	mrseq	r0, R12_fiq
    11e8:	01f30350 	mvnseq	r0, r0, asr r3
    11ec:	00000050 	andeq	r0, r0, r0, asr r0
    11f0:	008b040d 	addeq	r0, fp, sp, lsl #8
    11f4:	040d0000 	streq	r0, [sp], #-0
    11f8:	000000d3 	ldrdeq	r0, [r0], -r3
    11fc:	00018e07 	andeq	r8, r1, r7, lsl #28
    1200:	2d180100 	ldfcss	f0, [r8, #-0]
    1204:	b8000002 	stmdalt	r0, {r1}
    1208:	10020007 	andne	r0, r2, r7
    120c:	01000000 	mrseq	r0, (UNDEF: 0)
    1210:	00015c9c 	muleq	r1, ip, ip
    1214:	0ad70e00 	beq	ff5c4a1c <__PROGRAM_END+0xfd5ba9f0>
    1218:	18010000 	stmdane	r1, {}	; <UNPREDICTABLE>
    121c:	00000167 	andeq	r0, r0, r7, ror #2
    1220:	0f005001 	svceq	0x00005001
    1224:	00000167 	andeq	r0, r0, r7, ror #2
    1228:	00012f10 	andeq	r2, r1, r0, lsl pc
    122c:	040d0000 	streq	r0, [sp], #-0
    1230:	0000015c 	andeq	r0, r0, ip, asr r1
    1234:	00070111 	andeq	r0, r7, r1, lsl r1
    1238:	67050100 	strvs	r0, [r5, -r0, lsl #2]
    123c:	05000001 	streq	r0, [r0, #-1]
    1240:	00a00803 	adceq	r0, r0, r3, lsl #16
    1244:	03ec0002 	mvneq	r0, #2
    1248:	00040000 	andeq	r0, r4, r0
    124c:	000008b8 			; <UNDEFINED> instruction: 0x000008b8
    1250:	01290104 	teqeq	r9, r4, lsl #2
    1254:	7c040000 	stcvc	0, cr0, [r4], {-0}
    1258:	7e000007 	cdpvc	0, 0, cr0, cr0, cr7, {0}
    125c:	c8000006 	stmdagt	r0, {r1, r2}
    1260:	38020007 	stmdacc	r2, {r0, r1, r2}
    1264:	eb000001 	bl	1270 <__PROGRAM_SIZE-0x8d94>
    1268:	02000006 	andeq	r0, r0, #6
    126c:	6e690504 	cdpvs	5, 6, cr0, cr9, cr4, {0}
    1270:	04030074 	streq	r0, [r3], #-116	; 0xffffff8c
    1274:	0000d007 	andeq	sp, r0, r7
    1278:	06010300 	streq	r0, [r1], -r0, lsl #6
    127c:	00000033 	andeq	r0, r0, r3, lsr r0
    1280:	0007e704 	andeq	lr, r7, r4, lsl #14
    1284:	451d0200 	ldrmi	r0, [sp, #-512]	; 0xfffffe00
    1288:	03000000 	movweq	r0, #0
    128c:	00310801 	eorseq	r0, r1, r1, lsl #16
    1290:	02030000 	andeq	r0, r3, #0
    1294:	00010a05 	andeq	r0, r1, r5, lsl #20
    1298:	07020300 	streq	r0, [r2, -r0, lsl #6]
    129c:	00000044 	andeq	r0, r0, r4, asr #32
    12a0:	eb050403 	bl	1422b4 <__PROGRAM_SIZE+0x1382b0>
    12a4:	04000000 	streq	r0, [r0], #-0
    12a8:	000000a4 	andeq	r0, r0, r4, lsr #1
    12ac:	006c4102 	rsbeq	r4, ip, r2, lsl #2
    12b0:	04030000 	streq	r0, [r3], #-0
    12b4:	0000cb07 	andeq	ip, r0, r7, lsl #22
    12b8:	05080300 	streq	r0, [r8, #-768]	; 0xfffffd00
    12bc:	000000e6 	andeq	r0, r0, r6, ror #1
    12c0:	c6070803 	strgt	r0, [r7], -r3, lsl #16
    12c4:	04000000 	streq	r0, [r0], #-0
    12c8:	000007e9 	andeq	r0, r0, r9, ror #15
    12cc:	003a1403 	eorseq	r1, sl, r3, lsl #8
    12d0:	a6040000 	strge	r0, [r4], -r0
    12d4:	03000000 	movweq	r0, #0
    12d8:	00006120 	andeq	r6, r0, r0, lsr #2
    12dc:	07b10400 	ldreq	r0, [r1, r0, lsl #8]!
    12e0:	09040000 	stmdbeq	r4, {}	; <UNPREDICTABLE>
    12e4:	00000081 	andeq	r0, r0, r1, lsl #1
    12e8:	0000af04 	andeq	sl, r0, r4, lsl #30
    12ec:	8c0b0400 	cfstrshi	mvf0, [fp], {-0}
    12f0:	05000000 	streq	r0, [r0, #-0]
    12f4:	0f080528 	svceq	0x00080528
    12f8:	2e000008 	cdpcs	0, 0, cr0, cr0, cr8, {0}
    12fc:	06000001 	streq	r0, [r0], -r1
    1300:	0000082f 	andeq	r0, r0, pc, lsr #16
    1304:	00a20905 	adceq	r0, r2, r5, lsl #18
    1308:	06000000 	streq	r0, [r0], -r0
    130c:	00000851 	andeq	r0, r0, r1, asr r8
    1310:	00a20a05 	adceq	r0, r2, r5, lsl #20
    1314:	06040000 	streq	r0, [r4], -r0
    1318:	00000828 	andeq	r0, r0, r8, lsr #16
    131c:	00a20b05 	adceq	r0, r2, r5, lsl #22
    1320:	06080000 	streq	r0, [r8], -r0
    1324:	0000084a 	andeq	r0, r0, sl, asr #16
    1328:	00a20c05 	adceq	r0, r2, r5, lsl #24
    132c:	060c0000 	streq	r0, [ip], -r0
    1330:	00000835 	andeq	r0, r0, r5, lsr r8
    1334:	00a20d05 	adceq	r0, r2, r5, lsl #26
    1338:	06100000 	ldreq	r0, [r0], -r0
    133c:	00000883 	andeq	r0, r0, r3, lsl #17
    1340:	00a20e05 	adceq	r0, r2, r5, lsl #28
    1344:	07140000 	ldreq	r0, [r4, -r0]
    1348:	0f050058 	svceq	0x00050058
    134c:	000000a2 	andeq	r0, r0, r2, lsr #1
    1350:	00590718 	subseq	r0, r9, r8, lsl r7
    1354:	00a21005 	adceq	r1, r2, r5
    1358:	061c0000 	ldreq	r0, [ip], -r0
    135c:	00000807 	andeq	r0, r0, r7, lsl #16
    1360:	012e1105 	teqeq	lr, r5, lsl #2
    1364:	06200000 	strteq	r0, [r0], -r0
    1368:	000005e2 	andeq	r0, r0, r2, ror #11
    136c:	00a21205 	adceq	r1, r2, r5, lsl #4
    1370:	00240000 	eoreq	r0, r4, r0
    1374:	01340408 	teqeq	r4, r8, lsl #8
    1378:	01030000 	mrseq	r0, (UNDEF: 3)
    137c:	00003a06 	andeq	r3, r0, r6, lsl #20
    1380:	08110400 	ldmdaeq	r1, {sl}
    1384:	13050000 	movwne	r0, #20480	; 0x5000
    1388:	000000ad 	andeq	r0, r0, sp, lsr #1
    138c:	16050305 	strne	r0, [r5], -r5, lsl #6
    1390:	00000843 	andeq	r0, r0, r3, asr #16
    1394:	00000171 	andeq	r0, r0, r1, ror r1
    1398:	05005207 	streq	r5, [r0, #-519]	; 0xfffffdf9
    139c:	00009717 	andeq	r9, r0, r7, lsl r7
    13a0:	47070000 	strmi	r0, [r7, -r0]
    13a4:	97180500 	ldrls	r0, [r8, -r0, lsl #10]
    13a8:	01000000 	mrseq	r0, (UNDEF: 0)
    13ac:	05004207 	streq	r4, [r0, #-519]	; 0xfffffdf9
    13b0:	00009719 	andeq	r9, r0, r9, lsl r7
    13b4:	04000200 	streq	r0, [r0], #-512	; 0xfffffe00
    13b8:	00000844 	andeq	r0, r0, r4, asr #16
    13bc:	01461a05 	cmpeq	r6, r5, lsl #20
    13c0:	c6090000 	strgt	r0, [r9], -r0
    13c4:	05000002 	streq	r0, [r0, #-2]
    13c8:	0002451d 	andeq	r4, r2, sp, lsl r5
    13cc:	088c0a00 	stmeq	ip, {r9, fp}
    13d0:	07010000 	streq	r0, [r1, -r0]
    13d4:	00000763 	andeq	r0, r0, r3, ror #14
    13d8:	000001a1 	andeq	r0, r0, r1, lsr #3
    13dc:	0000a20b 	andeq	sl, r0, fp, lsl #4
    13e0:	00a20b00 	adceq	r0, r2, r0, lsl #22
    13e4:	0c000000 	stceq	0, cr0, [r0], {-0}
    13e8:	000007de 	ldrdeq	r0, [r0], -lr
    13ec:	07b71001 	ldreq	r1, [r7, r1]!
    13f0:	02a00000 	adceq	r0, r0, #0
    13f4:	01bf0000 			; <UNDEFINED> instruction: 0x01bf0000
    13f8:	a20b0000 	andge	r0, fp, #0
    13fc:	0b000000 	bleq	1404 <__PROGRAM_SIZE-0x8c00>
    1400:	000000a2 	andeq	r0, r0, r2, lsr #1
    1404:	035c0a00 	cmpeq	ip, #0, 20
    1408:	17010000 	strne	r0, [r1, -r0]
    140c:	00000326 	andeq	r0, r0, r6, lsr #6
    1410:	000001d4 	ldrdeq	r0, [r0], -r4
    1414:	0000a20b 	andeq	sl, r0, fp, lsl #4
    1418:	5c0a0000 	stcpl	0, cr0, [sl], {-0}
    141c:	01000003 	tsteq	r0, r3
    1420:	0007971e 	andeq	r9, r7, lr, lsl r7
    1424:	0001f300 	andeq	pc, r1, r0, lsl #6
    1428:	00250b00 	eoreq	r0, r5, r0, lsl #22
    142c:	250b0000 	strcs	r0, [fp, #-0]
    1430:	0b000000 	bleq	1438 <__PROGRAM_SIZE-0x8bcc>
    1434:	00000025 	andeq	r0, r0, r5, lsr #32
    1438:	033e0a00 	teqeq	lr, #0, 20
    143c:	25010000 	strcs	r0, [r1, #-0]
    1440:	0000030b 	andeq	r0, r0, fp, lsl #6
    1444:	00000217 	andeq	r0, r0, r7, lsl r2
    1448:	0000a20b 	andeq	sl, r0, fp, lsl #4
    144c:	00a20b00 	adceq	r0, r2, r0, lsl #22
    1450:	a20b0000 	andge	r0, fp, #0
    1454:	0b000000 	bleq	145c <__PROGRAM_SIZE-0x8ba8>
    1458:	000000a2 	andeq	r0, r0, r2, lsr #1
    145c:	08730d00 	ldmdaeq	r3!, {r8, sl, fp}^
    1460:	1e050000 	cdpne	0, 0, cr0, cr5, cr0, {0}
    1464:	00000744 	andeq	r0, r0, r4, asr #14
    1468:	000003d8 	ldrdeq	r0, [r0], -r8
    146c:	000ac10d 	andeq	ip, sl, sp, lsl #2
    1470:	581f0500 	ldmdapl	pc, {r8, sl}	; <UNPREDICTABLE>
    1474:	de000008 	cdple	0, 0, cr0, cr0, cr8, {0}
    1478:	0d000003 	stceq	0, cr0, [r0, #-12]
    147c:	0000083b 	andeq	r0, r0, fp, lsr r8
    1480:	07f10501 	ldrbeq	r0, [r1, r1, lsl #10]!
    1484:	01710000 	cmneq	r1, r0
    1488:	0e000000 	cdpeq	0, 0, cr0, cr0, cr0, {0}
    148c:	00000187 	andeq	r0, r0, r7, lsl #3
    1490:	00026d01 	andeq	r6, r2, r1, lsl #26
    1494:	00580f00 	subseq	r0, r8, r0, lsl #30
    1498:	00a20701 	adceq	r0, r2, r1, lsl #14
    149c:	590f0000 	stmdbpl	pc, {}	; <UNPREDICTABLE>
    14a0:	a2070100 	andge	r0, r7, #0, 2
    14a4:	10000000 	andne	r0, r0, r0
    14a8:	000007d0 	ldrdeq	r0, [r0], -r0	; <UNPREDICTABLE>
    14ac:	00250901 	eoreq	r0, r5, r1, lsl #18
    14b0:	11000000 	mrsne	r0, (UNDEF: 0)
    14b4:	00000245 	andeq	r0, r0, r5, asr #4
    14b8:	00000763 	andeq	r0, r0, r3, ror #14
    14bc:	020007c8 	andeq	r0, r0, #200, 14	; 0x3200000
    14c0:	00000058 	andeq	r0, r0, r8, asr r0
    14c4:	02a09c01 	adceq	r9, r0, #256	; 0x100
    14c8:	4f120000 	svcmi	0x00120000
    14cc:	b5000002 	strlt	r0, [r0, #-2]
    14d0:	12000008 	andne	r0, r0, #8
    14d4:	00000258 	andeq	r0, r0, r8, asr r2
    14d8:	000008d6 	ldrdeq	r0, [r0], -r6
    14dc:	00026113 	andeq	r6, r2, r3, lsl r1
    14e0:	0008f700 	andeq	pc, r8, r0, lsl #14
    14e4:	04080000 	streq	r0, [r8], #-0
    14e8:	00000171 	andeq	r0, r0, r1, ror r1
    14ec:	0001a114 	andeq	sl, r1, r4, lsl r1
    14f0:	00082000 	andeq	r2, r8, r0
    14f4:	00001c02 	andeq	r1, r0, r2, lsl #24
    14f8:	e19c0100 	orrs	r0, ip, r0, lsl #2
    14fc:	15000002 	strne	r0, [r0, #-2]
    1500:	10010058 	andne	r0, r1, r8, asr r0
    1504:	000000a2 	andeq	r0, r0, r2, lsr #1
    1508:	0000090a 	andeq	r0, r0, sl, lsl #18
    150c:	01005916 	tsteq	r0, r6, lsl r9
    1510:	0000a210 	andeq	sl, r0, r0, lsl r2
    1514:	17510100 	ldrbne	r0, [r1, -r0, lsl #2]
    1518:	000007d0 	ldrdeq	r0, [r0], -r0	; <UNPREDICTABLE>
    151c:	00251201 	eoreq	r1, r5, r1, lsl #4
    1520:	092b0000 	stmdbeq	fp!, {}	; <UNPREDICTABLE>
    1524:	14000000 	strne	r0, [r0], #-0
    1528:	000001bf 			; <UNDEFINED> instruction: 0x000001bf
    152c:	0200083c 	andeq	r0, r0, #60, 16	; 0x3c0000
    1530:	00000020 	andeq	r0, r0, r0, lsr #32
    1534:	03049c01 	movweq	r9, #19457	; 0x4c01
    1538:	44180000 	ldrmi	r0, [r8], #-0
    153c:	01000008 	tsteq	r0, r8
    1540:	0000a217 	andeq	sl, r0, r7, lsl r2
    1544:	00097d00 	andeq	r7, r9, r0, lsl #26
    1548:	d4140000 	ldrle	r0, [r4], #-0
    154c:	5c000001 	stcpl	0, cr0, [r0], {1}
    1550:	18020008 	stmdane	r2, {r3}
    1554:	01000000 	mrseq	r0, (UNDEF: 0)
    1558:	0003399c 	muleq	r3, ip, r9
    155c:	00521600 	subseq	r1, r2, r0, lsl #12
    1560:	00251e01 	eoreq	r1, r5, r1, lsl #28
    1564:	50010000 	andpl	r0, r1, r0
    1568:	01004716 	tsteq	r0, r6, lsl r7
    156c:	0000251e 	andeq	r2, r0, lr, lsl r5
    1570:	16510100 	ldrbne	r0, [r1], -r0, lsl #2
    1574:	1e010042 	cdpne	0, 0, cr0, cr1, cr2, {2}
    1578:	00000025 	andeq	r0, r0, r5, lsr #32
    157c:	14005201 	strne	r5, [r0], #-513	; 0xfffffdff
    1580:	000001f3 	strdeq	r0, [r0], -r3
    1584:	02000874 	andeq	r0, r0, #116, 16	; 0x740000
    1588:	0000008c 	andeq	r0, r0, ip, lsl #1
    158c:	03d89c01 	bicseq	r9, r8, #256	; 0x100
    1590:	58150000 	ldmdapl	r5, {}	; <UNPREDICTABLE>
    1594:	25010031 	strcs	r0, [r1, #-49]	; 0xffffffcf
    1598:	000000a2 	andeq	r0, r0, r2, lsr #1
    159c:	0000099e 	muleq	r0, lr, r9
    15a0:	00315916 	eorseq	r5, r1, r6, lsl r9
    15a4:	00a22501 	adceq	r2, r2, r1, lsl #10
    15a8:	51010000 	mrspl	r0, (UNDEF: 1)
    15ac:	00325815 	eorseq	r5, r2, r5, lsl r8
    15b0:	00a22501 	adceq	r2, r2, r1, lsl #10
    15b4:	09bf0000 	ldmibeq	pc!, {}	; <UNPREDICTABLE>
    15b8:	59160000 	ldmdbpl	r6, {}	; <UNPREDICTABLE>
    15bc:	25010032 	strcs	r0, [r1, #-50]	; 0xffffffce
    15c0:	000000a2 	andeq	r0, r0, r2, lsr #1
    15c4:	78195301 	ldmdavc	r9, {r0, r8, r9, ip, lr}
    15c8:	1a000000 	bne	15d0 <__PROGRAM_SIZE-0x8a34>
    15cc:	27010058 	smlsdcs	r1, r8, r0, r0
    15d0:	000000a2 	andeq	r0, r0, r2, lsr #1
    15d4:	000009e0 	andeq	r0, r0, r0, ror #19
    15d8:	0008941b 	andeq	r9, r8, fp, lsl r4
    15dc:	00005402 	andeq	r5, r0, r2, lsl #8
    15e0:	00591a00 	subseq	r1, r9, r0, lsl #20
    15e4:	00a22901 	adceq	r2, r2, r1, lsl #18
    15e8:	0a010000 	beq	415f0 <__PROGRAM_SIZE+0x375ec>
    15ec:	451c0000 	ldrmi	r0, [ip, #-0]
    15f0:	a0000002 	andge	r0, r0, r2
    15f4:	90020008 	andls	r0, r2, r8
    15f8:	01000000 	mrseq	r0, (UNDEF: 0)
    15fc:	0258122b 	subseq	r1, r8, #-1342177278	; 0xb0000002
    1600:	0a1f0000 	beq	7c1608 <__PROGRAM_SIZE+0x7b7604>
    1604:	4f1d0000 	svcmi	0x001d0000
    1608:	19000002 	stmdbne	r0, {r1}
    160c:	00000090 	muleq	r0, r0, r0
    1610:	00026113 	andeq	r6, r2, r3, lsl r1
    1614:	000a3f00 	andeq	r3, sl, r0, lsl #30
    1618:	00000000 	andeq	r0, r0, r0
    161c:	04080000 	streq	r0, [r8], #-0
    1620:	0000013b 	andeq	r0, r0, fp, lsr r1
    1624:	00970408 	addseq	r0, r7, r8, lsl #8
    1628:	351e0000 	ldrcc	r0, [lr, #-0]
    162c:	05000002 	streq	r0, [r0, #-2]
    1630:	000ff403 	andeq	pc, pc, r3, lsl #8
    1634:	05690002 	strbeq	r0, [r9, #-2]!
    1638:	00040000 	andeq	r0, r4, r0
    163c:	00000a4b 	andeq	r0, r0, fp, asr #20
    1640:	01290104 	teqeq	r9, r4, lsl #2
    1644:	af040000 	svcge	0x00040000
    1648:	7e000009 	cdpvc	0, 0, cr0, cr0, cr9, {0}
    164c:	00000006 	andeq	r0, r0, r6
    1650:	20020009 	andcs	r0, r2, r9
    1654:	0a000002 	beq	1664 <__PROGRAM_SIZE-0x89a0>
    1658:	02000008 	andeq	r0, r0, #8
    165c:	6e690504 	cdpvs	5, 6, cr0, cr9, cr4, {0}
    1660:	9f030074 	svcls	0x00030074
    1664:	02000003 	andeq	r0, r0, #3
    1668:	000037d8 	ldrdeq	r3, [r0], -r8
    166c:	07040400 	streq	r0, [r4, -r0, lsl #8]
    1670:	000000d0 	ldrdeq	r0, [r0], -r0	; <UNPREDICTABLE>
    1674:	33060104 	movwcc	r0, #24836	; 0x6104
    1678:	03000000 	movweq	r0, #0
    167c:	000007e7 	andeq	r0, r0, r7, ror #15
    1680:	00501d03 	subseq	r1, r0, r3, lsl #26
    1684:	01040000 	mrseq	r0, (UNDEF: 4)
    1688:	00003108 	andeq	r3, r0, r8, lsl #2
    168c:	05020400 	streq	r0, [r2, #-1024]	; 0xfffffc00
    1690:	0000010a 	andeq	r0, r0, sl, lsl #2
    1694:	00090a03 	andeq	r0, r9, r3, lsl #20
    1698:	692b0300 	stmdbvs	fp!, {r8, r9}
    169c:	04000000 	streq	r0, [r0], #-0
    16a0:	00440702 	subeq	r0, r4, r2, lsl #14
    16a4:	04040000 	streq	r0, [r4], #-0
    16a8:	0000eb05 	andeq	lr, r0, r5, lsl #22
    16ac:	00a40300 	adceq	r0, r4, r0, lsl #6
    16b0:	41030000 	mrsmi	r0, (UNDEF: 3)
    16b4:	00000082 	andeq	r0, r0, r2, lsl #1
    16b8:	cb070404 	blgt	1c26d0 <__PROGRAM_SIZE+0x1b86cc>
    16bc:	04000000 	streq	r0, [r0], #-0
    16c0:	00e60508 	rsceq	r0, r6, r8, lsl #10
    16c4:	08040000 	stmdaeq	r4, {}	; <UNPREDICTABLE>
    16c8:	0000c607 	andeq	ip, r0, r7, lsl #12
    16cc:	07e90300 	strbeq	r0, [r9, r0, lsl #6]!
    16d0:	14040000 	strne	r0, [r4], #-0
    16d4:	00000045 	andeq	r0, r0, r5, asr #32
    16d8:	00090c03 	andeq	r0, r9, r3, lsl #24
    16dc:	5e1a0400 	cfmulspl	mvf0, mvf10, mvf0
    16e0:	03000000 	movweq	r0, #0
    16e4:	000000a6 	andeq	r0, r0, r6, lsr #1
    16e8:	00772004 	rsbseq	r2, r7, r4
    16ec:	b1030000 	mrslt	r0, (UNDEF: 3)
    16f0:	05000007 	streq	r0, [r0, #-7]
    16f4:	00009709 	andeq	r9, r0, r9, lsl #14
    16f8:	00af0300 	adceq	r0, pc, r0, lsl #6
    16fc:	0b050000 	bleq	141704 <__PROGRAM_SIZE+0x137700>
    1700:	000000ad 	andeq	r0, r0, sp, lsr #1
    1704:	00039803 	andeq	r9, r3, r3, lsl #16
    1708:	d9040600 	stmdble	r4, {r9, sl}
    170c:	05000000 	streq	r0, [r0, #-0]
    1710:	0000df04 	andeq	sp, r0, r4, lsl #30
    1714:	06010400 	streq	r0, [r1], -r0, lsl #8
    1718:	0000003a 	andeq	r0, r0, sl, lsr r0
    171c:	08072806 	stmdaeq	r7, {r1, r2, fp, sp}
    1720:	0000080f 	andeq	r0, r0, pc, lsl #16
    1724:	00000167 	andeq	r0, r0, r7, ror #2
    1728:	00082f07 	andeq	r2, r8, r7, lsl #30
    172c:	c3090700 	movwgt	r0, #38656	; 0x9700
    1730:	00000000 	andeq	r0, r0, r0
    1734:	00085107 	andeq	r5, r8, r7, lsl #2
    1738:	c30a0700 	movwgt	r0, #42752	; 0xa700
    173c:	04000000 	streq	r0, [r0], #-0
    1740:	00082807 	andeq	r2, r8, r7, lsl #16
    1744:	c30b0700 	movwgt	r0, #46848	; 0xb700
    1748:	08000000 	stmdaeq	r0, {}	; <UNPREDICTABLE>
    174c:	00084a07 	andeq	r4, r8, r7, lsl #20
    1750:	c30c0700 	movwgt	r0, #50944	; 0xc700
    1754:	0c000000 	stceq	0, cr0, [r0], {-0}
    1758:	00083507 	andeq	r3, r8, r7, lsl #10
    175c:	c30d0700 	movwgt	r0, #55040	; 0xd700
    1760:	10000000 	andne	r0, r0, r0
    1764:	00088307 	andeq	r8, r8, r7, lsl #6
    1768:	c30e0700 	movwgt	r0, #59136	; 0xe700
    176c:	14000000 	strne	r0, [r0], #-0
    1770:	07005808 	streq	r5, [r0, -r8, lsl #16]
    1774:	0000c30f 	andeq	ip, r0, pc, lsl #6
    1778:	59081800 	stmdbpl	r8, {fp, ip}
    177c:	c3100700 	tstgt	r0, #0, 14
    1780:	1c000000 	stcne	0, cr0, [r0], {-0}
    1784:	00080707 	andeq	r0, r8, r7, lsl #14
    1788:	d9110700 	ldmdble	r1, {r8, r9, sl}
    178c:	20000000 	andcs	r0, r0, r0
    1790:	0005e207 	andeq	lr, r5, r7, lsl #4
    1794:	c3120700 	tstgt	r2, #0, 14
    1798:	24000000 	strcs	r0, [r0], #-0
    179c:	08110300 	ldmdaeq	r1, {r8, r9}
    17a0:	13070000 	movwne	r0, #28672	; 0x7000
    17a4:	000000e6 	andeq	r0, r0, r6, ror #1
    17a8:	16070306 	strne	r0, [r7], -r6, lsl #6
    17ac:	00000843 	andeq	r0, r0, r3, asr #16
    17b0:	0000019d 	muleq	r0, sp, r1
    17b4:	07005208 	streq	r5, [r0, -r8, lsl #4]
    17b8:	0000b817 	andeq	fp, r0, r7, lsl r8
    17bc:	47080000 	strmi	r0, [r8, -r0]
    17c0:	b8180700 	ldmdalt	r8, {r8, r9, sl}
    17c4:	01000000 	mrseq	r0, (UNDEF: 0)
    17c8:	07004208 	streq	r4, [r0, -r8, lsl #4]
    17cc:	0000b819 	andeq	fp, r0, r9, lsl r8
    17d0:	03000200 	movweq	r0, #512	; 0x200
    17d4:	00000844 	andeq	r0, r0, r4, asr #16
    17d8:	01721a07 	cmneq	r2, r7, lsl #20
    17dc:	c6090000 	strgt	r0, [r9], -r0
    17e0:	07000002 	streq	r0, [r0, -r2]
    17e4:	0002af1d 	andeq	sl, r2, sp, lsl pc
    17e8:	09f00a00 	ldmibeq	r0!, {r9, fp}^
    17ec:	1e010000 	cdpne	0, 0, cr0, cr1, cr0, {0}
    17f0:	00000915 	andeq	r0, r0, r5, lsl r9
    17f4:	000001d2 	ldrdeq	r0, [r0], -r2
    17f8:	0000250b 	andeq	r2, r0, fp, lsl #10
    17fc:	00250b00 	eoreq	r0, r5, r0, lsl #22
    1800:	250b0000 	strcs	r0, [fp, #-0]
    1804:	00000000 	andeq	r0, r0, r0
    1808:	0009980a 	andeq	r9, r9, sl, lsl #16
    180c:	bf0b0100 	svclt	0x000b0100
    1810:	e7000008 	str	r0, [r0, -r8]
    1814:	0b000001 	bleq	1820 <__PROGRAM_SIZE-0x87e4>
    1818:	000000c3 	andeq	r0, r0, r3, asr #1
    181c:	095b0a00 	ldmdbeq	fp, {r9, fp}^
    1820:	12010000 	andne	r0, r1, #0
    1824:	00000a04 	andeq	r0, r0, r4, lsl #20
    1828:	000001fc 	strdeq	r0, [r0], -ip
    182c:	0000c30b 	andeq	ip, r0, fp, lsl #6
    1830:	950a0000 	strls	r0, [sl, #-0]
    1834:	01000008 	tsteq	r0, r8
    1838:	0009c619 	andeq	ip, r9, r9, lsl r6
    183c:	00021100 	andeq	r1, r2, r0, lsl #2
    1840:	00c30b00 	sbceq	r0, r3, r0, lsl #22
    1844:	0a000000 	beq	184c <__PROGRAM_SIZE-0x87b8>
    1848:	000002e5 	andeq	r0, r0, r5, ror #5
    184c:	02573c01 	subseq	r3, r7, #256	; 0x100
    1850:	02350000 	eorseq	r0, r5, #0
    1854:	d90b0000 	stmdble	fp, {}	; <UNPREDICTABLE>
    1858:	0b000000 	bleq	1860 <__PROGRAM_SIZE-0x87a4>
    185c:	00000025 	andeq	r0, r0, r5, lsr #32
    1860:	0000250b 	andeq	r2, r0, fp, lsl #10
    1864:	00250b00 	eoreq	r0, r5, r0, lsl #22
    1868:	0a000000 	beq	1870 <__PROGRAM_SIZE-0x8794>
    186c:	000009e2 	andeq	r0, r0, r2, ror #19
    1870:	0a355801 	beq	d5787c <__PROGRAM_SIZE+0xd4d878>
    1874:	02630000 	rsbeq	r0, r3, #0
    1878:	250b0000 	strcs	r0, [fp, #-0]
    187c:	0b000000 	bleq	1884 <__PROGRAM_SIZE-0x8780>
    1880:	00000025 	andeq	r0, r0, r5, lsr #32
    1884:	0000250b 	andeq	r2, r0, fp, lsl #10
    1888:	00250b00 	eoreq	r0, r5, r0, lsl #22
    188c:	250b0000 	strcs	r0, [fp, #-0]
    1890:	0b000000 	bleq	1898 <__PROGRAM_SIZE-0x876c>
    1894:	00000025 	andeq	r0, r0, r5, lsr #32
    1898:	08730c00 	ldmdaeq	r3!, {sl, fp}^
    189c:	1e070000 	cdpne	0, 0, cr0, cr7, cr0, {0}
    18a0:	00000744 	andeq	r0, r0, r4, asr #14
    18a4:	0000052a 	andeq	r0, r0, sl, lsr #10
    18a8:	000ac10c 	andeq	ip, sl, ip, lsl #2
    18ac:	581f0700 	ldmdapl	pc, {r8, r9, sl}	; <UNPREDICTABLE>
    18b0:	30000008 	andcc	r0, r0, r8
    18b4:	0c000005 	stceq	0, cr0, [r0], {5}
    18b8:	00000933 	andeq	r0, r0, r3, lsr r9
    18bc:	09720701 	ldmdbeq	r2!, {r0, r8, r9, sl}^
    18c0:	019d0000 	orrseq	r0, sp, r0
    18c4:	420c0000 	andmi	r0, ip, #0
    18c8:	01000009 	tsteq	r0, r9
    18cc:	0008a108 	andeq	sl, r8, r8, lsl #2
    18d0:	00019d00 	andeq	r9, r1, r0, lsl #26
    18d4:	09f80c00 	ldmibeq	r8!, {sl, fp}^
    18d8:	09010000 	stmdbeq	r1, {}	; <UNPREDICTABLE>
    18dc:	000008e6 	andeq	r0, r0, r6, ror #17
    18e0:	000000c3 	andeq	r0, r0, r3, asr #1
    18e4:	01b30d00 			; <UNDEFINED> instruction: 0x01b30d00
    18e8:	00010000 	andeq	r0, r1, r0
    18ec:	0e000003 	cdpeq	0, 0, cr0, cr0, cr3, {0}
    18f0:	000009f3 	strdeq	r0, [r0], -r3
    18f4:	00251e01 	eoreq	r1, r5, r1, lsl #28
    18f8:	570e0000 	strpl	r0, [lr, -r0]
    18fc:	01000003 	tsteq	r0, r3
    1900:	0000251e 	andeq	r2, r0, lr, lsl r5
    1904:	03650e00 	cmneq	r5, #0, 28
    1908:	1e010000 	cdpne	0, 0, cr0, cr1, cr0, {0}
    190c:	00000025 	andeq	r0, r0, r5, lsr #32
    1910:	0a58100f 	beq	1605954 <__PROGRAM_SIZE+0x15fb950>
    1914:	25010000 	strcs	r0, [r1, #-0]
    1918:	00000025 	andeq	r0, r0, r5, lsr #32
    191c:	0058110f 	subseq	r1, r8, pc, lsl #2
    1920:	00252701 	eoreq	r2, r5, r1, lsl #14
    1924:	100f0000 	andne	r0, pc, r0
    1928:	000007d0 	ldrdeq	r0, [r0], -r0	; <UNPREDICTABLE>
    192c:	00252901 	eoreq	r2, r5, r1, lsl #18
    1930:	00000000 	andeq	r0, r0, r0
    1934:	d2120000 	andsle	r0, r2, #0
    1938:	00000001 	andeq	r0, r0, r1
    193c:	20020009 	andcs	r0, r2, r9
    1940:	01000000 	mrseq	r0, (UNDEF: 0)
    1944:	0003239c 	muleq	r3, ip, r3
    1948:	08441300 	stmdaeq	r4, {r8, r9, ip}^
    194c:	0b010000 	bleq	41954 <__PROGRAM_SIZE+0x37950>
    1950:	000000c3 	andeq	r0, r0, r3, asr #1
    1954:	00000a52 	andeq	r0, r0, r2, asr sl
    1958:	01e71200 	mvneq	r1, r0, lsl #4
    195c:	09200000 	stmdbeq	r0!, {}	; <UNPREDICTABLE>
    1960:	00200200 	eoreq	r0, r0, r0, lsl #4
    1964:	9c010000 	stcls	0, cr0, [r1], {-0}
    1968:	00000346 	andeq	r0, r0, r6, asr #6
    196c:	00084413 	andeq	r4, r8, r3, lsl r4
    1970:	c3120100 	tstgt	r2, #0, 2
    1974:	73000000 	movwvc	r0, #0
    1978:	0000000a 	andeq	r0, r0, sl
    197c:	0001fc12 	andeq	pc, r1, r2, lsl ip	; <UNPREDICTABLE>
    1980:	00094000 	andeq	r4, r9, r0
    1984:	00001002 	andeq	r1, r0, r2
    1988:	679c0100 	ldrvs	r0, [ip, r0, lsl #2]
    198c:	14000003 	strne	r0, [r0], #-3
    1990:	00000990 	muleq	r0, r0, r9
    1994:	00c31901 	sbceq	r1, r3, r1, lsl #18
    1998:	50010000 	andpl	r0, r1, r0
    199c:	02af1500 	adceq	r1, pc, #0, 10
    19a0:	09150000 	ldmdbeq	r5, {}	; <UNPREDICTABLE>
    19a4:	09500000 	ldmdbeq	r0, {}^	; <UNPREDICTABLE>
    19a8:	012c0200 	teqeq	ip, r0, lsl #4
    19ac:	9c010000 	stcls	0, cr0, [r1], {-0}
    19b0:	000003e8 	andeq	r0, r0, r8, ror #7
    19b4:	0002b916 	andeq	fp, r2, r6, lsl r9
    19b8:	000a9400 	andeq	r9, sl, r0, lsl #8
    19bc:	02c41600 	sbceq	r1, r4, #0, 12
    19c0:	0ab50000 	beq	fed419c8 <__PROGRAM_END+0xfcd3799c>
    19c4:	cf160000 	svcgt	0x00160000
    19c8:	d6000002 	strle	r0, [r0], -r2
    19cc:	1700000a 	strne	r0, [r0, -sl]
    19d0:	000000b0 	strheq	r0, [r0], -r0	; <UNPREDICTABLE>
    19d4:	0002cf16 	andeq	ip, r2, r6, lsl pc
    19d8:	000af700 	andeq	pc, sl, r0, lsl #14
    19dc:	02c41600 	sbceq	r1, r4, #0, 12
    19e0:	0b350000 	bleq	d419e8 <__PROGRAM_SIZE+0xd379e4>
    19e4:	b9160000 	ldmdblt	r6, {}	; <UNPREDICTABLE>
    19e8:	5c000002 	stcpl	0, cr0, [r0], {2}
    19ec:	1700000b 	strne	r0, [r0, -fp]
    19f0:	000000c8 	andeq	r0, r0, r8, asr #1
    19f4:	0002db18 	andeq	sp, r2, r8, lsl fp
    19f8:	000b7d00 	andeq	r7, fp, r0, lsl #26
    19fc:	00f01700 	rscseq	r1, r0, r0, lsl #14
    1a00:	e7180000 	ldr	r0, [r8, -r0]
    1a04:	9c000002 	stcls	0, cr0, [r0], {2}
    1a08:	1700000b 	strne	r0, [r0, -fp]
    1a0c:	00000120 	andeq	r0, r0, r0, lsr #2
    1a10:	0002f118 	andeq	pc, r2, r8, lsl r1	; <UNPREDICTABLE>
    1a14:	000bbb00 	andeq	fp, fp, r0, lsl #22
    1a18:	00000000 	andeq	r0, r0, r0
    1a1c:	11120000 	tstne	r2, r0
    1a20:	7c000002 	stcvc	0, cr0, [r0], {2}
    1a24:	7002000a 	andvc	r0, r2, sl
    1a28:	01000000 	mrseq	r0, (UNDEF: 0)
    1a2c:	0004949c 	muleq	r4, ip, r4
    1a30:	092e1300 	stmdbeq	lr!, {r8, r9, ip}
    1a34:	3c010000 	stccc	0, cr0, [r1], {-0}
    1a38:	000000d9 	ldrdeq	r0, [r0], -r9
    1a3c:	00000bd9 	ldrdeq	r0, [r0], -r9
    1a40:	01005819 	tsteq	r0, r9, lsl r8
    1a44:	0000253c 	andeq	r2, r0, ip, lsr r5
    1a48:	000c0d00 	andeq	r0, ip, r0, lsl #26
    1a4c:	00591900 	subseq	r1, r9, r0, lsl #18
    1a50:	00253c01 	eoreq	r3, r5, r1, lsl #24
    1a54:	0c410000 	mareq	acc0, r0, r1
    1a58:	51130000 	tstpl	r3, r0
    1a5c:	01000009 	tsteq	r0, r9
    1a60:	0000253c 	andeq	r2, r0, ip, lsr r5
    1a64:	000c7500 	andeq	r7, ip, r0, lsl #10
    1a68:	00691a00 	rsbeq	r1, r9, r0, lsl #20
    1a6c:	00253e01 	eoreq	r3, r5, r1, lsl #28
    1a70:	0caf0000 	stceq	0, cr0, [pc]	; 1a78 <__PROGRAM_SIZE-0x858c>
    1a74:	b81b0000 	ldmdalt	fp, {}	; <UNPREDICTABLE>
    1a78:	3402000a 	strcc	r0, [r2], #-10
    1a7c:	76000000 	strvc	r0, [r0], -r0
    1a80:	1c000004 	stcne	0, cr0, [r0], {4}
    1a84:	00000a2b 	andeq	r0, r0, fp, lsr #20
    1a88:	00df4b01 	sbcseq	r4, pc, r1, lsl #22
    1a8c:	0cf50000 	ldcleq	0, cr0, [r5]
    1a90:	dc1d0000 	ldcle	0, cr0, [sp], {-0}
    1a94:	af02000a 	svcge	0x0002000a
    1a98:	1e000002 	cdpne	0, 0, cr0, cr0, cr2, {0}
    1a9c:	75055101 	strvc	r5, [r5, #-257]	; 0xfffffeff
    1aa0:	22007400 	andcs	r7, r0, #0, 8
    1aa4:	0252011e 	subseq	r0, r2, #-2147483641	; 0x80000007
    1aa8:	00000076 	andeq	r0, r0, r6, ror r0
    1aac:	000a981f 	andeq	r9, sl, pc, lsl r8
    1ab0:	00055702 	andeq	r5, r5, r2, lsl #14
    1ab4:	00048a00 	andeq	r8, r4, r0, lsl #20
    1ab8:	50011e00 	andpl	r1, r1, r0, lsl #28
    1abc:	00007702 	andeq	r7, r0, r2, lsl #14
    1ac0:	000ab020 	andeq	fp, sl, r0, lsr #32
    1ac4:	00055702 	andeq	r5, r5, r2, lsl #14
    1ac8:	35120000 	ldrcc	r0, [r2, #-0]
    1acc:	ec000002 	stc	0, cr0, [r0], {2}
    1ad0:	3402000a 	strcc	r0, [r2], #-10
    1ad4:	01000000 	mrseq	r0, (UNDEF: 0)
    1ad8:	0004f69c 	muleq	r4, ip, r6
    1adc:	52422100 	subpl	r2, r2, #0, 2
    1ae0:	25580100 	ldrbcs	r0, [r8, #-256]	; 0xffffff00
    1ae4:	01000000 	mrseq	r0, (UNDEF: 0)
    1ae8:	47422150 	smlsldmi	r2, r2, r0, r1	; <UNPREDICTABLE>
    1aec:	25580100 	ldrbcs	r0, [r8, #-256]	; 0xffffff00
    1af0:	01000000 	mrseq	r0, (UNDEF: 0)
    1af4:	42421951 	submi	r1, r2, #1327104	; 0x144000
    1af8:	25580100 	ldrbcs	r0, [r8, #-256]	; 0xffffff00
    1afc:	13000000 	movwne	r0, #0
    1b00:	1900000d 	stmdbne	r0, {r0, r2, r3}
    1b04:	01005246 	tsteq	r0, r6, asr #4
    1b08:	00002558 	andeq	r2, r0, r8, asr r5
    1b0c:	000d3400 	andeq	r3, sp, r0, lsl #8
    1b10:	47462100 	strbmi	r2, [r6, -r0, lsl #2]
    1b14:	25580100 	ldrbcs	r0, [r8, #-256]	; 0xffffff00
    1b18:	02000000 	andeq	r0, r0, #0
    1b1c:	46210091 			; <UNDEFINED> instruction: 0x46210091
    1b20:	58010042 	stmdapl	r1, {r1, r6}
    1b24:	00000025 	andeq	r0, r0, r5, lsr #32
    1b28:	00049102 	andeq	r9, r4, r2, lsl #2
    1b2c:	0000a222 	andeq	sl, r0, r2, lsr #4
    1b30:	00051200 	andeq	r1, r5, r0, lsl #4
    1b34:	05122300 	ldreq	r2, [r2, #-768]	; 0xfffffd00
    1b38:	23010000 	movwcs	r0, #4096	; 0x1000
    1b3c:	00000512 	andeq	r0, r0, r2, lsl r5
    1b40:	051223ff 	ldreq	r2, [r2, #-1023]	; 0xfffffc01
    1b44:	001b0000 	andseq	r0, fp, r0
    1b48:	dd070404 	cfstrsle	mvf0, [r7, #-16]
    1b4c:	24000000 	strcs	r0, [r0], #-0
    1b50:	00000901 	andeq	r0, r0, r1, lsl #18
    1b54:	04f60408 	ldrbteq	r0, [r6], #1032	; 0x408
    1b58:	03050000 	movweq	r0, #20480	; 0x5000
    1b5c:	02001000 	andeq	r1, r0, #0
    1b60:	01670405 	cmneq	r7, r5, lsl #8
    1b64:	04050000 	streq	r0, [r5], #-0
    1b68:	000000b8 	strheq	r0, [r0], -r8
    1b6c:	00028125 	andeq	r8, r2, r5, lsr #2
    1b70:	0c030500 	cfstr32eq	mvfx0, [r3], {-0}
    1b74:	250200a0 	strcs	r0, [r2, #-160]	; 0xffffff60
    1b78:	00000290 	muleq	r0, r0, r2
    1b7c:	0ff80305 	svceq	0x00f80305
    1b80:	9f250200 	svcls	0x00250200
    1b84:	05000002 	streq	r0, [r0, #-2]
    1b88:	000ffc03 	andeq	pc, pc, r3, lsl #24
    1b8c:	05632602 	strbeq	r2, [r3, #-1538]!	; 0xfffff9fe
    1b90:	06060000 	streq	r0, [r6], -r0
    1b94:	000003d1 	ldrdeq	r0, [r0], -r1
    1b98:	0000002c 	andeq	r0, r0, ip, lsr #32
    1b9c:	0000ce0b 	andeq	ip, r0, fp, lsl #28
    1ba0:	ff000000 			; <UNDEFINED> instruction: 0xff000000
    1ba4:	04000002 	streq	r0, [r0], #-2
    1ba8:	000c3b00 	andeq	r3, ip, r0, lsl #22
    1bac:	29010400 	stmdbcs	r1, {sl}
    1bb0:	04000001 	streq	r0, [r0], #-1
    1bb4:	00000a5d 	andeq	r0, r0, sp, asr sl
    1bb8:	0000067e 	andeq	r0, r0, lr, ror r6
    1bbc:	02000b20 	andeq	r0, r0, #32, 22	; 0x8000
    1bc0:	00000084 	andeq	r0, r0, r4, lsl #1
    1bc4:	000009b4 			; <UNDEFINED> instruction: 0x000009b4
    1bc8:	69050402 	stmdbvs	r5, {r1, sl}
    1bcc:	0300746e 	movweq	r7, #1134	; 0x46e
    1bd0:	00d00704 	sbcseq	r0, r0, r4, lsl #14
    1bd4:	01030000 	mrseq	r0, (UNDEF: 3)
    1bd8:	00003306 	andeq	r3, r0, r6, lsl #6
    1bdc:	07e70400 	strbeq	r0, [r7, r0, lsl #8]!
    1be0:	1d020000 	stcne	0, cr0, [r2, #-0]
    1be4:	00000045 	andeq	r0, r0, r5, asr #32
    1be8:	31080103 	tstcc	r8, r3, lsl #2
    1bec:	03000000 	movweq	r0, #0
    1bf0:	010a0502 	tsteq	sl, r2, lsl #10
    1bf4:	02030000 	andeq	r0, r3, #0
    1bf8:	00004407 	andeq	r4, r0, r7, lsl #8
    1bfc:	05040300 	streq	r0, [r4, #-768]	; 0xfffffd00
    1c00:	000000eb 	andeq	r0, r0, fp, ror #1
    1c04:	0000a404 	andeq	sl, r0, r4, lsl #8
    1c08:	6c410200 	sfmvs	f0, 2, [r1], {-0}
    1c0c:	03000000 	movweq	r0, #0
    1c10:	00cb0704 	sbceq	r0, fp, r4, lsl #14
    1c14:	08030000 	stmdaeq	r3, {}	; <UNPREDICTABLE>
    1c18:	0000e605 	andeq	lr, r0, r5, lsl #12
    1c1c:	07080300 	streq	r0, [r8, -r0, lsl #6]
    1c20:	000000c6 	andeq	r0, r0, r6, asr #1
    1c24:	0007e904 	andeq	lr, r7, r4, lsl #18
    1c28:	3a140300 	bcc	502830 <__PROGRAM_SIZE+0x4f882c>
    1c2c:	04000000 	streq	r0, [r0], #-0
    1c30:	000000a6 	andeq	r0, r0, r6, lsr #1
    1c34:	00612003 	rsbeq	r2, r1, r3
    1c38:	b1040000 	mrslt	r0, (UNDEF: 4)
    1c3c:	04000007 	streq	r0, [r0], #-7
    1c40:	00008109 	andeq	r8, r0, r9, lsl #2
    1c44:	00af0400 	adceq	r0, pc, r0, lsl #8
    1c48:	0b040000 	bleq	101c50 <__PROGRAM_SIZE+0xf7c4c>
    1c4c:	0000008c 	andeq	r0, r0, ip, lsl #1
    1c50:	28060405 	stmdacs	r6, {r0, r2, sl}
    1c54:	080f0805 	stmdaeq	pc, {r0, r2, fp}	; <UNPREDICTABLE>
    1c58:	01300000 	teqeq	r0, r0
    1c5c:	2f070000 	svccs	0x00070000
    1c60:	05000008 	streq	r0, [r0, #-8]
    1c64:	0000a209 	andeq	sl, r0, r9, lsl #4
    1c68:	51070000 	mrspl	r0, (UNDEF: 7)
    1c6c:	05000008 	streq	r0, [r0, #-8]
    1c70:	0000a20a 	andeq	sl, r0, sl, lsl #4
    1c74:	28070400 	stmdacs	r7, {sl}
    1c78:	05000008 	streq	r0, [r0, #-8]
    1c7c:	0000a20b 	andeq	sl, r0, fp, lsl #4
    1c80:	4a070800 	bmi	1c3c88 <__PROGRAM_SIZE+0x1b9c84>
    1c84:	05000008 	streq	r0, [r0, #-8]
    1c88:	0000a20c 	andeq	sl, r0, ip, lsl #4
    1c8c:	35070c00 	strcc	r0, [r7, #-3072]	; 0xfffff400
    1c90:	05000008 	streq	r0, [r0, #-8]
    1c94:	0000a20d 	andeq	sl, r0, sp, lsl #4
    1c98:	83071000 	movwhi	r1, #28672	; 0x7000
    1c9c:	05000008 	streq	r0, [r0, #-8]
    1ca0:	0000a20e 	andeq	sl, r0, lr, lsl #4
    1ca4:	58081400 	stmdapl	r8, {sl, ip}
    1ca8:	a20f0500 	andge	r0, pc, #0, 10
    1cac:	18000000 	stmdane	r0, {}	; <UNPREDICTABLE>
    1cb0:	05005908 	streq	r5, [r0, #-2312]	; 0xfffff6f8
    1cb4:	0000a210 	andeq	sl, r0, r0, lsl r2
    1cb8:	07071c00 	streq	r1, [r7, -r0, lsl #24]
    1cbc:	05000008 	streq	r0, [r0, #-8]
    1cc0:	00013011 	andeq	r3, r1, r1, lsl r0
    1cc4:	e2072000 	and	r2, r7, #0
    1cc8:	05000005 	streq	r0, [r0, #-5]
    1ccc:	0000a212 	andeq	sl, r0, r2, lsl r2
    1cd0:	09002400 	stmdbeq	r0, {sl, sp}
    1cd4:	00013604 	andeq	r3, r1, r4, lsl #12
    1cd8:	06010300 	streq	r0, [r1], -r0, lsl #6
    1cdc:	0000003a 	andeq	r0, r0, sl, lsr r0
    1ce0:	00081104 	andeq	r1, r8, r4, lsl #2
    1ce4:	af130500 	svcge	0x00130500
    1ce8:	0a000000 	beq	1cf0 <__PROGRAM_SIZE-0x8314>
    1cec:	000002c6 	andeq	r0, r0, r6, asr #5
    1cf0:	01ea1d05 	mvneq	r1, r5, lsl #26
    1cf4:	900b0000 	andls	r0, fp, r0
    1cf8:	0100000a 	tsteq	r0, sl
    1cfc:	000a7b0a 	andeq	r7, sl, sl, lsl #22
    1d00:	0abe0c00 	beq	fef84d08 <__PROGRAM_END+0xfcf7acdc>
    1d04:	18010000 	stmdane	r1, {}	; <UNPREDICTABLE>
    1d08:	00000a96 	muleq	r0, r6, sl
    1d0c:	000000ad 	andeq	r0, r0, sp, lsr #1
    1d10:	0008730d 	andeq	r7, r8, sp, lsl #6
    1d14:	44070100 	strmi	r0, [r7], #-256	; 0xffffff00
    1d18:	a7000007 	strge	r0, [r0, -r7]
    1d1c:	0d000002 	stceq	0, cr0, [r0, #-8]
    1d20:	00000ac1 	andeq	r0, r0, r1, asr #21
    1d24:	08580801 	ldmdaeq	r8, {r0, fp}^
    1d28:	02b80000 	adcseq	r0, r8, #0
    1d2c:	5c0e0000 	stcpl	0, cr0, [lr], {-0}
    1d30:	05000003 	streq	r0, [r0, #-3]
    1d34:	00079729 	andeq	r9, r7, r9, lsr #14
    1d38:	0001aa00 	andeq	sl, r1, r0, lsl #20
    1d3c:	00250f00 	eoreq	r0, r5, r0, lsl #30
    1d40:	250f0000 	strcs	r0, [pc, #-0]	; 1d48 <__PROGRAM_SIZE-0x82bc>
    1d44:	0f000000 	svceq	0x00000000
    1d48:	00000025 	andeq	r0, r0, r5, lsr #32
    1d4c:	09e20e00 	stmibeq	r2!, {r9, sl, fp}^
    1d50:	30050000 	andcc	r0, r5, r0
    1d54:	00000a35 	andeq	r0, r0, r5, lsr sl
    1d58:	000001d8 	ldrdeq	r0, [r0], -r8
    1d5c:	0000250f 	andeq	r2, r0, pc, lsl #10
    1d60:	00250f00 	eoreq	r0, r5, r0, lsl #30
    1d64:	250f0000 	strcs	r0, [pc, #-0]	; 1d6c <__PROGRAM_SIZE-0x8298>
    1d68:	0f000000 	svceq	0x00000000
    1d6c:	00000025 	andeq	r0, r0, r5, lsr #32
    1d70:	0000250f 	andeq	r2, r0, pc, lsl #10
    1d74:	00250f00 	eoreq	r0, r5, r0, lsl #30
    1d78:	10000000 	andne	r0, r0, r0
    1d7c:	00000895 	muleq	r0, r5, r8
    1d80:	09c63105 	stmibeq	r6, {r0, r2, r8, ip, sp}^
    1d84:	a20f0000 	andge	r0, pc, #0
    1d88:	00000000 	andeq	r0, r0, r0
    1d8c:	01531100 	cmpeq	r3, r0, lsl #2
    1d90:	0b200000 	bleq	801d98 <__PROGRAM_SIZE+0x7f7d94>
    1d94:	00740200 	rsbseq	r0, r4, r0, lsl #4
    1d98:	9c010000 	stcls	0, cr0, [r1], {-0}
    1d9c:	00000298 	muleq	r0, r8, r2
    1da0:	000ab512 	andeq	fp, sl, r2, lsl r5
    1da4:	a20c0100 	andge	r0, ip, #0, 2
    1da8:	55000000 	strpl	r0, [r0, #-0]
    1dac:	1300000d 	movwne	r0, #13
    1db0:	02000b34 	andeq	r0, r0, #52, 22	; 0xd000
    1db4:	000002c9 	andeq	r0, r0, r9, asr #5
    1db8:	00000224 	andeq	r0, r0, r4, lsr #4
    1dbc:	01500114 	cmpeq	r0, r4, lsl r1
    1dc0:	51011432 	tstpl	r1, r2, lsr r4
    1dc4:	13003001 	movwne	r3, #1
    1dc8:	02000b54 	andeq	r0, r0, #84, 22	; 0x15000
    1dcc:	000002e7 	andeq	r0, r0, r7, ror #5
    1dd0:	00000237 	andeq	r0, r0, r7, lsr r2
    1dd4:	01510114 	cmpeq	r1, r4, lsl r1
    1dd8:	64130030 	ldrvs	r0, [r3], #-48	; 0xffffffd0
    1ddc:	8b02000b 	blhi	81e10 <__PROGRAM_SIZE+0x77e0c>
    1de0:	57000001 	strpl	r0, [r0, -r1]
    1de4:	14000002 	strne	r0, [r0], #-2
    1de8:	08025001 	stmdaeq	r2, {r0, ip, lr}
    1dec:	510114ff 	strdpl	r1, [r1, -pc]
    1df0:	14ff0802 	ldrbtne	r0, [pc], #2050	; 1df8 <__PROGRAM_SIZE-0x820c>
    1df4:	08025201 	stmdaeq	r2, {r0, r9, ip, lr}
    1df8:	801300ff 	ldrshhi	r0, [r3], -pc	; <UNPREDICTABLE>
    1dfc:	aa02000b 	bge	81e30 <__PROGRAM_SIZE+0x77e2c>
    1e00:	88000001 	stmdahi	r0, {r0}
    1e04:	14000002 	strne	r0, [r0], #-2
    1e08:	30015001 	andcc	r5, r1, r1
    1e0c:	01510114 	cmpeq	r1, r4, lsl r1
    1e10:	52011430 	andpl	r1, r1, #48, 8	; 0x30000000
    1e14:	01143001 	tsteq	r4, r1
    1e18:	ff080253 			; <UNDEFINED> instruction: 0xff080253
    1e1c:	007d0214 	rsbseq	r0, sp, r4, lsl r2
    1e20:	14ff0802 	ldrbtne	r0, [pc], #2050	; 1e28 <__PROGRAM_SIZE-0x81dc>
    1e24:	02047d02 	andeq	r7, r4, #2, 26	; 0x80
    1e28:	1500ff08 	strne	pc, [r0, #-3848]	; 0xfffff0f8
    1e2c:	02000b88 	andeq	r0, r0, #136, 22	; 0x22000
    1e30:	000001d8 	ldrdeq	r0, [r0], -r8
    1e34:	01500114 	cmpeq	r0, r4, lsl r1
    1e38:	16000031 			; <UNDEFINED> instruction: 0x16000031
    1e3c:	0000015e 	andeq	r0, r0, lr, asr r1
    1e40:	02000b94 	andeq	r0, r0, #148, 22	; 0x25000
    1e44:	00000010 	andeq	r0, r0, r0, lsl r0
    1e48:	04099c01 	streq	r9, [r9], #-3073	; 0xfffff3ff
    1e4c:	0000013d 	andeq	r0, r0, sp, lsr r1
    1e50:	00016d17 	andeq	r6, r1, r7, lsl sp
    1e54:	10030500 	andne	r0, r3, r0, lsl #10
    1e58:	090200a0 	stmdbeq	r2, {r5, r7}
    1e5c:	00009704 	andeq	r9, r0, r4, lsl #14
    1e60:	017c1700 	cmneq	ip, r0, lsl #14
    1e64:	03050000 	movweq	r0, #20480	; 0x5000
    1e68:	0200a014 	andeq	sl, r0, #20
    1e6c:	0006e618 	andeq	lr, r6, r8, lsl r6
    1e70:	bd100700 	ldclt	7, cr0, [r0, #-0]
    1e74:	a2000006 	andge	r0, r0, #6
    1e78:	e7000000 	str	r0, [r0, -r0]
    1e7c:	0f000002 	svceq	0x00000002
    1e80:	000000a2 	andeq	r0, r0, r2, lsr #1
    1e84:	0000ad0f 	andeq	sl, r0, pc, lsl #26
    1e88:	fd100000 	ldc2	0, cr0, [r0, #-0]
    1e8c:	06000005 	streq	r0, [r0], -r5
    1e90:	00062504 	andeq	r2, r6, r4, lsl #10
    1e94:	00ad0f00 	adceq	r0, sp, r0, lsl #30
    1e98:	360f0000 	strcc	r0, [pc], -r0
    1e9c:	0f000001 	svceq	0x00000001
    1ea0:	00000025 	andeq	r0, r0, r5, lsr #32
    1ea4:	01460000 	mrseq	r0, (UNDEF: 70)
    1ea8:	00040000 	andeq	r0, r4, r0
    1eac:	00000d91 	muleq	r0, r1, sp
    1eb0:	01290104 	teqeq	r9, r4, lsl #2
    1eb4:	ec040000 	stc	0, cr0, [r4], {-0}
    1eb8:	7e00000a 	cdpvc	0, 0, cr0, cr0, cr10, {0}
    1ebc:	a4000006 	strge	r0, [r0], #-6
    1ec0:	1802000b 	stmdane	r2, {r0, r1, r3}
    1ec4:	d8000000 	stmdale	r0, {}	; <UNPREDICTABLE>
    1ec8:	0200000a 	andeq	r0, r0, #10
    1ecc:	6e690504 	cdpvs	5, 6, cr0, cr9, cr4, {0}
    1ed0:	04030074 	streq	r0, [r3], #-116	; 0xffffff8c
    1ed4:	0000d007 	andeq	sp, r0, r7
    1ed8:	06010300 	streq	r0, [r1], -r0, lsl #6
    1edc:	00000033 	andeq	r0, r0, r3, lsr r0
    1ee0:	31080103 	tstcc	r8, r3, lsl #2
    1ee4:	03000000 	movweq	r0, #0
    1ee8:	010a0502 	tsteq	sl, r2, lsl #10
    1eec:	02030000 	andeq	r0, r3, #0
    1ef0:	00004407 	andeq	r4, r0, r7, lsl #8
    1ef4:	05040300 	streq	r0, [r4, #-768]	; 0xfffffd00
    1ef8:	000000eb 	andeq	r0, r0, fp, ror #1
    1efc:	0000a404 	andeq	sl, r0, r4, lsl #8
    1f00:	61410200 	mrsvs	r0, (UNDEF: 97)
    1f04:	03000000 	movweq	r0, #0
    1f08:	00cb0704 	sbceq	r0, fp, r4, lsl #14
    1f0c:	08030000 	stmdaeq	r3, {}	; <UNPREDICTABLE>
    1f10:	0000e605 	andeq	lr, r0, r5, lsl #12
    1f14:	07080300 	streq	r0, [r8, -r0, lsl #6]
    1f18:	000000c6 	andeq	r0, r0, r6, asr #1
    1f1c:	0000a604 	andeq	sl, r0, r4, lsl #12
    1f20:	56200300 	strtpl	r0, [r0], -r0, lsl #6
    1f24:	04000000 	streq	r0, [r0], #-0
    1f28:	000000af 	andeq	r0, r0, pc, lsr #1
    1f2c:	00760b04 	rsbseq	r0, r6, r4, lsl #22
    1f30:	08050000 	stmdaeq	r5, {}	; <UNPREDICTABLE>
    1f34:	0adf0b05 	beq	ff7c4b50 <__PROGRAM_END+0xfd7bab24>
    1f38:	00b10000 	adcseq	r0, r1, r0
    1f3c:	ff060000 			; <UNDEFINED> instruction: 0xff060000
    1f40:	0500000a 	streq	r0, [r0, #-10]
    1f44:	0000810c 	andeq	r8, r0, ip, lsl #2
    1f48:	f9060000 			; <UNDEFINED> instruction: 0xf9060000
    1f4c:	0500000a 	streq	r0, [r0, #-10]
    1f50:	0000b10d 	andeq	fp, r0, sp, lsl #2
    1f54:	07000400 	streq	r0, [r0, -r0, lsl #8]
    1f58:	0ae10404 	beq	ff842f70 <__PROGRAM_END+0xfd838f44>
    1f5c:	0e050000 	cdpeq	0, 0, cr0, cr5, cr0, {0}
    1f60:	0000008c 	andeq	r0, r0, ip, lsl #1
    1f64:	0006e608 	andeq	lr, r6, r8, lsl #12
    1f68:	bd080100 	stflts	f0, [r8, #-0]
    1f6c:	81000006 	tsthi	r0, r6
    1f70:	a4000000 	strge	r0, [r0], #-0
    1f74:	1802000b 	stmdane	r2, {r0, r1, r3}
    1f78:	01000000 	mrseq	r0, (UNDEF: 0)
    1f7c:	00010e9c 	muleq	r1, ip, lr
    1f80:	0aff0900 	beq	fffc4388 <__PROGRAM_END+0xfdfba35c>
    1f84:	08010000 	stmdaeq	r1, {}	; <UNPREDICTABLE>
    1f88:	00000081 	andeq	r0, r0, r1, lsl #1
    1f8c:	00000d73 	andeq	r0, r0, r3, ror sp
    1f90:	000af909 	andeq	pc, sl, r9, lsl #18
    1f94:	b1080100 	mrslt	r0, (UNDEF: 24)
    1f98:	94000000 	strls	r0, [r0], #-0
    1f9c:	0a00000d 	beq	1fd8 <__PROGRAM_SIZE-0x802c>
    1fa0:	02000bb4 	andeq	r0, r0, #180, 22	; 0x2d000
    1fa4:	0350010b 	cmpeq	r0, #-1073741822	; 0xc0000002
    1fa8:	0b5001f3 	bleq	140277c <__PROGRAM_SIZE+0x13f8778>
    1fac:	f3035101 	vrhadd.u8	d5, d3, d1
    1fb0:	00005101 	andeq	r5, r0, r1, lsl #2
    1fb4:	000acd0c 	andeq	ip, sl, ip, lsl #26
    1fb8:	1f040100 	svcne	0x00040100
    1fbc:	05000001 	streq	r0, [r0, #-1]
    1fc0:	00a01803 	adceq	r1, r0, r3, lsl #16
    1fc4:	00b30d02 	adcseq	r0, r3, r2, lsl #26
    1fc8:	810e0000 	mrshi	r0, (UNDEF: 14)
    1fcc:	38000000 	stmdacc	r0, {}	; <UNPREDICTABLE>
    1fd0:	0f000001 	svceq	0x00000001
    1fd4:	00000081 	andeq	r0, r0, r1, lsl #1
    1fd8:	0000b10f 	andeq	fp, r0, pc, lsl #2
    1fdc:	d4100000 	ldrle	r0, [r0], #-0
    1fe0:	0100000a 	tsteq	r0, sl
    1fe4:	00014306 	andeq	r4, r1, r6, lsl #6
    1fe8:	24041100 	strcs	r1, [r4], #-256	; 0xffffff00
    1fec:	00000001 	andeq	r0, r0, r1
    1ff0:	0000026e 	andeq	r0, r0, lr, ror #4
    1ff4:	0e6f0004 	cdpeq	0, 6, cr0, cr15, cr4, {0}
    1ff8:	01040000 	mrseq	r0, (UNDEF: 4)
    1ffc:	00000129 	andeq	r0, r0, r9, lsr #2
    2000:	000b0404 	andeq	r0, fp, r4, lsl #8
    2004:	00067e00 	andeq	r7, r6, r0, lsl #28
    2008:	00017800 	andeq	r7, r1, r0, lsl #16
    200c:	00000000 	andeq	r0, r0, r0
    2010:	000baa00 	andeq	sl, fp, r0, lsl #20
    2014:	05040200 	streq	r0, [r4, #-512]	; 0xfffffe00
    2018:	00746e69 	rsbseq	r6, r4, r9, ror #28
    201c:	d0070403 	andle	r0, r7, r3, lsl #8
    2020:	03000000 	movweq	r0, #0
    2024:	00330601 	eorseq	r0, r3, r1, lsl #12
    2028:	01030000 	mrseq	r0, (UNDEF: 3)
    202c:	00003108 	andeq	r3, r0, r8, lsl #2
    2030:	05020300 	streq	r0, [r2, #-768]	; 0xfffffd00
    2034:	0000010a 	andeq	r0, r0, sl, lsl #2
    2038:	44070203 	strmi	r0, [r7], #-515	; 0xfffffdfd
    203c:	03000000 	movweq	r0, #0
    2040:	00eb0504 	rsceq	r0, fp, r4, lsl #10
    2044:	a4040000 	strge	r0, [r4], #-0
    2048:	02000000 	andeq	r0, r0, #0
    204c:	00006141 	andeq	r6, r0, r1, asr #2
    2050:	07040300 	streq	r0, [r4, -r0, lsl #6]
    2054:	000000cb 	andeq	r0, r0, fp, asr #1
    2058:	e6050803 	str	r0, [r5], -r3, lsl #16
    205c:	03000000 	movweq	r0, #0
    2060:	00c60708 	sbceq	r0, r6, r8, lsl #14
    2064:	a6040000 	strge	r0, [r4], -r0
    2068:	03000000 	movweq	r0, #0
    206c:	00005620 	andeq	r5, r0, r0, lsr #12
    2070:	00af0400 	adceq	r0, pc, r0, lsl #8
    2074:	0b040000 	bleq	10207c <__PROGRAM_SIZE+0xf8078>
    2078:	00000076 	andeq	r0, r0, r6, ror r0
    207c:	04060405 	streq	r0, [r6], #-1029	; 0xfffffbfb
    2080:	00000094 	muleq	r0, r4, r0
    2084:	3a060103 	bcc	182498 <__PROGRAM_SIZE+0x178494>
    2088:	07000000 	streq	r0, [r0, -r0]
    208c:	32050504 	andcc	r0, r5, #4, 10	; 0x1000000
    2090:	b4000007 	strlt	r0, [r0], #-7
    2094:	08000000 	stmdaeq	r0, {}	; <UNPREDICTABLE>
    2098:	0000027b 	andeq	r0, r0, fp, ror r2
    209c:	00250605 	eoreq	r0, r5, r5, lsl #12
    20a0:	00000000 	andeq	r0, r0, r0
    20a4:	00073304 	andeq	r3, r7, r4, lsl #6
    20a8:	9b070500 	blls	1c34b0 <__PROGRAM_SIZE+0x1b94ac>
    20ac:	09000000 	stmdbeq	r0, {}	; <UNPREDICTABLE>
    20b0:	00000b1d 	andeq	r0, r0, sp, lsl fp
    20b4:	0b391c01 	bleq	e490c0 <__PROGRAM_SIZE+0xe3f0bc>
    20b8:	0bbc0000 	bleq	fef020c0 <__PROGRAM_END+0xfcef8094>
    20bc:	00380200 	eorseq	r0, r8, r0, lsl #4
    20c0:	9c010000 	stcls	0, cr0, [r1], {-0}
    20c4:	0000012e 	andeq	r0, r0, lr, lsr #2
    20c8:	000aff0a 	andeq	pc, sl, sl, lsl #30
    20cc:	811c0100 	tsthi	ip, r0, lsl #2
    20d0:	b5000000 	strlt	r0, [r0, #-0]
    20d4:	0a00000d 	beq	2110 <__PROGRAM_SIZE-0x7ef4>
    20d8:	00000af9 	strdeq	r0, [r0], -r9
    20dc:	008c1c01 	addeq	r1, ip, r1, lsl #24
    20e0:	0dd30000 	ldcleq	0, cr0, [r3]
    20e4:	dc0b0000 	stcle	0, cr0, [fp], {-0}
    20e8:	f902000b 			; <UNDEFINED> instruction: 0xf902000b
    20ec:	1d000001 	stcne	0, cr0, [r0, #-4]
    20f0:	0c000001 	stceq	0, cr0, [r0], {1}
    20f4:	03055001 	movweq	r5, #20481	; 0x5001
    20f8:	02000fec 	andeq	r0, r0, #236, 30	; 0x3b0
    20fc:	0251010c 	subseq	r0, r1, #12, 2
    2100:	010c3208 	tsteq	ip, r8, lsl #4
    2104:	0c300152 	ldfeqs	f0, [r0], #-328	; 0xfffffeb8
    2108:	30015301 	andcc	r5, r1, r1, lsl #6
    210c:	0bec0d00 	bleq	ffb05514 <__PROGRAM_END+0xfdafb4e8>
    2110:	02290200 	eoreq	r0, r9, #0, 4
    2114:	010c0000 	mrseq	r0, (UNDEF: 12)
    2118:	00750250 	rsbseq	r0, r5, r0, asr r2
    211c:	13090000 	movwne	r0, #36864	; 0x9000
    2120:	0100000b 	tsteq	r0, fp
    2124:	000b6716 	andeq	r6, fp, r6, lsl r7
    2128:	000bf400 	andeq	pc, fp, r0, lsl #8
    212c:	00001402 	andeq	r1, r0, r2, lsl #8
    2130:	6d9c0100 	ldfvss	f0, [ip]
    2134:	0a000001 	beq	2140 <__PROGRAM_SIZE-0x7ec4>
    2138:	00000ad7 	ldrdeq	r0, [r0], -r7
    213c:	008c1601 	addeq	r1, ip, r1, lsl #12
    2140:	0df10000 	ldcleq	0, cr0, [r1]
    2144:	040d0000 	streq	r0, [sp], #-0
    2148:	4402000c 	strmi	r0, [r2], #-12
    214c:	0c000002 	stceq	0, cr0, [r0], {2}
    2150:	31015001 	tstcc	r1, r1
    2154:	0351010c 	cmpeq	r1, #12, 2
    2158:	005001f3 	ldrsheq	r0, [r0], #-19	; 0xffffffed
    215c:	0b2c0e00 	bleq	b05964 <__PROGRAM_SIZE+0xafb960>
    2160:	0c010000 	stceq	0, cr0, [r1], {-0}
    2164:	00000b4f 	andeq	r0, r0, pc, asr #22
    2168:	0000008c 	andeq	r0, r0, ip, lsl #1
    216c:	02000000 	andeq	r0, r0, #0
    2170:	00000028 	andeq	r0, r0, r8, lsr #32
    2174:	01c39c01 	biceq	r9, r3, r1, lsl #24
    2178:	530f0000 	movwpl	r0, #61440	; 0xf000
    217c:	01004356 	tsteq	r0, r6, asr r3
    2180:	0001d70c 	andeq	sp, r1, ip, lsl #14
    2184:	000e1d00 	andeq	r1, lr, r0, lsl #26
    2188:	00140b00 	andseq	r0, r4, r0, lsl #22
    218c:	012e0200 	teqeq	lr, r0, lsl #4
    2190:	01b00000 	movseq	r0, r0
    2194:	010c0000 	mrseq	r0, (UNDEF: 12)
    2198:	bc030550 	cfstr32lt	mvfx0, [r3], {80}	; 0x50
    219c:	0002000b 	andeq	r0, r2, fp
    21a0:	00001810 	andeq	r1, r0, r0, lsl r8
    21a4:	00021d02 	andeq	r1, r2, r2, lsl #26
    21a8:	001c1000 	andseq	r1, ip, r0
    21ac:	02620200 	rsbeq	r0, r2, #0, 4
    21b0:	11000000 	mrsne	r0, (UNDEF: 0)
    21b4:	00000081 	andeq	r0, r0, r1, lsl #1
    21b8:	000001d7 	ldrdeq	r0, [r0], -r7
    21bc:	00008112 	andeq	r8, r0, r2, lsl r1
    21c0:	008c1200 	addeq	r1, ip, r0, lsl #4
    21c4:	06000000 	streq	r0, [r0], -r0
    21c8:	0001c304 	andeq	ip, r1, r4, lsl #6
    21cc:	0ad41300 	beq	ff506dd4 <__PROGRAM_END+0xfd4fcda8>
    21d0:	0a010000 	beq	421d8 <__PROGRAM_SIZE+0x381d4>
    21d4:	000001d7 	ldrdeq	r0, [r0], -r7
    21d8:	a0200305 	eorge	r0, r0, r5, lsl #6
    21dc:	c6140200 	ldrgt	r0, [r4], -r0, lsl #4
    21e0:	06000002 	streq	r0, [r0], -r2
    21e4:	0002291d 	andeq	r2, r2, sp, lsl r9
    21e8:	02e51500 	rsceq	r1, r5, #0, 10
    21ec:	33060000 	movwcc	r0, #24576	; 0x6000
    21f0:	00000257 	andeq	r0, r0, r7, asr r2
    21f4:	0000021d 	andeq	r0, r0, sp, lsl r2
    21f8:	00008e12 	andeq	r8, r0, r2, lsl lr
    21fc:	00251200 	eoreq	r1, r5, r0, lsl #4
    2200:	25120000 	ldrcs	r0, [r2, #-0]
    2204:	12000000 	andne	r0, r0, #0
    2208:	00000025 	andeq	r0, r0, r5, lsr #32
    220c:	0a901600 	beq	fe407a14 <__PROGRAM_END+0xfc3fd9e8>
    2210:	25060000 	strcs	r0, [r6, #-0]
    2214:	00000a7b 	andeq	r0, r0, fp, ror sl
    2218:	06f11500 	ldrbteq	r1, [r1], r0, lsl #10
    221c:	11050000 	mrsne	r0, (UNDEF: 5)
    2220:	0000071e 	andeq	r0, r0, lr, lsl r7
    2224:	0000023e 	andeq	r0, r0, lr, lsr r2
    2228:	00023e12 	andeq	r3, r2, r2, lsl lr
    222c:	04060000 	streq	r0, [r6], #-0
    2230:	000000b4 	strheq	r0, [r0], -r4
    2234:	0006e617 	andeq	lr, r6, r7, lsl r6
    2238:	bd100700 	ldclt	7, cr0, [r0, #-0]
    223c:	81000006 	tsthi	r0, r6
    2240:	62000000 	andvs	r0, r0, #0
    2244:	12000002 	andne	r0, r0, #2
    2248:	00000081 	andeq	r0, r0, r1, lsl #1
    224c:	00008c12 	andeq	r8, r0, r2, lsl ip
    2250:	34180000 	ldrcc	r0, [r8], #-0
    2254:	0100000b 	tsteq	r0, fp
    2258:	0001f806 	andeq	pc, r1, r6, lsl #16
    225c:	00008c00 	andeq	r8, r0, r0, lsl #24
	...

Disassembly of section .debug_abbrev:

00000000 <.debug_abbrev>:
   0:	25011101 	strcs	r1, [r1, #-257]	; 0xfffffeff
   4:	030b130e 	movweq	r1, #45838	; 0xb30e
   8:	110e1b0e 	tstne	lr, lr, lsl #22
   c:	10061201 	andne	r1, r6, r1, lsl #4
  10:	02000017 	andeq	r0, r0, #23
  14:	0b0b0024 	bleq	2c00ac <__PROGRAM_SIZE+0x2b60a8>
  18:	08030b3e 	stmdaeq	r3, {r1, r2, r3, r4, r5, r8, r9, fp}
  1c:	24030000 	strcs	r0, [r3], #-0
  20:	3e0b0b00 	vmlacc.f64	d0, d11, d0
  24:	000e030b 	andeq	r0, lr, fp, lsl #6
  28:	00160400 	andseq	r0, r6, r0, lsl #8
  2c:	0b3a0e03 	bleq	e83840 <__PROGRAM_SIZE+0xe7983c>
  30:	13490b3b 	movtne	r0, #39739	; 0x9b3b
  34:	13050000 	movwne	r0, #20480	; 0x5000
  38:	0b0e0301 	bleq	380c44 <__PROGRAM_SIZE+0x376c40>
  3c:	3b0b3a0b 	blcc	2ce870 <__PROGRAM_SIZE+0x2c486c>
  40:	0013010b 	andseq	r0, r3, fp, lsl #2
  44:	000d0600 	andeq	r0, sp, r0, lsl #12
  48:	0b3a0803 	bleq	e8205c <__PROGRAM_SIZE+0xe78058>
  4c:	13490b3b 	movtne	r0, #39739	; 0x9b3b
  50:	00000b38 	andeq	r0, r0, r8, lsr fp
  54:	03010207 	movweq	r0, #4615	; 0x1207
  58:	3a050b0e 	bcc	142c98 <__PROGRAM_SIZE+0x138c94>
  5c:	010b3b0b 	tsteq	fp, fp, lsl #22
  60:	08000013 	stmdaeq	r0, {r0, r1, r4}
  64:	0e03000d 	cdpeq	0, 0, cr0, cr3, cr13, {0}
  68:	0b3b0b3a 	bleq	ec2d58 <__PROGRAM_SIZE+0xeb8d54>
  6c:	0b381349 	bleq	e04d98 <__PROGRAM_SIZE+0xdfad94>
  70:	00000b32 	andeq	r0, r0, r2, lsr fp
  74:	03000d09 	movweq	r0, #3337	; 0xd09
  78:	3b0b3a0e 	blcc	2ce8b8 <__PROGRAM_SIZE+0x2c48b4>
  7c:	3813490b 	ldmdacc	r3, {r0, r1, r3, r8, fp, lr}
  80:	000b3205 	andeq	r3, fp, r5, lsl #4
  84:	012e0a00 	teqeq	lr, r0, lsl #20
  88:	0e03193f 	mcreq	9, 0, r1, cr3, cr15, {1}
  8c:	0b3b0b3a 	bleq	ec2d7c <__PROGRAM_SIZE+0xeb8d78>
  90:	13490e6e 	movtne	r0, #40558	; 0x9e6e
  94:	193c0b32 	ldmdbne	ip!, {r1, r4, r5, r8, r9, fp}
  98:	00001364 	andeq	r1, r0, r4, ror #6
  9c:	4900050b 	stmdbmi	r0, {r0, r1, r3, r8, sl}
  a0:	00193413 	andseq	r3, r9, r3, lsl r4
  a4:	01010c00 	tsteq	r1, r0, lsl #24
  a8:	13011349 	movwne	r1, #4937	; 0x1349
  ac:	210d0000 	mrscs	r0, (UNDEF: 13)
  b0:	2f134900 	svccs	0x00134900
  b4:	0e000005 	cdpeq	0, 0, cr0, cr0, cr5, {0}
  b8:	0b0b000f 	bleq	2c00fc <__PROGRAM_SIZE+0x2b60f8>
  bc:	00001349 	andeq	r1, r0, r9, asr #6
  c0:	47012e0f 	strmi	r2, [r1, -pc, lsl #28]
  c4:	3b0b3a13 	blcc	2ce918 <__PROGRAM_SIZE+0x2c4914>
  c8:	640b200b 	strvs	r2, [fp], #-11
  cc:	00130113 	andseq	r0, r3, r3, lsl r1
  d0:	00051000 	andeq	r1, r5, r0
  d4:	13490e03 	movtne	r0, #40451	; 0x9e03
  d8:	00001934 	andeq	r1, r0, r4, lsr r9
  dc:	49002611 	stmdbmi	r0, {r0, r4, r9, sl, sp}
  e0:	12000013 	andne	r0, r0, #19
  e4:	1331012e 	teqne	r1, #-2147483637	; 0x8000000b
  e8:	01110e6e 	tsteq	r1, lr, ror #28
  ec:	18400612 	stmdane	r0, {r1, r4, r9, sl}^
  f0:	42971364 	addsmi	r1, r7, #100, 6	; 0x90000001
  f4:	00130119 	andseq	r0, r3, r9, lsl r1
  f8:	00051300 	andeq	r1, r5, r0, lsl #6
  fc:	17021331 	smladxne	r2, r1, r3, r1
 100:	89140000 	ldmdbhi	r4, {}	; <UNPREDICTABLE>
 104:	11010182 	smlabbne	r1, r2, r1, r0
 108:	00133101 	andseq	r3, r3, r1, lsl #2
 10c:	828a1500 	addhi	r1, sl, #0, 10
 110:	18020001 	stmdane	r2, {r0}
 114:	00184291 	mulseq	r8, r1, r2
 118:	012e1600 	teqeq	lr, r0, lsl #12
 11c:	0e03193f 	mcreq	9, 0, r1, cr3, cr15, {1}
 120:	0b3b0b3a 	bleq	ec2e10 <__PROGRAM_SIZE+0xeb8e0c>
 124:	193c0e6e 	ldmdbne	ip!, {r1, r2, r3, r5, r6, r9, sl, fp}
 128:	00001301 	andeq	r1, r0, r1, lsl #6
 12c:	49000517 	stmdbmi	r0, {r0, r1, r2, r4, r8, sl}
 130:	00000013 	andeq	r0, r0, r3, lsl r0
 134:	25011101 	strcs	r1, [r1, #-257]	; 0xfffffeff
 138:	030b130e 	movweq	r1, #45838	; 0xb30e
 13c:	110e1b0e 	tstne	lr, lr, lsl #22
 140:	10061201 	andne	r1, r6, r1, lsl #4
 144:	02000017 	andeq	r0, r0, #23
 148:	0b0b0024 	bleq	2c01e0 <__PROGRAM_SIZE+0x2b61dc>
 14c:	08030b3e 	stmdaeq	r3, {r1, r2, r3, r4, r5, r8, r9, fp}
 150:	24030000 	strcs	r0, [r3], #-0
 154:	3e0b0b00 	vmlacc.f64	d0, d11, d0
 158:	000e030b 	andeq	r0, lr, fp, lsl #6
 15c:	00160400 	andseq	r0, r6, r0, lsl #8
 160:	0b3a0e03 	bleq	e83974 <__PROGRAM_SIZE+0xe79970>
 164:	13490b3b 	movtne	r0, #39739	; 0x9b3b
 168:	0f050000 	svceq	0x00050000
 16c:	490b0b00 	stmdbmi	fp, {r8, r9, fp}
 170:	06000013 			; <UNDEFINED> instruction: 0x06000013
 174:	0b0b0113 	bleq	2c05c8 <__PROGRAM_SIZE+0x2b65c4>
 178:	0b3b0b3a 	bleq	ec2e68 <__PROGRAM_SIZE+0xeb8e64>
 17c:	13010e6e 	movwne	r0, #7790	; 0x1e6e
 180:	0d070000 	stceq	0, cr0, [r7, #-0]
 184:	3a0e0300 	bcc	380d8c <__PROGRAM_SIZE+0x376d88>
 188:	490b3b0b 	stmdbmi	fp, {r0, r1, r3, r8, r9, fp, ip, sp}
 18c:	000b3813 	andeq	r3, fp, r3, lsl r8
 190:	01130800 	tsteq	r3, r0, lsl #16
 194:	0b0b0e03 	bleq	2c39a8 <__PROGRAM_SIZE+0x2b99a4>
 198:	0b3b0b3a 	bleq	ec2e88 <__PROGRAM_SIZE+0xeb8e84>
 19c:	00001301 	andeq	r1, r0, r1, lsl #6
 1a0:	03000d09 	movweq	r0, #3337	; 0xd09
 1a4:	3b0b3a08 	blcc	2ce9cc <__PROGRAM_SIZE+0x2c49c8>
 1a8:	3813490b 	ldmdacc	r3, {r0, r1, r3, r8, fp, lr}
 1ac:	0a00000b 	beq	1e0 <__PROGRAM_SIZE-0x9e24>
 1b0:	0e030102 	adfeqs	f0, f3, f2
 1b4:	0b3a050b 	bleq	e815e8 <__PROGRAM_SIZE+0xe775e4>
 1b8:	13010b3b 	movwne	r0, #6971	; 0x1b3b
 1bc:	0d0b0000 	stceq	0, cr0, [fp, #-0]
 1c0:	3a0e0300 	bcc	380dc8 <__PROGRAM_SIZE+0x376dc4>
 1c4:	490b3b0b 	stmdbmi	fp, {r0, r1, r3, r8, r9, fp, ip, sp}
 1c8:	320b3813 	andcc	r3, fp, #1245184	; 0x130000
 1cc:	0c00000b 	stceq	0, cr0, [r0], {11}
 1d0:	0e03000d 	cdpeq	0, 0, cr0, cr3, cr13, {0}
 1d4:	0b3b0b3a 	bleq	ec2ec4 <__PROGRAM_SIZE+0xeb8ec0>
 1d8:	05381349 	ldreq	r1, [r8, #-841]!	; 0xfffffcb7
 1dc:	00000b32 	andeq	r0, r0, r2, lsr fp
 1e0:	3f012e0d 	svccc	0x00012e0d
 1e4:	3a0e0319 	bcc	380e50 <__PROGRAM_SIZE+0x376e4c>
 1e8:	6e0b3b0b 	vmlavs.f64	d3, d11, d11
 1ec:	3213490e 	andscc	r4, r3, #229376	; 0x38000
 1f0:	64193c0b 	ldrvs	r3, [r9], #-3083	; 0xfffff3f5
 1f4:	0e000013 	mcreq	0, 0, r0, cr0, cr3, {0}
 1f8:	13490005 	movtne	r0, #36869	; 0x9005
 1fc:	00001934 	andeq	r1, r0, r4, lsr r9
 200:	4901010f 	stmdbmi	r1, {r0, r1, r2, r3, r8}
 204:	00130113 	andseq	r0, r3, r3, lsl r1
 208:	00211000 	eoreq	r1, r1, r0
 20c:	052f1349 	streq	r1, [pc, #-841]!	; fffffecb <__PROGRAM_END+0xfdff5e9f>
 210:	2e110000 	cdpcs	0, 1, cr0, cr1, cr0, {0}
 214:	03193f01 	tsteq	r9, #1, 30
 218:	3b0b3a0e 	blcc	2cea58 <__PROGRAM_SIZE+0x2c4a54>
 21c:	110e6e0b 	tstne	lr, fp, lsl #28
 220:	40061201 	andmi	r1, r6, r1, lsl #4
 224:	19429718 	stmdbne	r2, {r3, r4, r8, r9, sl, ip, pc}^
 228:	00001301 	andeq	r1, r0, r1, lsl #6
 22c:	03000512 	movweq	r0, #1298	; 0x512
 230:	3b0b3a0e 	blcc	2cea70 <__PROGRAM_SIZE+0x2c4a6c>
 234:	0213490b 	andseq	r4, r3, #180224	; 0x2c000
 238:	13000018 	movwne	r0, #24
 23c:	193f012e 	ldmdbne	pc!, {r1, r2, r3, r5, r8}	; <UNPREDICTABLE>
 240:	0b3a0e03 	bleq	e83a54 <__PROGRAM_SIZE+0xe79a50>
 244:	0e6e0b3b 	vmoveq.8	d14[5], r0
 248:	01111349 	tsteq	r1, r9, asr #6
 24c:	18400612 	stmdane	r0, {r1, r4, r9, sl}^
 250:	01194297 			; <UNDEFINED> instruction: 0x01194297
 254:	14000013 	strne	r0, [r0], #-19	; 0xffffffed
 258:	08030034 	stmdaeq	r3, {r2, r4, r5}
 25c:	0b3b0b3a 	bleq	ec2f4c <__PROGRAM_SIZE+0xeb8f48>
 260:	18021349 	stmdane	r2, {r0, r3, r6, r8, r9, ip}
 264:	34150000 	ldrcc	r0, [r5], #-0
 268:	3a080300 	bcc	200e70 <__PROGRAM_SIZE+0x1f6e6c>
 26c:	490b3b0b 	stmdbmi	fp, {r0, r1, r3, r8, r9, fp, ip, sp}
 270:	00170213 	andseq	r0, r7, r3, lsl r2
 274:	010b1600 	tsteq	fp, r0, lsl #12
 278:	13011755 	movwne	r1, #5973	; 0x1755
 27c:	89170000 	ldmdbhi	r7, {}	; <UNPREDICTABLE>
 280:	11010182 	smlabbne	r1, r2, r1, r0
 284:	00133101 	andseq	r3, r3, r1, lsl #2
 288:	828a1800 	addhi	r1, sl, #0, 16
 28c:	18020001 	stmdane	r2, {r0}
 290:	00184291 	mulseq	r8, r1, r2
 294:	010b1900 	tsteq	fp, r0, lsl #18
 298:	06120111 			; <UNDEFINED> instruction: 0x06120111
 29c:	00001301 	andeq	r1, r0, r1, lsl #6
 2a0:	0182891a 	orreq	r8, r2, sl, lsl r9
 2a4:	01011101 	tsteq	r1, r1, lsl #2
 2a8:	1b000013 	blne	2fc <__PROGRAM_SIZE-0x9d08>
 2ac:	01018289 	smlabbeq	r1, r9, r2, r8
 2b0:	13310111 	teqne	r1, #1073741828	; 0x40000004
 2b4:	00001301 	andeq	r1, r0, r1, lsl #6
 2b8:	0182891c 	orreq	r8, r2, ip, lsl r9
 2bc:	31011100 	mrscc	r1, (UNDEF: 17)
 2c0:	1d000013 	stcne	0, cr0, [r0, #-76]	; 0xffffffb4
 2c4:	0b0b000f 	bleq	2c0308 <__PROGRAM_SIZE+0x2b6304>
 2c8:	211e0000 	tstcs	lr, r0
 2cc:	2f134900 	svccs	0x00134900
 2d0:	1f00000b 	svcne	0x0000000b
 2d4:	0e03012e 	adfeqsp	f0, f3, #0.5
 2d8:	0b201934 	bleq	8067b0 <__PROGRAM_SIZE+0x7fc7ac>
 2dc:	00001301 	andeq	r1, r0, r1, lsl #6
 2e0:	03000520 	movweq	r0, #1312	; 0x520
 2e4:	3b0b3a0e 	blcc	2ceb24 <__PROGRAM_SIZE+0x2c4b20>
 2e8:	0013490b 	andseq	r4, r3, fp, lsl #18
 2ec:	012e2100 	teqeq	lr, r0, lsl #2
 2f0:	19340e03 	ldmdbne	r4!, {r0, r1, r9, sl, fp}
 2f4:	06120111 			; <UNDEFINED> instruction: 0x06120111
 2f8:	42971840 	addsmi	r1, r7, #64, 16	; 0x400000
 2fc:	00130119 	andseq	r0, r3, r9, lsl r1
 300:	011d2200 	tsteq	sp, r0, lsl #4
 304:	01111331 	tsteq	r1, r1, lsr r3
 308:	0b580612 	bleq	1601b58 <__PROGRAM_SIZE+0x15f7b54>
 30c:	00000b59 	andeq	r0, r0, r9, asr fp
 310:	31000523 	tstcc	r0, r3, lsr #10
 314:	00051c13 	andeq	r1, r5, r3, lsl ip
 318:	00052400 	andeq	r2, r5, r0, lsl #8
 31c:	0b1c1331 	bleq	704fe8 <__PROGRAM_SIZE+0x6fafe4>
 320:	89250000 	stmdbhi	r5!, {}	; <UNPREDICTABLE>
 324:	11010182 	smlabbne	r1, r2, r1, r0
 328:	26000001 	strcs	r0, [r0], -r1
 32c:	0e030034 	mcreq	0, 0, r0, cr3, cr4, {1}
 330:	0b3b0b3a 	bleq	ec3020 <__PROGRAM_SIZE+0xeb901c>
 334:	193f1349 	ldmdbne	pc!, {r0, r3, r6, r8, r9, ip}	; <UNPREDICTABLE>
 338:	00001802 	andeq	r1, r0, r2, lsl #16
 33c:	49003527 	stmdbmi	r0, {r0, r1, r2, r5, r8, sl, ip, sp}
 340:	28000013 	stmdacs	r0, {r0, r1, r4}
 344:	193f012e 	ldmdbne	pc!, {r1, r2, r3, r5, r8}	; <UNPREDICTABLE>
 348:	0b3a0e03 	bleq	e83b5c <__PROGRAM_SIZE+0xe79b58>
 34c:	0e6e0b3b 	vmoveq.8	d14[5], r0
 350:	1301193c 	movwne	r1, #6460	; 0x193c
 354:	05290000 	streq	r0, [r9, #-0]!
 358:	00134900 	andseq	r4, r3, r0, lsl #18
 35c:	012e2a00 	teqeq	lr, r0, lsl #20
 360:	0e03193f 	mcreq	9, 0, r1, cr3, cr15, {1}
 364:	19341349 	ldmdbne	r4!, {r0, r3, r6, r8, r9, ip}
 368:	1301193c 	movwne	r1, #6460	; 0x193c
 36c:	262b0000 	strtcs	r0, [fp], -r0
 370:	2c000000 	stccs	0, cr0, [r0], {-0}
 374:	13010115 	movwne	r0, #4373	; 0x1115
 378:	2e2d0000 	cdpcs	0, 2, cr0, cr13, cr0, {0}
 37c:	03193f01 	tsteq	r9, #1, 30
 380:	3b0b3a0e 	blcc	2cebc0 <__PROGRAM_SIZE+0x2c4bbc>
 384:	490e6e0b 	stmdbmi	lr, {r0, r1, r3, r9, sl, fp, sp, lr}
 388:	01193c13 	tsteq	r9, r3, lsl ip
 38c:	2e000013 	mcrcs	0, 0, r0, cr0, cr3, {0}
 390:	00000018 	andeq	r0, r0, r8, lsl r0
 394:	0301392f 	movweq	r3, #6447	; 0x192f
 398:	3b0b3a0e 	blcc	2cebd8 <__PROGRAM_SIZE+0x2c4bd4>
 39c:	0013010b 	andseq	r0, r3, fp, lsl #2
 3a0:	012e3000 	teqeq	lr, r0
 3a4:	0e03193f 	mcreq	9, 0, r1, cr3, cr15, {1}
 3a8:	0b3b0b3a 	bleq	ec3098 <__PROGRAM_SIZE+0xeb9094>
 3ac:	193c0e6e 	ldmdbne	ip!, {r1, r2, r3, r5, r6, r9, sl, fp}
 3b0:	2e310000 	cdpcs	0, 3, cr0, cr1, cr0, {0}
 3b4:	03193f00 	tsteq	r9, #0, 30
 3b8:	3b0b3a0e 	blcc	2cebf8 <__PROGRAM_SIZE+0x2c4bf4>
 3bc:	490e6e0b 	stmdbmi	lr, {r0, r1, r3, r9, sl, fp, sp, lr}
 3c0:	00193c13 	andseq	r3, r9, r3, lsl ip
 3c4:	11010000 	mrsne	r0, (UNDEF: 1)
 3c8:	130e2501 	movwne	r2, #58625	; 0xe501
 3cc:	1b0e030b 	blne	381000 <__PROGRAM_SIZE+0x376ffc>
 3d0:	1201110e 	andne	r1, r1, #-2147483645	; 0x80000003
 3d4:	00171006 	andseq	r1, r7, r6
 3d8:	00240200 	eoreq	r0, r4, r0, lsl #4
 3dc:	0b3e0b0b 	bleq	f83010 <__PROGRAM_SIZE+0xf7900c>
 3e0:	00000803 	andeq	r0, r0, r3, lsl #16
 3e4:	0b002403 	bleq	93f8 <__PROGRAM_SIZE-0xc0c>
 3e8:	030b3e0b 	movweq	r3, #48651	; 0xbe0b
 3ec:	0400000e 	streq	r0, [r0], #-14
 3f0:	0e030016 	mcreq	0, 0, r0, cr3, cr6, {0}
 3f4:	0b3b0b3a 	bleq	ec30e4 <__PROGRAM_SIZE+0xeb90e0>
 3f8:	00001349 	andeq	r1, r0, r9, asr #6
 3fc:	3f012e05 	svccc	0x00012e05
 400:	3a0e0319 	bcc	38106c <__PROGRAM_SIZE+0x377068>
 404:	6e0b3b0b 	vmlavs.f64	d3, d11, d11
 408:	1201110e 	andne	r1, r1, #-2147483645	; 0x80000003
 40c:	97184006 	ldrls	r4, [r8, -r6]
 410:	13011942 	movwne	r1, #6466	; 0x1942
 414:	05060000 	streq	r0, [r6, #-0]
 418:	3a080300 	bcc	201020 <__PROGRAM_SIZE+0x1f701c>
 41c:	490b3b0b 	stmdbmi	fp, {r0, r1, r3, r8, r9, fp, ip, sp}
 420:	00170213 	andseq	r0, r7, r3, lsl r2
 424:	00050700 	andeq	r0, r5, r0, lsl #14
 428:	0b3a0e03 	bleq	e83c3c <__PROGRAM_SIZE+0xe79c38>
 42c:	13490b3b 	movtne	r0, #39739	; 0x9b3b
 430:	00001702 	andeq	r1, r0, r2, lsl #14
 434:	11010b08 	tstne	r1, r8, lsl #22
 438:	00061201 	andeq	r1, r6, r1, lsl #4
 43c:	00340900 	eorseq	r0, r4, r0, lsl #18
 440:	0b3a0e03 	bleq	e83c54 <__PROGRAM_SIZE+0xe79c50>
 444:	13490b3b 	movtne	r0, #39739	; 0x9b3b
 448:	00001802 	andeq	r1, r0, r2, lsl #16
 44c:	0182890a 	orreq	r8, r2, sl, lsl #18
 450:	31011100 	mrscc	r1, (UNDEF: 17)
 454:	0b000013 	bleq	4a8 <__PROGRAM_SIZE-0x9b5c>
 458:	01018289 	smlabbeq	r1, r9, r2, r8
 45c:	13310111 	teqne	r1, #1073741828	; 0x40000004
 460:	8a0c0000 	bhi	300468 <__PROGRAM_SIZE+0x2f6464>
 464:	02000182 	andeq	r0, r0, #-2147483616	; 0x80000020
 468:	18429118 	stmdane	r2, {r3, r4, r8, ip, pc}^
 46c:	390d0000 	stmdbcc	sp, {}	; <UNPREDICTABLE>
 470:	3a0e0301 	bcc	38107c <__PROGRAM_SIZE+0x377078>
 474:	000b3b0b 	andeq	r3, fp, fp, lsl #22
 478:	012e0e00 	teqeq	lr, r0, lsl #28
 47c:	0e03193f 	mcreq	9, 0, r1, cr3, cr15, {1}
 480:	0b3b0b3a 	bleq	ec3170 <__PROGRAM_SIZE+0xeb916c>
 484:	193c0e6e 	ldmdbne	ip!, {r1, r2, r3, r5, r6, r9, sl, fp}
 488:	00001301 	andeq	r1, r0, r1, lsl #6
 48c:	4900050f 	stmdbmi	r0, {r0, r1, r2, r3, r8, sl}
 490:	10000013 	andne	r0, r0, r3, lsl r0
 494:	193f012e 	ldmdbne	pc!, {r1, r2, r3, r5, r8}	; <UNPREDICTABLE>
 498:	0b3a0e03 	bleq	e83cac <__PROGRAM_SIZE+0xe79ca8>
 49c:	0e6e0b3b 	vmoveq.8	d14[5], r0
 4a0:	0000193c 	andeq	r1, r0, ip, lsr r9
 4a4:	01110100 	tsteq	r1, r0, lsl #2
 4a8:	0b130e25 	bleq	4c3d44 <__PROGRAM_SIZE+0x4b9d40>
 4ac:	0e1b0e03 	cdpeq	14, 1, cr0, cr11, cr3, {0}
 4b0:	06120111 			; <UNDEFINED> instruction: 0x06120111
 4b4:	00001710 	andeq	r1, r0, r0, lsl r7
 4b8:	0b002402 	bleq	94c8 <__PROGRAM_SIZE-0xb3c>
 4bc:	030b3e0b 	movweq	r3, #48651	; 0xbe0b
 4c0:	0300000e 	movweq	r0, #14
 4c4:	0b0b0024 	bleq	2c055c <__PROGRAM_SIZE+0x2b6558>
 4c8:	08030b3e 	stmdaeq	r3, {r1, r2, r3, r4, r5, r8, r9, fp}
 4cc:	16040000 	strne	r0, [r4], -r0
 4d0:	3a0e0300 	bcc	3810d8 <__PROGRAM_SIZE+0x3770d4>
 4d4:	490b3b0b 	stmdbmi	fp, {r0, r1, r3, r8, r9, fp, ip, sp}
 4d8:	05000013 	streq	r0, [r0, #-19]	; 0xffffffed
 4dc:	0b0b000f 	bleq	2c0520 <__PROGRAM_SIZE+0x2b651c>
 4e0:	00001349 	andeq	r1, r0, r9, asr #6
 4e4:	03011306 	movweq	r1, #4870	; 0x1306
 4e8:	3a0b0b0e 	bcc	2c3128 <__PROGRAM_SIZE+0x2b9124>
 4ec:	010b3b0b 	tsteq	fp, fp, lsl #22
 4f0:	07000013 	smladeq	r0, r3, r0, r0
 4f4:	0e03000d 	cdpeq	0, 0, cr0, cr3, cr13, {0}
 4f8:	0b381349 	bleq	e05224 <__PROGRAM_SIZE+0xdfb220>
 4fc:	00001934 	andeq	r1, r0, r4, lsr r9
 500:	0b000f08 	bleq	4128 <__PROGRAM_SIZE-0x5edc>
 504:	0900000b 	stmdbeq	r0, {r0, r1, r3}
 508:	193f012e 	ldmdbne	pc!, {r1, r2, r3, r5, r8}	; <UNPREDICTABLE>
 50c:	0b3a0e03 	bleq	e83d20 <__PROGRAM_SIZE+0xe79d1c>
 510:	0e6e0b3b 	vmoveq.8	d14[5], r0
 514:	01111349 	tsteq	r1, r9, asr #6
 518:	18400612 	stmdane	r0, {r1, r4, r9, sl}^
 51c:	01194297 			; <UNDEFINED> instruction: 0x01194297
 520:	0a000013 	beq	574 <__PROGRAM_SIZE-0x9a90>
 524:	0e030005 	cdpeq	0, 0, cr0, cr3, cr5, {0}
 528:	0b3b0b3a 	bleq	ec3218 <__PROGRAM_SIZE+0xeb9214>
 52c:	17021349 	strne	r1, [r2, -r9, asr #6]
 530:	340b0000 	strcc	r0, [fp], #-0
 534:	3a0e0300 	bcc	38113c <__PROGRAM_SIZE+0x377138>
 538:	490b3b0b 	stmdbmi	fp, {r0, r1, r3, r8, r9, fp, ip, sp}
 53c:	00170213 	andseq	r0, r7, r3, lsl r2
 540:	012e0c00 	teqeq	lr, r0, lsl #24
 544:	0e03193f 	mcreq	9, 0, r1, cr3, cr15, {1}
 548:	0b3b0b3a 	bleq	ec3238 <__PROGRAM_SIZE+0xeb9234>
 54c:	01110e6e 	tsteq	r1, lr, ror #28
 550:	18400612 	stmdane	r0, {r1, r4, r9, sl}^
 554:	01194297 			; <UNDEFINED> instruction: 0x01194297
 558:	0d000013 	stceq	0, cr0, [r0, #-76]	; 0xffffffb4
 55c:	01018289 	smlabbeq	r1, r9, r2, r8
 560:	13310111 	teqne	r1, #1073741828	; 0x40000004
 564:	00001301 	andeq	r1, r0, r1, lsl #6
 568:	01828a0e 	orreq	r8, r2, lr, lsl #20
 56c:	91180200 	tstls	r8, r0, lsl #4
 570:	00001842 	andeq	r1, r0, r2, asr #16
 574:	0182890f 	orreq	r8, r2, pc, lsl #18
 578:	31011101 	tstcc	r1, r1, lsl #2
 57c:	10000013 	andne	r0, r0, r3, lsl r0
 580:	1755010b 	ldrbne	r0, [r5, -fp, lsl #2]
 584:	00001301 	andeq	r1, r0, r1, lsl #6
 588:	03003411 	movweq	r3, #1041	; 0x411
 58c:	3b0b3a08 	blcc	2cedb4 <__PROGRAM_SIZE+0x2c4db0>
 590:	0213490b 	andseq	r4, r3, #180224	; 0x2c000
 594:	12000017 	andne	r0, r0, #23
 598:	193f012e 	ldmdbne	pc!, {r1, r2, r3, r5, r8}	; <UNPREDICTABLE>
 59c:	0b3a0e03 	bleq	e83db0 <__PROGRAM_SIZE+0xe79dac>
 5a0:	0e6e0b3b 	vmoveq.8	d14[5], r0
 5a4:	01111349 	tsteq	r1, r9, asr #6
 5a8:	18400612 	stmdane	r0, {r1, r4, r9, sl}^
 5ac:	01194296 			; <UNDEFINED> instruction: 0x01194296
 5b0:	13000013 	movwne	r0, #19
 5b4:	08030034 	stmdaeq	r3, {r2, r4, r5}
 5b8:	0b3b0b3a 	bleq	ec32a8 <__PROGRAM_SIZE+0xeb92a4>
 5bc:	18021349 	stmdane	r2, {r0, r3, r6, r8, r9, ip}
 5c0:	01140000 	tsteq	r4, r0
 5c4:	01134901 	tsteq	r3, r1, lsl #18
 5c8:	15000013 	strne	r0, [r0, #-19]	; 0xffffffed
 5cc:	13490021 	movtne	r0, #36897	; 0x9021
 5d0:	00000b2f 	andeq	r0, r0, pc, lsr #22
 5d4:	49002616 	stmdbmi	r0, {r1, r2, r4, r9, sl, sp}
 5d8:	17000013 	smladne	r0, r3, r0, r0
 5dc:	0e030005 	cdpeq	0, 0, cr0, cr3, cr5, {0}
 5e0:	0b3b0b3a 	bleq	ec32d0 <__PROGRAM_SIZE+0xeb92cc>
 5e4:	18021349 	stmdane	r2, {r0, r3, r6, r8, r9, ip}
 5e8:	18180000 	ldmdane	r8, {}	; <UNPREDICTABLE>
 5ec:	19000000 	stmdbne	r0, {}	; <UNPREDICTABLE>
 5f0:	0e030034 	mcreq	0, 0, r0, cr3, cr4, {1}
 5f4:	0b3b0b3a 	bleq	ec32e4 <__PROGRAM_SIZE+0xeb92e0>
 5f8:	18021349 	stmdane	r2, {r0, r3, r6, r8, r9, ip}
 5fc:	0b1a0000 	bleq	680604 <__PROGRAM_SIZE+0x676600>
 600:	00175501 	andseq	r5, r7, r1, lsl #10
 604:	82891b00 	addhi	r1, r9, #0, 22
 608:	01110001 	tsteq	r1, r1
 60c:	00001331 	andeq	r1, r0, r1, lsr r3
 610:	3f012e1c 	svccc	0x00012e1c
 614:	3a0e0319 	bcc	381280 <__PROGRAM_SIZE+0x37727c>
 618:	6e0b3b0b 	vmlavs.f64	d3, d11, d11
 61c:	3c13490e 	ldccc	9, cr4, [r3], {14}
 620:	1d000019 	stcne	0, cr0, [r0, #-100]	; 0xffffff9c
 624:	13490005 	movtne	r0, #36869	; 0x9005
 628:	01000000 	mrseq	r0, (UNDEF: 0)
 62c:	06100011 			; <UNDEFINED> instruction: 0x06100011
 630:	01120111 	tsteq	r2, r1, lsl r1
 634:	081b0803 	ldmdaeq	fp, {r0, r1, fp}
 638:	05130825 	ldreq	r0, [r3, #-2085]	; 0xfffff7db
 63c:	01000000 	mrseq	r0, (UNDEF: 0)
 640:	0e250111 	mcreq	1, 1, r0, cr5, cr1, {0}
 644:	0e030b13 	vmoveq.32	d3[0], r0
 648:	17550e1b 	smmlane	r5, fp, lr, r0
 64c:	17100111 			; <UNDEFINED> instruction: 0x17100111
 650:	24020000 	strcs	r0, [r2], #-0
 654:	3e0b0b00 	vmlacc.f64	d0, d11, d0
 658:	0008030b 	andeq	r0, r8, fp, lsl #6
 65c:	00240300 	eoreq	r0, r4, r0, lsl #6
 660:	0b3e0b0b 	bleq	f83294 <__PROGRAM_SIZE+0xf79290>
 664:	00000e03 	andeq	r0, r0, r3, lsl #28
 668:	3f012e04 	svccc	0x00012e04
 66c:	3a0e0319 	bcc	3812d8 <__PROGRAM_SIZE+0x3772d4>
 670:	6e0b3b0b 	vmlavs.f64	d3, d11, d11
 674:	1201110e 	andne	r1, r1, #-2147483645	; 0x80000003
 678:	97184006 	ldrls	r4, [r8, -r6]
 67c:	13011942 	movwne	r1, #6466	; 0x1942
 680:	05050000 	streq	r0, [r5, #-0]
 684:	3a0e0300 	bcc	38128c <__PROGRAM_SIZE+0x377288>
 688:	490b3b0b 	stmdbmi	fp, {r0, r1, r3, r8, r9, fp, ip, sp}
 68c:	00170213 	andseq	r0, r7, r3, lsl r2
 690:	00050600 	andeq	r0, r5, r0, lsl #12
 694:	0b3a0e03 	bleq	e83ea8 <__PROGRAM_SIZE+0xe79ea4>
 698:	13490b3b 	movtne	r0, #39739	; 0x9b3b
 69c:	00001802 	andeq	r1, r0, r2, lsl #16
 6a0:	03003407 	movweq	r3, #1031	; 0x407
 6a4:	3b0b3a0e 	blcc	2ceee4 <__PROGRAM_SIZE+0x2c4ee0>
 6a8:	0213490b 	andseq	r4, r3, #180224	; 0x2c000
 6ac:	08000018 	stmdaeq	r0, {r3, r4}
 6b0:	0b0b000f 	bleq	2c06f4 <__PROGRAM_SIZE+0x2b66f0>
 6b4:	0f090000 	svceq	0x00090000
 6b8:	490b0b00 	stmdbmi	fp, {r8, r9, fp}
 6bc:	0a000013 	beq	710 <__PROGRAM_SIZE-0x98f4>
 6c0:	193f012e 	ldmdbne	pc!, {r1, r2, r3, r5, r8}	; <UNPREDICTABLE>
 6c4:	0b3a0e03 	bleq	e83ed8 <__PROGRAM_SIZE+0xe79ed4>
 6c8:	0e6e0b3b 	vmoveq.8	d14[5], r0
 6cc:	01111349 	tsteq	r1, r9, asr #6
 6d0:	18400612 	stmdane	r0, {r1, r4, r9, sl}^
 6d4:	01194297 			; <UNDEFINED> instruction: 0x01194297
 6d8:	0b000013 	bleq	72c <__PROGRAM_SIZE-0x98d8>
 6dc:	0e030034 	mcreq	0, 0, r0, cr3, cr4, {1}
 6e0:	0b3b0b3a 	bleq	ec33d0 <__PROGRAM_SIZE+0xeb93cc>
 6e4:	17021349 	strne	r1, [r2, -r9, asr #6]
 6e8:	2e0c0000 	cdpcs	0, 0, cr0, cr12, cr0, {0}
 6ec:	03193f01 	tsteq	r9, #1, 30
 6f0:	3b0b3a0e 	blcc	2cef30 <__PROGRAM_SIZE+0x2c4f2c>
 6f4:	490e6e0b 	stmdbmi	lr, {r0, r1, r3, r9, sl, fp, sp, lr}
 6f8:	12011113 	andne	r1, r1, #-1073741820	; 0xc0000004
 6fc:	97184006 	ldrls	r4, [r8, -r6]
 700:	00001942 	andeq	r1, r0, r2, asr #18
 704:	01110100 	tsteq	r1, r0, lsl #2
 708:	0b130e25 	bleq	4c3fa4 <__PROGRAM_SIZE+0x4b9fa0>
 70c:	0e1b0e03 	cdpeq	14, 1, cr0, cr11, cr3, {0}
 710:	06120111 			; <UNDEFINED> instruction: 0x06120111
 714:	00001710 	andeq	r1, r0, r0, lsl r7
 718:	0b002402 	bleq	9728 <__PROGRAM_SIZE-0x8dc>
 71c:	030b3e0b 	movweq	r3, #48651	; 0xbe0b
 720:	03000008 	movweq	r0, #8
 724:	0b0b0024 	bleq	2c07bc <__PROGRAM_SIZE+0x2b67b8>
 728:	0e030b3e 	vmoveq.16	d3[0], r0
 72c:	16040000 	strne	r0, [r4], -r0
 730:	3a0e0300 	bcc	381338 <__PROGRAM_SIZE+0x377334>
 734:	490b3b0b 	stmdbmi	fp, {r0, r1, r3, r8, r9, fp, ip, sp}
 738:	05000013 	streq	r0, [r0, #-19]	; 0xffffffed
 73c:	0b0b000f 	bleq	2c0780 <__PROGRAM_SIZE+0x2b677c>
 740:	13060000 	movwne	r0, #24576	; 0x6000
 744:	3a0b0b01 	bcc	2c3350 <__PROGRAM_SIZE+0x2b934c>
 748:	6e0b3b0b 	vmlavs.f64	d3, d11, d11
 74c:	0013010e 	andseq	r0, r3, lr, lsl #2
 750:	000d0700 	andeq	r0, sp, r0, lsl #14
 754:	0b3a0e03 	bleq	e83f68 <__PROGRAM_SIZE+0xe79f64>
 758:	13490b3b 	movtne	r0, #39739	; 0x9b3b
 75c:	00000b38 	andeq	r0, r0, r8, lsr fp
 760:	49010108 	stmdbmi	r1, {r3, r8}
 764:	00130113 	andseq	r0, r3, r3, lsl r1
 768:	00210900 	eoreq	r0, r1, r0, lsl #18
 76c:	0b2f1349 	bleq	bc5498 <__PROGRAM_SIZE+0xbbb494>
 770:	2e0a0000 	cdpcs	0, 0, cr0, cr10, cr0, {0}
 774:	03193f01 	tsteq	r9, #1, 30
 778:	3b0b3a0e 	blcc	2cefb8 <__PROGRAM_SIZE+0x2c4fb4>
 77c:	490e6e0b 	stmdbmi	lr, {r0, r1, r3, r9, sl, fp, sp, lr}
 780:	12011113 	andne	r1, r1, #-1073741820	; 0xc0000004
 784:	97184006 	ldrls	r4, [r8, -r6]
 788:	13011942 	movwne	r1, #6466	; 0x1942
 78c:	050b0000 	streq	r0, [fp, #-0]
 790:	3a0e0300 	bcc	381398 <__PROGRAM_SIZE+0x377394>
 794:	490b3b0b 	stmdbmi	fp, {r0, r1, r3, r8, r9, fp, ip, sp}
 798:	00170213 	andseq	r0, r7, r3, lsl r2
 79c:	82890c00 	addhi	r0, r9, #0, 24
 7a0:	01110101 	tsteq	r1, r1, lsl #2
 7a4:	00001331 	andeq	r1, r0, r1, lsr r3
 7a8:	01828a0d 	orreq	r8, r2, sp, lsl #20
 7ac:	91180200 	tstls	r8, r0, lsl #4
 7b0:	00001842 	andeq	r1, r0, r2, asr #16
 7b4:	0b000f0e 	bleq	43f4 <__PROGRAM_SIZE-0x5c10>
 7b8:	0013490b 	andseq	r4, r3, fp, lsl #18
 7bc:	012e0f00 	teqeq	lr, r0, lsl #30
 7c0:	0e03193f 	mcreq	9, 0, r1, cr3, cr15, {1}
 7c4:	0b3b0b3a 	bleq	ec34b4 <__PROGRAM_SIZE+0xeb94b0>
 7c8:	13490e6e 	movtne	r0, #40558	; 0x9e6e
 7cc:	0000193c 	andeq	r1, r0, ip, lsr r9
 7d0:	49000510 	stmdbmi	r0, {r4, r8, sl}
 7d4:	00000013 	andeq	r0, r0, r3, lsl r0
 7d8:	25011101 	strcs	r1, [r1, #-257]	; 0xfffffeff
 7dc:	030b130e 	movweq	r1, #45838	; 0xb30e
 7e0:	110e1b0e 	tstne	lr, lr, lsl #22
 7e4:	10061201 	andne	r1, r6, r1, lsl #4
 7e8:	02000017 	andeq	r0, r0, #23
 7ec:	0b0b0024 	bleq	2c0884 <__PROGRAM_SIZE+0x2b6880>
 7f0:	08030b3e 	stmdaeq	r3, {r1, r2, r3, r4, r5, r8, r9, fp}
 7f4:	24030000 	strcs	r0, [r3], #-0
 7f8:	3e0b0b00 	vmlacc.f64	d0, d11, d0
 7fc:	000e030b 	andeq	r0, lr, fp, lsl #6
 800:	01130400 	tsteq	r3, r0, lsl #8
 804:	0b3a0b0b 	bleq	e83438 <__PROGRAM_SIZE+0xe79434>
 808:	0e6e0b3b 	vmoveq.8	d14[5], r0
 80c:	00001301 	andeq	r1, r0, r1, lsl #6
 810:	03000d05 	movweq	r0, #3333	; 0xd05
 814:	3b0b3a0e 	blcc	2cf054 <__PROGRAM_SIZE+0x2c5050>
 818:	3813490b 	ldmdacc	r3, {r0, r1, r3, r8, fp, lr}
 81c:	0600000b 	streq	r0, [r0], -fp
 820:	0e030016 	mcreq	0, 0, r0, cr3, cr6, {0}
 824:	0b3b0b3a 	bleq	ec3514 <__PROGRAM_SIZE+0xeb9510>
 828:	00001349 	andeq	r1, r0, r9, asr #6
 82c:	3f012e07 	svccc	0x00012e07
 830:	3a0e0319 	bcc	38149c <__PROGRAM_SIZE+0x377498>
 834:	6e0b3b0b 	vmlavs.f64	d3, d11, d11
 838:	1201110e 	andne	r1, r1, #-2147483645	; 0x80000003
 83c:	97184006 	ldrls	r4, [r8, -r6]
 840:	13011942 	movwne	r1, #6466	; 0x1942
 844:	05080000 	streq	r0, [r8, #-0]
 848:	3a0e0300 	bcc	381450 <__PROGRAM_SIZE+0x37744c>
 84c:	490b3b0b 	stmdbmi	fp, {r0, r1, r3, r8, r9, fp, ip, sp}
 850:	00170213 	andseq	r0, r7, r3, lsl r2
 854:	010b0900 	tsteq	fp, r0, lsl #18
 858:	00001755 	andeq	r1, r0, r5, asr r7
 85c:	0300340a 	movweq	r3, #1034	; 0x40a
 860:	3b0b3a0e 	blcc	2cf0a0 <__PROGRAM_SIZE+0x2c509c>
 864:	0213490b 	andseq	r4, r3, #180224	; 0x2c000
 868:	0b000017 	bleq	8cc <__PROGRAM_SIZE-0x9738>
 86c:	01018289 	smlabbeq	r1, r9, r2, r8
 870:	00000111 	andeq	r0, r0, r1, lsl r1
 874:	01828a0c 	orreq	r8, r2, ip, lsl #20
 878:	91180200 	tstls	r8, r0, lsl #4
 87c:	00001842 	andeq	r1, r0, r2, asr #16
 880:	0b000f0d 	bleq	44bc <__PROGRAM_SIZE-0x5b48>
 884:	0013490b 	andseq	r4, r3, fp, lsl #18
 888:	00050e00 	andeq	r0, r5, r0, lsl #28
 88c:	0b3a0e03 	bleq	e840a0 <__PROGRAM_SIZE+0xe7a09c>
 890:	13490b3b 	movtne	r0, #39739	; 0x9b3b
 894:	00001802 	andeq	r1, r0, r2, lsl #16
 898:	0101150f 	tsteq	r1, pc, lsl #10
 89c:	10000013 	andne	r0, r0, r3, lsl r0
 8a0:	13490005 	movtne	r0, #36869	; 0x9005
 8a4:	34110000 	ldrcc	r0, [r1], #-0
 8a8:	3a0e0300 	bcc	3814b0 <__PROGRAM_SIZE+0x3774ac>
 8ac:	490b3b0b 	stmdbmi	fp, {r0, r1, r3, r8, r9, fp, ip, sp}
 8b0:	02193f13 	andseq	r3, r9, #19, 30	; 0x4c
 8b4:	00000018 	andeq	r0, r0, r8, lsl r0
 8b8:	25011101 	strcs	r1, [r1, #-257]	; 0xfffffeff
 8bc:	030b130e 	movweq	r1, #45838	; 0xb30e
 8c0:	110e1b0e 	tstne	lr, lr, lsl #22
 8c4:	10061201 	andne	r1, r6, r1, lsl #4
 8c8:	02000017 	andeq	r0, r0, #23
 8cc:	0b0b0024 	bleq	2c0964 <__PROGRAM_SIZE+0x2b6960>
 8d0:	08030b3e 	stmdaeq	r3, {r1, r2, r3, r4, r5, r8, r9, fp}
 8d4:	24030000 	strcs	r0, [r3], #-0
 8d8:	3e0b0b00 	vmlacc.f64	d0, d11, d0
 8dc:	000e030b 	andeq	r0, lr, fp, lsl #6
 8e0:	00160400 	andseq	r0, r6, r0, lsl #8
 8e4:	0b3a0e03 	bleq	e840f8 <__PROGRAM_SIZE+0xe7a0f4>
 8e8:	13490b3b 	movtne	r0, #39739	; 0x9b3b
 8ec:	13050000 	movwne	r0, #20480	; 0x5000
 8f0:	3a0b0b01 	bcc	2c34fc <__PROGRAM_SIZE+0x2b94f8>
 8f4:	6e0b3b0b 	vmlavs.f64	d3, d11, d11
 8f8:	0013010e 	andseq	r0, r3, lr, lsl #2
 8fc:	000d0600 	andeq	r0, sp, r0, lsl #12
 900:	0b3a0e03 	bleq	e84114 <__PROGRAM_SIZE+0xe7a110>
 904:	13490b3b 	movtne	r0, #39739	; 0x9b3b
 908:	00000b38 	andeq	r0, r0, r8, lsr fp
 90c:	03000d07 	movweq	r0, #3335	; 0xd07
 910:	3b0b3a08 	blcc	2cf138 <__PROGRAM_SIZE+0x2c5134>
 914:	3813490b 	ldmdacc	r3, {r0, r1, r3, r8, fp, lr}
 918:	0800000b 	stmdaeq	r0, {r0, r1, r3}
 91c:	0b0b000f 	bleq	2c0960 <__PROGRAM_SIZE+0x2b695c>
 920:	00001349 	andeq	r1, r0, r9, asr #6
 924:	03013909 	movweq	r3, #6409	; 0x1909
 928:	3b0b3a0e 	blcc	2cf168 <__PROGRAM_SIZE+0x2c5164>
 92c:	0013010b 	andseq	r0, r3, fp, lsl #2
 930:	012e0a00 	teqeq	lr, r0, lsl #20
 934:	0e03193f 	mcreq	9, 0, r1, cr3, cr15, {1}
 938:	0b3b0b3a 	bleq	ec3628 <__PROGRAM_SIZE+0xeb9624>
 93c:	193c0e6e 	ldmdbne	ip!, {r1, r2, r3, r5, r6, r9, sl, fp}
 940:	00001301 	andeq	r1, r0, r1, lsl #6
 944:	4900050b 	stmdbmi	r0, {r0, r1, r3, r8, sl}
 948:	0c000013 	stceq	0, cr0, [r0], {19}
 94c:	193f012e 	ldmdbne	pc!, {r1, r2, r3, r5, r8}	; <UNPREDICTABLE>
 950:	0b3a0e03 	bleq	e84164 <__PROGRAM_SIZE+0xe7a160>
 954:	0e6e0b3b 	vmoveq.8	d14[5], r0
 958:	193c1349 	ldmdbne	ip!, {r0, r3, r6, r8, r9, ip}
 95c:	00001301 	andeq	r1, r0, r1, lsl #6
 960:	0300340d 	movweq	r3, #1037	; 0x40d
 964:	3b0b3a0e 	blcc	2cf1a4 <__PROGRAM_SIZE+0x2c51a0>
 968:	490e6e0b 	stmdbmi	lr, {r0, r1, r3, r9, sl, fp, sp, lr}
 96c:	3c193f13 	ldccc	15, cr3, [r9], {19}
 970:	0e000019 	mcreq	0, 0, r0, cr0, cr9, {0}
 974:	1347012e 	movtne	r0, #28974	; 0x712e
 978:	13010b20 	movwne	r0, #6944	; 0x1b20
 97c:	050f0000 	streq	r0, [pc, #-0]	; 984 <__PROGRAM_SIZE-0x9680>
 980:	3a080300 	bcc	201588 <__PROGRAM_SIZE+0x1f7584>
 984:	490b3b0b 	stmdbmi	fp, {r0, r1, r3, r8, r9, fp, ip, sp}
 988:	10000013 	andne	r0, r0, r3, lsl r0
 98c:	0e030034 	mcreq	0, 0, r0, cr3, cr4, {1}
 990:	0b3b0b3a 	bleq	ec3680 <__PROGRAM_SIZE+0xeb967c>
 994:	00001349 	andeq	r1, r0, r9, asr #6
 998:	31012e11 	tstcc	r1, r1, lsl lr
 99c:	110e6e13 	tstne	lr, r3, lsl lr
 9a0:	40061201 	andmi	r1, r6, r1, lsl #4
 9a4:	19429718 	stmdbne	r2, {r3, r4, r8, r9, sl, ip, pc}^
 9a8:	00001301 	andeq	r1, r0, r1, lsl #6
 9ac:	31000512 	tstcc	r0, r2, lsl r5
 9b0:	00170213 	andseq	r0, r7, r3, lsl r2
 9b4:	00341300 	eorseq	r1, r4, r0, lsl #6
 9b8:	17021331 	smladxne	r2, r1, r3, r1
 9bc:	2e140000 	cdpcs	0, 1, cr0, cr4, cr0, {0}
 9c0:	11134701 	tstne	r3, r1, lsl #14
 9c4:	40061201 	andmi	r1, r6, r1, lsl #4
 9c8:	19429718 	stmdbne	r2, {r3, r4, r8, r9, sl, ip, pc}^
 9cc:	00001301 	andeq	r1, r0, r1, lsl #6
 9d0:	03000515 	movweq	r0, #1301	; 0x515
 9d4:	3b0b3a08 	blcc	2cf1fc <__PROGRAM_SIZE+0x2c51f8>
 9d8:	0213490b 	andseq	r4, r3, #180224	; 0x2c000
 9dc:	16000017 			; <UNDEFINED> instruction: 0x16000017
 9e0:	08030005 	stmdaeq	r3, {r0, r2}
 9e4:	0b3b0b3a 	bleq	ec36d4 <__PROGRAM_SIZE+0xeb96d0>
 9e8:	18021349 	stmdane	r2, {r0, r3, r6, r8, r9, ip}
 9ec:	34170000 	ldrcc	r0, [r7], #-0
 9f0:	3a0e0300 	bcc	3815f8 <__PROGRAM_SIZE+0x3775f4>
 9f4:	490b3b0b 	stmdbmi	fp, {r0, r1, r3, r8, r9, fp, ip, sp}
 9f8:	00170213 	andseq	r0, r7, r3, lsl r2
 9fc:	00051800 	andeq	r1, r5, r0, lsl #16
 a00:	0b3a0e03 	bleq	e84214 <__PROGRAM_SIZE+0xe7a210>
 a04:	13490b3b 	movtne	r0, #39739	; 0x9b3b
 a08:	00001702 	andeq	r1, r0, r2, lsl #14
 a0c:	55010b19 	strpl	r0, [r1, #-2841]	; 0xfffff4e7
 a10:	1a000017 	bne	a74 <__PROGRAM_SIZE-0x9590>
 a14:	08030034 	stmdaeq	r3, {r2, r4, r5}
 a18:	0b3b0b3a 	bleq	ec3708 <__PROGRAM_SIZE+0xeb9704>
 a1c:	17021349 	strne	r1, [r2, -r9, asr #6]
 a20:	0b1b0000 	bleq	6c0a28 <__PROGRAM_SIZE+0x6b6a24>
 a24:	12011101 	andne	r1, r1, #1073741824	; 0x40000000
 a28:	1c000006 	stcne	0, cr0, [r0], {6}
 a2c:	1331011d 	teqne	r1, #1073741831	; 0x40000007
 a30:	17550152 			; <UNDEFINED> instruction: 0x17550152
 a34:	0b590b58 	bleq	164379c <__PROGRAM_SIZE+0x1639798>
 a38:	051d0000 	ldreq	r0, [sp, #-0]
 a3c:	00133100 	andseq	r3, r3, r0, lsl #2
 a40:	00341e00 	eorseq	r1, r4, r0, lsl #28
 a44:	18021347 	stmdane	r2, {r0, r1, r2, r6, r8, r9, ip}
 a48:	01000000 	mrseq	r0, (UNDEF: 0)
 a4c:	0e250111 	mcreq	1, 1, r0, cr5, cr1, {0}
 a50:	0e030b13 	vmoveq.32	d3[0], r0
 a54:	01110e1b 	tsteq	r1, fp, lsl lr
 a58:	17100612 			; <UNDEFINED> instruction: 0x17100612
 a5c:	24020000 	strcs	r0, [r2], #-0
 a60:	3e0b0b00 	vmlacc.f64	d0, d11, d0
 a64:	0008030b 	andeq	r0, r8, fp, lsl #6
 a68:	00160300 	andseq	r0, r6, r0, lsl #6
 a6c:	0b3a0e03 	bleq	e84280 <__PROGRAM_SIZE+0xe7a27c>
 a70:	13490b3b 	movtne	r0, #39739	; 0x9b3b
 a74:	24040000 	strcs	r0, [r4], #-0
 a78:	3e0b0b00 	vmlacc.f64	d0, d11, d0
 a7c:	000e030b 	andeq	r0, lr, fp, lsl #6
 a80:	000f0500 	andeq	r0, pc, r0, lsl #10
 a84:	13490b0b 	movtne	r0, #39691	; 0x9b0b
 a88:	13060000 	movwne	r0, #24576	; 0x6000
 a8c:	3a0b0b01 	bcc	2c3698 <__PROGRAM_SIZE+0x2b9694>
 a90:	6e0b3b0b 	vmlavs.f64	d3, d11, d11
 a94:	0013010e 	andseq	r0, r3, lr, lsl #2
 a98:	000d0700 	andeq	r0, sp, r0, lsl #14
 a9c:	0b3a0e03 	bleq	e842b0 <__PROGRAM_SIZE+0xe7a2ac>
 aa0:	13490b3b 	movtne	r0, #39739	; 0x9b3b
 aa4:	00000b38 	andeq	r0, r0, r8, lsr fp
 aa8:	03000d08 	movweq	r0, #3336	; 0xd08
 aac:	3b0b3a08 	blcc	2cf2d4 <__PROGRAM_SIZE+0x2c52d0>
 ab0:	3813490b 	ldmdacc	r3, {r0, r1, r3, r8, fp, lr}
 ab4:	0900000b 	stmdbeq	r0, {r0, r1, r3}
 ab8:	0e030139 	mcreq	1, 0, r0, cr3, cr9, {1}
 abc:	0b3b0b3a 	bleq	ec37ac <__PROGRAM_SIZE+0xeb97a8>
 ac0:	00001301 	andeq	r1, r0, r1, lsl #6
 ac4:	3f012e0a 	svccc	0x00012e0a
 ac8:	3a0e0319 	bcc	381734 <__PROGRAM_SIZE+0x377730>
 acc:	6e0b3b0b 	vmlavs.f64	d3, d11, d11
 ad0:	01193c0e 	tsteq	r9, lr, lsl #24
 ad4:	0b000013 	bleq	b28 <__PROGRAM_SIZE-0x94dc>
 ad8:	13490005 	movtne	r0, #36869	; 0x9005
 adc:	340c0000 	strcc	r0, [ip], #-0
 ae0:	3a0e0300 	bcc	3816e8 <__PROGRAM_SIZE+0x3776e4>
 ae4:	6e0b3b0b 	vmlavs.f64	d3, d11, d11
 ae8:	3f13490e 	svccc	0x0013490e
 aec:	00193c19 	andseq	r3, r9, r9, lsl ip
 af0:	012e0d00 	teqeq	lr, r0, lsl #26
 af4:	0b201347 	bleq	805818 <__PROGRAM_SIZE+0x7fb814>
 af8:	00001301 	andeq	r1, r0, r1, lsl #6
 afc:	0300050e 	movweq	r0, #1294	; 0x50e
 b00:	3b0b3a0e 	blcc	2cf340 <__PROGRAM_SIZE+0x2c533c>
 b04:	0013490b 	andseq	r4, r3, fp, lsl #18
 b08:	010b0f00 	tsteq	fp, r0, lsl #30
 b0c:	34100000 	ldrcc	r0, [r0], #-0
 b10:	3a0e0300 	bcc	381718 <__PROGRAM_SIZE+0x377714>
 b14:	490b3b0b 	stmdbmi	fp, {r0, r1, r3, r8, r9, fp, ip, sp}
 b18:	11000013 	tstne	r0, r3, lsl r0
 b1c:	08030034 	stmdaeq	r3, {r2, r4, r5}
 b20:	0b3b0b3a 	bleq	ec3810 <__PROGRAM_SIZE+0xeb980c>
 b24:	00001349 	andeq	r1, r0, r9, asr #6
 b28:	47012e12 	smladmi	r1, r2, lr, r2
 b2c:	12011113 	andne	r1, r1, #-1073741820	; 0xc0000004
 b30:	97184006 	ldrls	r4, [r8, -r6]
 b34:	13011942 	movwne	r1, #6466	; 0x1942
 b38:	05130000 	ldreq	r0, [r3, #-0]
 b3c:	3a0e0300 	bcc	381744 <__PROGRAM_SIZE+0x377740>
 b40:	490b3b0b 	stmdbmi	fp, {r0, r1, r3, r8, r9, fp, ip, sp}
 b44:	00170213 	andseq	r0, r7, r3, lsl r2
 b48:	00051400 	andeq	r1, r5, r0, lsl #8
 b4c:	0b3a0e03 	bleq	e84360 <__PROGRAM_SIZE+0xe7a35c>
 b50:	13490b3b 	movtne	r0, #39739	; 0x9b3b
 b54:	00001802 	andeq	r1, r0, r2, lsl #16
 b58:	31012e15 	tstcc	r1, r5, lsl lr
 b5c:	110e6e13 	tstne	lr, r3, lsl lr
 b60:	40061201 	andmi	r1, r6, r1, lsl #4
 b64:	19429718 	stmdbne	r2, {r3, r4, r8, r9, sl, ip, pc}^
 b68:	00001301 	andeq	r1, r0, r1, lsl #6
 b6c:	31000516 	tstcc	r0, r6, lsl r5
 b70:	00170213 	andseq	r0, r7, r3, lsl r2
 b74:	010b1700 	tsteq	fp, r0, lsl #14
 b78:	00001755 	andeq	r1, r0, r5, asr r7
 b7c:	31003418 	tstcc	r0, r8, lsl r4
 b80:	00170213 	andseq	r0, r7, r3, lsl r2
 b84:	00051900 	andeq	r1, r5, r0, lsl #18
 b88:	0b3a0803 	bleq	e82b9c <__PROGRAM_SIZE+0xe78b98>
 b8c:	13490b3b 	movtne	r0, #39739	; 0x9b3b
 b90:	00001702 	andeq	r1, r0, r2, lsl #14
 b94:	0300341a 	movweq	r3, #1050	; 0x41a
 b98:	3b0b3a08 	blcc	2cf3c0 <__PROGRAM_SIZE+0x2c53bc>
 b9c:	0213490b 	andseq	r4, r3, #180224	; 0x2c000
 ba0:	1b000017 	blne	c04 <__PROGRAM_SIZE-0x9400>
 ba4:	0111010b 	tsteq	r1, fp, lsl #2
 ba8:	13010612 	movwne	r0, #5650	; 0x1612
 bac:	341c0000 	ldrcc	r0, [ip], #-0
 bb0:	3a0e0300 	bcc	3817b8 <__PROGRAM_SIZE+0x3777b4>
 bb4:	490b3b0b 	stmdbmi	fp, {r0, r1, r3, r8, r9, fp, ip, sp}
 bb8:	00170213 	andseq	r0, r7, r3, lsl r2
 bbc:	82891d00 	addhi	r1, r9, #0, 26
 bc0:	01110101 	tsteq	r1, r1, lsl #2
 bc4:	00001331 	andeq	r1, r0, r1, lsr r3
 bc8:	01828a1e 	orreq	r8, r2, lr, lsl sl
 bcc:	91180200 	tstls	r8, r0, lsl #4
 bd0:	00001842 	andeq	r1, r0, r2, asr #16
 bd4:	0182891f 	orreq	r8, r2, pc, lsl r9
 bd8:	31011101 	tstcc	r1, r1, lsl #2
 bdc:	00130113 	andseq	r0, r3, r3, lsl r1
 be0:	82892000 	addhi	r2, r9, #0
 be4:	01110001 	tsteq	r1, r1
 be8:	00001331 	andeq	r1, r0, r1, lsr r3
 bec:	03000521 	movweq	r0, #1313	; 0x521
 bf0:	3b0b3a08 	blcc	2cf418 <__PROGRAM_SIZE+0x2c5414>
 bf4:	0213490b 	andseq	r4, r3, #180224	; 0x2c000
 bf8:	22000018 	andcs	r0, r0, #24
 bfc:	13490101 	movtne	r0, #37121	; 0x9101
 c00:	00001301 	andeq	r1, r0, r1, lsl #6
 c04:	49002123 	stmdbmi	r0, {r0, r1, r5, r8, sp}
 c08:	000b2f13 	andeq	r2, fp, r3, lsl pc
 c0c:	00342400 	eorseq	r2, r4, r0, lsl #8
 c10:	0b3a0e03 	bleq	e84424 <__PROGRAM_SIZE+0xe7a420>
 c14:	13490b3b 	movtne	r0, #39739	; 0x9b3b
 c18:	1802193f 	stmdane	r2, {r0, r1, r2, r3, r4, r5, r8, fp, ip}
 c1c:	34250000 	strtcc	r0, [r5], #-0
 c20:	02134700 	andseq	r4, r3, #0, 14
 c24:	26000018 			; <UNDEFINED> instruction: 0x26000018
 c28:	193f012e 	ldmdbne	pc!, {r1, r2, r3, r5, r8}	; <UNPREDICTABLE>
 c2c:	0b3a0e03 	bleq	e84440 <__PROGRAM_SIZE+0xe7a43c>
 c30:	0e6e0b3b 	vmoveq.8	d14[5], r0
 c34:	193c1349 	ldmdbne	ip!, {r0, r3, r6, r8, r9, ip}
 c38:	01000000 	mrseq	r0, (UNDEF: 0)
 c3c:	0e250111 	mcreq	1, 1, r0, cr5, cr1, {0}
 c40:	0e030b13 	vmoveq.32	d3[0], r0
 c44:	01110e1b 	tsteq	r1, fp, lsl lr
 c48:	17100612 			; <UNDEFINED> instruction: 0x17100612
 c4c:	24020000 	strcs	r0, [r2], #-0
 c50:	3e0b0b00 	vmlacc.f64	d0, d11, d0
 c54:	0008030b 	andeq	r0, r8, fp, lsl #6
 c58:	00240300 	eoreq	r0, r4, r0, lsl #6
 c5c:	0b3e0b0b 	bleq	f83890 <__PROGRAM_SIZE+0xf7988c>
 c60:	00000e03 	andeq	r0, r0, r3, lsl #28
 c64:	03001604 	movweq	r1, #1540	; 0x604
 c68:	3b0b3a0e 	blcc	2cf4a8 <__PROGRAM_SIZE+0x2c54a4>
 c6c:	0013490b 	andseq	r4, r3, fp, lsl #18
 c70:	000f0500 	andeq	r0, pc, r0, lsl #10
 c74:	00000b0b 	andeq	r0, r0, fp, lsl #22
 c78:	0b011306 	bleq	45898 <__PROGRAM_SIZE+0x3b894>
 c7c:	3b0b3a0b 	blcc	2cf4b0 <__PROGRAM_SIZE+0x2c54ac>
 c80:	010e6e0b 	tsteq	lr, fp, lsl #28
 c84:	07000013 	smladeq	r0, r3, r0, r0
 c88:	0e03000d 	cdpeq	0, 0, cr0, cr3, cr13, {0}
 c8c:	0b3b0b3a 	bleq	ec397c <__PROGRAM_SIZE+0xeb9978>
 c90:	0b381349 	bleq	e059bc <__PROGRAM_SIZE+0xdfb9b8>
 c94:	0d080000 	stceq	0, cr0, [r8, #-0]
 c98:	3a080300 	bcc	2018a0 <__PROGRAM_SIZE+0x1f789c>
 c9c:	490b3b0b 	stmdbmi	fp, {r0, r1, r3, r8, r9, fp, ip, sp}
 ca0:	000b3813 	andeq	r3, fp, r3, lsl r8
 ca4:	000f0900 	andeq	r0, pc, r0, lsl #18
 ca8:	13490b0b 	movtne	r0, #39691	; 0x9b0b
 cac:	390a0000 	stmdbcc	sl, {}	; <UNPREDICTABLE>
 cb0:	3a0e0301 	bcc	3818bc <__PROGRAM_SIZE+0x3778b8>
 cb4:	010b3b0b 	tsteq	fp, fp, lsl #22
 cb8:	0b000013 	bleq	d0c <__PROGRAM_SIZE-0x92f8>
 cbc:	193f002e 	ldmdbne	pc!, {r1, r2, r3, r5}	; <UNPREDICTABLE>
 cc0:	0b3a0e03 	bleq	e844d4 <__PROGRAM_SIZE+0xe7a4d0>
 cc4:	0e6e0b3b 	vmoveq.8	d14[5], r0
 cc8:	0000193c 	andeq	r1, r0, ip, lsr r9
 ccc:	3f002e0c 	svccc	0x00002e0c
 cd0:	3a0e0319 	bcc	38193c <__PROGRAM_SIZE+0x377938>
 cd4:	6e0b3b0b 	vmlavs.f64	d3, d11, d11
 cd8:	3c13490e 	ldccc	9, cr4, [r3], {14}
 cdc:	0d000019 	stceq	0, cr0, [r0, #-100]	; 0xffffff9c
 ce0:	0e030034 	mcreq	0, 0, r0, cr3, cr4, {1}
 ce4:	0b3b0b3a 	bleq	ec39d4 <__PROGRAM_SIZE+0xeb99d0>
 ce8:	13490e6e 	movtne	r0, #40558	; 0x9e6e
 cec:	193c193f 	ldmdbne	ip!, {r0, r1, r2, r3, r4, r5, r8, fp, ip}
 cf0:	2e0e0000 	cdpcs	0, 0, cr0, cr14, cr0, {0}
 cf4:	03193f01 	tsteq	r9, #1, 30
 cf8:	3b0b3a0e 	blcc	2cf538 <__PROGRAM_SIZE+0x2c5534>
 cfc:	3c0e6e0b 	stccc	14, cr6, [lr], {11}
 d00:	00130119 	andseq	r0, r3, r9, lsl r1
 d04:	00050f00 	andeq	r0, r5, r0, lsl #30
 d08:	00001349 	andeq	r1, r0, r9, asr #6
 d0c:	3f012e10 	svccc	0x00012e10
 d10:	3a0e0319 	bcc	38197c <__PROGRAM_SIZE+0x377978>
 d14:	6e0b3b0b 	vmlavs.f64	d3, d11, d11
 d18:	00193c0e 	andseq	r3, r9, lr, lsl #24
 d1c:	012e1100 	teqeq	lr, r0, lsl #2
 d20:	01111347 	tsteq	r1, r7, asr #6
 d24:	18400612 	stmdane	r0, {r1, r4, r9, sl}^
 d28:	01194297 			; <UNDEFINED> instruction: 0x01194297
 d2c:	12000013 	andne	r0, r0, #19
 d30:	0e030034 	mcreq	0, 0, r0, cr3, cr4, {1}
 d34:	0b3b0b3a 	bleq	ec3a24 <__PROGRAM_SIZE+0xeb9a20>
 d38:	17021349 	strne	r1, [r2, -r9, asr #6]
 d3c:	89130000 	ldmdbhi	r3, {}	; <UNPREDICTABLE>
 d40:	11010182 	smlabbne	r1, r2, r1, r0
 d44:	01133101 	tsteq	r3, r1, lsl #2
 d48:	14000013 	strne	r0, [r0], #-19	; 0xffffffed
 d4c:	0001828a 	andeq	r8, r1, sl, lsl #5
 d50:	42911802 	addsmi	r1, r1, #131072	; 0x20000
 d54:	15000018 	strne	r0, [r0, #-24]	; 0xffffffe8
 d58:	01018289 	smlabbeq	r1, r9, r2, r8
 d5c:	13310111 	teqne	r1, #1073741828	; 0x40000004
 d60:	2e160000 	cdpcs	0, 1, cr0, cr6, cr0, {0}
 d64:	11134700 	tstne	r3, r0, lsl #14
 d68:	40061201 	andmi	r1, r6, r1, lsl #4
 d6c:	19429718 	stmdbne	r2, {r3, r4, r8, r9, sl, ip, pc}^
 d70:	34170000 	ldrcc	r0, [r7], #-0
 d74:	02134700 	andseq	r4, r3, #0, 14
 d78:	18000018 	stmdane	r0, {r3, r4}
 d7c:	193f012e 	ldmdbne	pc!, {r1, r2, r3, r5, r8}	; <UNPREDICTABLE>
 d80:	0b3a0e03 	bleq	e84594 <__PROGRAM_SIZE+0xe7a590>
 d84:	0e6e0b3b 	vmoveq.8	d14[5], r0
 d88:	193c1349 	ldmdbne	ip!, {r0, r3, r6, r8, r9, ip}
 d8c:	00001301 	andeq	r1, r0, r1, lsl #6
 d90:	01110100 	tsteq	r1, r0, lsl #2
 d94:	0b130e25 	bleq	4c4630 <__PROGRAM_SIZE+0x4ba62c>
 d98:	0e1b0e03 	cdpeq	14, 1, cr0, cr11, cr3, {0}
 d9c:	06120111 			; <UNDEFINED> instruction: 0x06120111
 da0:	00001710 	andeq	r1, r0, r0, lsl r7
 da4:	0b002402 	bleq	9db4 <__PROGRAM_SIZE-0x250>
 da8:	030b3e0b 	movweq	r3, #48651	; 0xbe0b
 dac:	03000008 	movweq	r0, #8
 db0:	0b0b0024 	bleq	2c0e48 <__PROGRAM_SIZE+0x2b6e44>
 db4:	0e030b3e 	vmoveq.16	d3[0], r0
 db8:	16040000 	strne	r0, [r4], -r0
 dbc:	3a0e0300 	bcc	3819c4 <__PROGRAM_SIZE+0x3779c0>
 dc0:	490b3b0b 	stmdbmi	fp, {r0, r1, r3, r8, r9, fp, ip, sp}
 dc4:	05000013 	streq	r0, [r0, #-19]	; 0xffffffed
 dc8:	0b0b0113 	bleq	2c121c <__PROGRAM_SIZE+0x2b7218>
 dcc:	0b3b0b3a 	bleq	ec3abc <__PROGRAM_SIZE+0xeb9ab8>
 dd0:	13010e6e 	movwne	r0, #7790	; 0x1e6e
 dd4:	0d060000 	stceq	0, cr0, [r6, #-0]
 dd8:	3a0e0300 	bcc	3819e0 <__PROGRAM_SIZE+0x3779dc>
 ddc:	490b3b0b 	stmdbmi	fp, {r0, r1, r3, r8, r9, fp, ip, sp}
 de0:	000b3813 	andeq	r3, fp, r3, lsl r8
 de4:	000f0700 	andeq	r0, pc, r0, lsl #14
 de8:	00000b0b 	andeq	r0, r0, fp, lsl #22
 dec:	3f012e08 	svccc	0x00012e08
 df0:	3a0e0319 	bcc	381a5c <__PROGRAM_SIZE+0x377a58>
 df4:	6e0b3b0b 	vmlavs.f64	d3, d11, d11
 df8:	1113490e 	tstne	r3, lr, lsl #18
 dfc:	40061201 	andmi	r1, r6, r1, lsl #4
 e00:	19429718 	stmdbne	r2, {r3, r4, r8, r9, sl, ip, pc}^
 e04:	00001301 	andeq	r1, r0, r1, lsl #6
 e08:	03000509 	movweq	r0, #1289	; 0x509
 e0c:	3b0b3a0e 	blcc	2cf64c <__PROGRAM_SIZE+0x2c5648>
 e10:	0213490b 	andseq	r4, r3, #180224	; 0x2c000
 e14:	0a000017 	beq	e78 <__PROGRAM_SIZE-0x918c>
 e18:	01018289 	smlabbeq	r1, r9, r2, r8
 e1c:	00000111 	andeq	r0, r0, r1, lsl r1
 e20:	01828a0b 	orreq	r8, r2, fp, lsl #20
 e24:	91180200 	tstls	r8, r0, lsl #4
 e28:	00001842 	andeq	r1, r0, r2, asr #16
 e2c:	0300340c 	movweq	r3, #1036	; 0x40c
 e30:	3b0b3a0e 	blcc	2cf670 <__PROGRAM_SIZE+0x2c566c>
 e34:	3f13490b 	svccc	0x0013490b
 e38:	00180219 	andseq	r0, r8, r9, lsl r2
 e3c:	00350d00 	eorseq	r0, r5, r0, lsl #26
 e40:	00001349 	andeq	r1, r0, r9, asr #6
 e44:	4901150e 	stmdbmi	r1, {r1, r2, r3, r8, sl, ip}
 e48:	00130113 	andseq	r0, r3, r3, lsl r1
 e4c:	00050f00 	andeq	r0, r5, r0, lsl #30
 e50:	00001349 	andeq	r1, r0, r9, asr #6
 e54:	03003410 	movweq	r3, #1040	; 0x410
 e58:	3b0b3a0e 	blcc	2cf698 <__PROGRAM_SIZE+0x2c5694>
 e5c:	3f13490b 	svccc	0x0013490b
 e60:	00193c19 	andseq	r3, r9, r9, lsl ip
 e64:	000f1100 	andeq	r1, pc, r0, lsl #2
 e68:	13490b0b 	movtne	r0, #39691	; 0x9b0b
 e6c:	01000000 	mrseq	r0, (UNDEF: 0)
 e70:	0e250111 	mcreq	1, 1, r0, cr5, cr1, {0}
 e74:	0e030b13 	vmoveq.32	d3[0], r0
 e78:	17550e1b 	smmlane	r5, fp, lr, r0
 e7c:	17100111 			; <UNDEFINED> instruction: 0x17100111
 e80:	24020000 	strcs	r0, [r2], #-0
 e84:	3e0b0b00 	vmlacc.f64	d0, d11, d0
 e88:	0008030b 	andeq	r0, r8, fp, lsl #6
 e8c:	00240300 	eoreq	r0, r4, r0, lsl #6
 e90:	0b3e0b0b 	bleq	f83ac4 <__PROGRAM_SIZE+0xf79ac0>
 e94:	00000e03 	andeq	r0, r0, r3, lsl #28
 e98:	03001604 	movweq	r1, #1540	; 0x604
 e9c:	3b0b3a0e 	blcc	2cf6dc <__PROGRAM_SIZE+0x2c56d8>
 ea0:	0013490b 	andseq	r4, r3, fp, lsl #18
 ea4:	000f0500 	andeq	r0, pc, r0, lsl #10
 ea8:	00000b0b 	andeq	r0, r0, fp, lsl #22
 eac:	0b000f06 	bleq	4acc <__PROGRAM_SIZE-0x5538>
 eb0:	0013490b 	andseq	r4, r3, fp, lsl #18
 eb4:	01130700 	tsteq	r3, r0, lsl #14
 eb8:	0b3a0b0b 	bleq	e83aec <__PROGRAM_SIZE+0xe79ae8>
 ebc:	0e6e0b3b 	vmoveq.8	d14[5], r0
 ec0:	00001301 	andeq	r1, r0, r1, lsl #6
 ec4:	03000d08 	movweq	r0, #3336	; 0xd08
 ec8:	3b0b3a0e 	blcc	2cf708 <__PROGRAM_SIZE+0x2c5704>
 ecc:	3813490b 	ldmdacc	r3, {r0, r1, r3, r8, fp, lr}
 ed0:	0900000b 	stmdbeq	r0, {r0, r1, r3}
 ed4:	193f012e 	ldmdbne	pc!, {r1, r2, r3, r5, r8}	; <UNPREDICTABLE>
 ed8:	0b3a0e03 	bleq	e846ec <__PROGRAM_SIZE+0xe7a6e8>
 edc:	0e6e0b3b 	vmoveq.8	d14[5], r0
 ee0:	06120111 			; <UNDEFINED> instruction: 0x06120111
 ee4:	42971840 	addsmi	r1, r7, #64, 16	; 0x400000
 ee8:	00130119 	andseq	r0, r3, r9, lsl r1
 eec:	00050a00 	andeq	r0, r5, r0, lsl #20
 ef0:	0b3a0e03 	bleq	e84704 <__PROGRAM_SIZE+0xe7a700>
 ef4:	13490b3b 	movtne	r0, #39739	; 0x9b3b
 ef8:	00001702 	andeq	r1, r0, r2, lsl #14
 efc:	0182890b 	orreq	r8, r2, fp, lsl #18
 f00:	31011101 	tstcc	r1, r1, lsl #2
 f04:	00130113 	andseq	r0, r3, r3, lsl r1
 f08:	828a0c00 	addhi	r0, sl, #0, 24
 f0c:	18020001 	stmdane	r2, {r0}
 f10:	00184291 	mulseq	r8, r1, r2
 f14:	82890d00 	addhi	r0, r9, #0, 26
 f18:	01110101 	tsteq	r1, r1, lsl #2
 f1c:	00001331 	andeq	r1, r0, r1, lsr r3
 f20:	3f012e0e 	svccc	0x00012e0e
 f24:	3a0e0319 	bcc	381b90 <__PROGRAM_SIZE+0x377b8c>
 f28:	6e0b3b0b 	vmlavs.f64	d3, d11, d11
 f2c:	1113490e 	tstne	r3, lr, lsl #18
 f30:	40061201 	andmi	r1, r6, r1, lsl #4
 f34:	19429718 	stmdbne	r2, {r3, r4, r8, r9, sl, ip, pc}^
 f38:	00001301 	andeq	r1, r0, r1, lsl #6
 f3c:	0300050f 	movweq	r0, #1295	; 0x50f
 f40:	3b0b3a08 	blcc	2cf768 <__PROGRAM_SIZE+0x2c5764>
 f44:	0213490b 	andseq	r4, r3, #180224	; 0x2c000
 f48:	10000017 	andne	r0, r0, r7, lsl r0
 f4c:	00018289 	andeq	r8, r1, r9, lsl #5
 f50:	13310111 	teqne	r1, #1073741828	; 0x40000004
 f54:	15110000 	ldrne	r0, [r1, #-0]
 f58:	01134901 	tsteq	r3, r1, lsl #18
 f5c:	12000013 	andne	r0, r0, #19
 f60:	13490005 	movtne	r0, #36869	; 0x9005
 f64:	34130000 	ldrcc	r0, [r3], #-0
 f68:	3a0e0300 	bcc	381b70 <__PROGRAM_SIZE+0x377b6c>
 f6c:	490b3b0b 	stmdbmi	fp, {r0, r1, r3, r8, r9, fp, ip, sp}
 f70:	02193f13 	andseq	r3, r9, #19, 30	; 0x4c
 f74:	14000018 	strne	r0, [r0], #-24	; 0xffffffe8
 f78:	0e030139 	mcreq	1, 0, r0, cr3, cr9, {1}
 f7c:	0b3b0b3a 	bleq	ec3c6c <__PROGRAM_SIZE+0xeb9c68>
 f80:	00001301 	andeq	r1, r0, r1, lsl #6
 f84:	3f012e15 	svccc	0x00012e15
 f88:	3a0e0319 	bcc	381bf4 <__PROGRAM_SIZE+0x377bf0>
 f8c:	6e0b3b0b 	vmlavs.f64	d3, d11, d11
 f90:	01193c0e 	tsteq	r9, lr, lsl #24
 f94:	16000013 			; <UNDEFINED> instruction: 0x16000013
 f98:	193f002e 	ldmdbne	pc!, {r1, r2, r3, r5}	; <UNPREDICTABLE>
 f9c:	0b3a0e03 	bleq	e847b0 <__PROGRAM_SIZE+0xe7a7ac>
 fa0:	0e6e0b3b 	vmoveq.8	d14[5], r0
 fa4:	0000193c 	andeq	r1, r0, ip, lsr r9
 fa8:	3f012e17 	svccc	0x00012e17
 fac:	3a0e0319 	bcc	381c18 <__PROGRAM_SIZE+0x377c14>
 fb0:	6e0b3b0b 	vmlavs.f64	d3, d11, d11
 fb4:	3c13490e 	ldccc	9, cr4, [r3], {14}
 fb8:	00130119 	andseq	r0, r3, r9, lsl r1
 fbc:	002e1800 	eoreq	r1, lr, r0, lsl #16
 fc0:	0e03193f 	mcreq	9, 0, r1, cr3, cr15, {1}
 fc4:	0b3b0b3a 	bleq	ec3cb4 <__PROGRAM_SIZE+0xeb9cb0>
 fc8:	13490e6e 	movtne	r0, #40558	; 0x9e6e
 fcc:	0000193c 	andeq	r1, r0, ip, lsr r9
	...

Disassembly of section .debug_loc:

00000000 <.debug_loc>:
   0:	00000000 	andeq	r0, r0, r0
   4:	00000014 	andeq	r0, r0, r4, lsl r0
   8:	14500001 	ldrbne	r0, [r0], #-1
   c:	20000000 	andcs	r0, r0, r0
  10:	01000000 	mrseq	r0, (UNDEF: 0)
  14:	00005400 	andeq	r5, r0, r0, lsl #8
  18:	00000000 	andeq	r0, r0, r0
  1c:	00a00000 	adceq	r0, r0, r0
  20:	00b40000 	adcseq	r0, r4, r0
  24:	00020000 	andeq	r0, r2, r0
  28:	00e89f30 	rsceq	r9, r8, r0, lsr pc
  2c:	00f80000 	rscseq	r0, r8, r0
  30:	00020000 	andeq	r0, r2, r0
  34:	00f89f30 	rscseq	r9, r8, r0, lsr pc
  38:	01300000 	teqeq	r0, r0
  3c:	00010000 	andeq	r0, r1, r0
  40:	00000054 	andeq	r0, r0, r4, asr r0
  44:	00000000 	andeq	r0, r0, r0
  48:	00006c00 	andeq	r6, r0, r0, lsl #24
  4c:	00007800 	andeq	r7, r0, r0, lsl #16
  50:	30000200 	andcc	r0, r0, r0, lsl #4
  54:	0000789f 	muleq	r0, pc, r8	; <UNPREDICTABLE>
  58:	0000a000 	andeq	sl, r0, r0
  5c:	54000100 	strpl	r0, [r0], #-256	; 0xffffff00
  60:	000000b4 	strheq	r0, [r0], -r4
  64:	000000b8 	strheq	r0, [r0], -r8
  68:	00540001 	subseq	r0, r4, r1
  6c:	00000000 	andeq	r0, r0, r0
  70:	a0000000 	andge	r0, r0, r0
  74:	b4000000 	strlt	r0, [r0], #-0
  78:	01000000 	mrseq	r0, (UNDEF: 0)
  7c:	00c05400 	sbceq	r5, r0, r0, lsl #8
  80:	00ec0000 	rsceq	r0, ip, r0
  84:	00010000 	andeq	r0, r1, r0
  88:	00000054 	andeq	r0, r0, r4, asr r0
	...
  94:	00002000 	andeq	r2, r0, r0
  98:	50000100 	andpl	r0, r0, r0, lsl #2
  9c:	00000020 	andeq	r0, r0, r0, lsr #32
  a0:	00000040 	andeq	r0, r0, r0, asr #32
  a4:	01f30004 	mvnseq	r0, r4
  a8:	00009f50 	andeq	r9, r0, r0, asr pc
	...
  b4:	00270000 	eoreq	r0, r7, r0
  b8:	00010000 	andeq	r0, r1, r0
  bc:	00002751 	andeq	r2, r0, r1, asr r7
  c0:	00004000 	andeq	r4, r0, r0
  c4:	f3000400 	vshl.u8	d0, d0, d0
  c8:	009f5101 	addseq	r5, pc, r1, lsl #2
	...
  d4:	27000000 	strcs	r0, [r0, -r0]
  d8:	01000000 	mrseq	r0, (UNDEF: 0)
  dc:	00275200 	eoreq	r5, r7, r0, lsl #4
  e0:	00400000 	subeq	r0, r0, r0
  e4:	00040000 	andeq	r0, r4, r0
  e8:	9f5201f3 	svcls	0x005201f3
	...
  f8:	00000004 	andeq	r0, r0, r4
  fc:	04500001 	ldrbeq	r0, [r0], #-1
 100:	1c000000 	stcne	0, cr0, [r0], {-0}
 104:	04000000 	streq	r0, [r0], #-0
 108:	5001f300 	andpl	pc, r1, r0, lsl #6
 10c:	0000009f 	muleq	r0, pc, r0	; <UNPREDICTABLE>
	...
 118:	00000400 	andeq	r0, r0, r0, lsl #8
 11c:	30000200 	andcc	r0, r0, r0, lsl #4
 120:	0000049f 	muleq	r0, pc, r4	; <UNPREDICTABLE>
 124:	00001c00 	andeq	r1, r0, r0, lsl #24
 128:	53000100 	movwpl	r0, #256	; 0x100
	...
 134:	0000001c 	andeq	r0, r0, ip, lsl r0
 138:	0000002b 	andeq	r0, r0, fp, lsr #32
 13c:	2b500001 	blcs	1400148 <__PROGRAM_SIZE+0x13f6144>
 140:	40000000 	andmi	r0, r0, r0
 144:	01000000 	mrseq	r0, (UNDEF: 0)
 148:	00005400 	andeq	r5, r0, r0, lsl #8
 14c:	00000000 	andeq	r0, r0, r0
 150:	001c0000 	andseq	r0, ip, r0
 154:	002b0000 	eoreq	r0, fp, r0
 158:	00010000 	andeq	r0, r1, r0
 15c:	00002b51 	andeq	r2, r0, r1, asr fp
 160:	00004000 	andeq	r4, r0, r0
 164:	55000100 	strpl	r0, [r0, #-256]	; 0xffffff00
	...
 170:	00000040 	andeq	r0, r0, r0, asr #32
 174:	0000004f 	andeq	r0, r0, pc, asr #32
 178:	4f500001 	svcmi	0x00500001
 17c:	cc000000 	stcgt	0, cr0, [r0], {-0}
 180:	01000000 	mrseq	r0, (UNDEF: 0)
 184:	00005500 	andeq	r5, r0, r0, lsl #10
 188:	00000000 	andeq	r0, r0, r0
 18c:	00400000 	subeq	r0, r0, r0
 190:	004f0000 	subeq	r0, pc, r0
 194:	00010000 	andeq	r0, r1, r0
 198:	00004f51 	andeq	r4, r0, r1, asr pc
 19c:	0000cc00 	andeq	ip, r0, r0, lsl #24
 1a0:	54000100 	strpl	r0, [r0], #-256	; 0xffffff00
	...
 1ac:	00000054 	andeq	r0, r0, r4, asr r0
 1b0:	00000058 	andeq	r0, r0, r8, asr r0
 1b4:	58500001 	ldmdapl	r0, {r0}^
 1b8:	cc000000 	stcgt	0, cr0, [r0], {-0}
 1bc:	01000000 	mrseq	r0, (UNDEF: 0)
 1c0:	00005600 	andeq	r5, r0, r0, lsl #12
 1c4:	00000000 	andeq	r0, r0, r0
 1c8:	005c0000 	subseq	r0, ip, r0
 1cc:	00880000 	addeq	r0, r8, r0
 1d0:	00010000 	andeq	r0, r1, r0
 1d4:	0000ac50 	andeq	sl, r0, r0, asr ip
 1d8:	0000b000 	andeq	fp, r0, r0
 1dc:	50000100 	andpl	r0, r0, r0, lsl #2
 1e0:	000000b4 	strheq	r0, [r0], -r4
 1e4:	000000b8 	strheq	r0, [r0], -r8
 1e8:	bc500001 	mrrclt	0, 0, r0, r0, cr1	; <UNPREDICTABLE>
 1ec:	c0000000 	andgt	r0, r0, r0
 1f0:	01000000 	mrseq	r0, (UNDEF: 0)
 1f4:	00005000 	andeq	r5, r0, r0
 1f8:	00000000 	andeq	r0, r0, r0
 1fc:	00640000 	rsbeq	r0, r4, r0
 200:	008c0000 	addeq	r0, ip, r0
 204:	00020000 	andeq	r0, r2, r0
 208:	008c9f30 	addeq	r9, ip, r0, lsr pc
 20c:	00940000 	addseq	r0, r4, r0
 210:	00060000 	andeq	r0, r6, r0
 214:	00750073 	rsbseq	r0, r5, r3, ror r0
 218:	00949f1c 	addseq	r9, r4, ip, lsl pc
 21c:	009c0000 	addseq	r0, ip, r0
 220:	00070000 	andeq	r0, r7, r0
 224:	73200075 	teqvc	r0, #117	; 0x75
 228:	9c9f2200 	lfmls	f2, 4, [pc], {0}
 22c:	ac000000 	stcge	0, cr0, [r0], {-0}
 230:	06000000 	streq	r0, [r0], -r0
 234:	75007300 	strvc	r7, [r0, #-768]	; 0xfffffd00
 238:	b49f1c00 	ldrlt	r1, [pc], #3072	; 240 <__PROGRAM_SIZE-0x9dc4>
 23c:	c4000000 	strgt	r0, [r0], #-0
 240:	02000000 	andeq	r0, r0, #0
 244:	c49f3000 	ldrgt	r3, [pc], #0	; 24c <__PROGRAM_SIZE-0x9db8>
 248:	cc000000 	stcgt	0, cr0, [r0], {-0}
 24c:	07000000 	streq	r0, [r0, -r0]
 250:	20007500 	andcs	r7, r0, r0, lsl #10
 254:	9f220073 	svcls	0x00220073
	...
 260:	000000cc 	andeq	r0, r0, ip, asr #1
 264:	000000db 	ldrdeq	r0, [r0], -fp
 268:	db500001 	blle	1400274 <__PROGRAM_SIZE+0x13f6270>
 26c:	0c000000 	stceq	0, cr0, [r0], {-0}
 270:	01000001 	tsteq	r0, r1
 274:	00005500 	andeq	r5, r0, r0, lsl #10
 278:	00000000 	andeq	r0, r0, r0
 27c:	00cc0000 	sbceq	r0, ip, r0
 280:	00db0000 	sbcseq	r0, fp, r0
 284:	00010000 	andeq	r0, r1, r0
 288:	0000db51 	andeq	sp, r0, r1, asr fp
 28c:	00010c00 	andeq	r0, r1, r0, lsl #24
 290:	56000100 	strpl	r0, [r0], -r0, lsl #2
	...
 29c:	000000e0 	andeq	r0, r0, r0, ror #1
 2a0:	000000e4 	andeq	r0, r0, r4, ror #1
 2a4:	e4500001 	ldrb	r0, [r0], #-1
 2a8:	f0000000 			; <UNDEFINED> instruction: 0xf0000000
 2ac:	01000000 	mrseq	r0, (UNDEF: 0)
 2b0:	00005400 	andeq	r5, r0, r0, lsl #8
 2b4:	00000000 	andeq	r0, r0, r0
 2b8:	00ec0000 	rsceq	r0, ip, r0
 2bc:	00f80000 	rscseq	r0, r8, r0
 2c0:	00010000 	andeq	r0, r1, r0
 2c4:	0000f850 	andeq	pc, r0, r0, asr r8	; <UNPREDICTABLE>
 2c8:	00010c00 	andeq	r0, r1, r0, lsl #24
 2cc:	57000100 	strpl	r0, [r0, -r0, lsl #2]
	...
 2d8:	0000010c 	andeq	r0, r0, ip, lsl #2
 2dc:	0000012c 	andeq	r0, r0, ip, lsr #2
 2e0:	2c500001 	mrrccs	0, 0, r0, r0, cr1	; <UNPREDICTABLE>
 2e4:	74000001 	strvc	r0, [r0], #-1
 2e8:	04000001 	streq	r0, [r0], #-1
 2ec:	5001f300 	andpl	pc, r1, r0, lsl #6
 2f0:	0000009f 	muleq	r0, pc, r0	; <UNPREDICTABLE>
 2f4:	00000000 	andeq	r0, r0, r0
 2f8:	00010c00 	andeq	r0, r1, r0, lsl #24
 2fc:	00012c00 	andeq	r2, r1, r0, lsl #24
 300:	52000600 	andpl	r0, r0, #0, 12
 304:	93530493 	cmpls	r3, #-1828716544	; 0x93000000
 308:	00012c04 	andeq	r2, r1, r4, lsl #24
 30c:	00016000 	andeq	r6, r1, r0
 310:	54000600 	strpl	r0, [r0], #-1536	; 0xfffffa00
 314:	93550493 	cmpls	r5, #-1828716544	; 0x93000000
 318:	00016404 	andeq	r6, r1, r4, lsl #8
 31c:	00017400 	andeq	r7, r1, r0, lsl #8
 320:	54000600 	strpl	r0, [r0], #-1536	; 0xfffffa00
 324:	93550493 	cmpls	r5, #-1828716544	; 0x93000000
 328:	00000004 	andeq	r0, r0, r4
 32c:	00000000 	andeq	r0, r0, r0
 330:	00011800 	andeq	r1, r1, r0, lsl #16
 334:	00011c00 	andeq	r1, r1, r0, lsl #24
 338:	70000300 	andvc	r0, r0, r0, lsl #6
 33c:	011c9f15 	tsteq	ip, r5, lsl pc
 340:	01480000 	mrseq	r0, (UNDEF: 72)
 344:	00010000 	andeq	r0, r1, r0
 348:	00014856 	andeq	r4, r1, r6, asr r8
 34c:	00017400 	andeq	r7, r1, r0, lsl #8
 350:	76000300 	strvc	r0, [r0], -r0, lsl #6
 354:	00009f01 	andeq	r9, r0, r1, lsl #30
 358:	00000000 	andeq	r0, r0, r0
 35c:	01740000 	cmneq	r4, r0
 360:	018f0000 	orreq	r0, pc, r0
 364:	00010000 	andeq	r0, r1, r0
 368:	00018f50 	andeq	r8, r1, r0, asr pc
 36c:	0001a400 	andeq	sl, r1, r0, lsl #8
 370:	f3000400 	vshl.u8	d0, d0, d0
 374:	a49f5001 	ldrge	r5, [pc], #1	; 37c <__PROGRAM_SIZE-0x9c88>
 378:	a7000001 	strge	r0, [r0, -r1]
 37c:	01000001 	tsteq	r0, r1
 380:	01a75000 			; <UNDEFINED> instruction: 0x01a75000
 384:	01ac0000 			; <UNDEFINED> instruction: 0x01ac0000
 388:	00040000 	andeq	r0, r4, r0
 38c:	9f5001f3 	svcls	0x005001f3
	...
 398:	00000174 	andeq	r0, r0, r4, ror r1
 39c:	00000184 	andeq	r0, r0, r4, lsl #3
 3a0:	93520006 	cmpls	r2, #6
 3a4:	04935304 	ldreq	r5, [r3], #772	; 0x304
 3a8:	00000184 	andeq	r0, r0, r4, lsl #3
 3ac:	00000188 	andeq	r0, r0, r8, lsl #3
 3b0:	02f50005 	rscseq	r0, r5, #5
 3b4:	889f1f25 	ldmhi	pc, {r0, r2, r5, r8, r9, sl, fp, ip}	; <UNPREDICTABLE>
 3b8:	a4000001 	strge	r0, [r0], #-1
 3bc:	07000001 	streq	r0, [r0, -r1]
 3c0:	f503f300 			; <UNDEFINED> instruction: 0xf503f300
 3c4:	9f1f2502 	svcls	0x001f2502
 3c8:	000001a4 	andeq	r0, r0, r4, lsr #3
 3cc:	000001a7 	andeq	r0, r0, r7, lsr #3
 3d0:	93520006 	cmpls	r2, #6
 3d4:	04935304 	ldreq	r5, [r3], #772	; 0x304
 3d8:	000001a7 	andeq	r0, r0, r7, lsr #3
 3dc:	000001ac 	andeq	r0, r0, ip, lsr #3
 3e0:	03f30006 	mvnseq	r0, #6
 3e4:	9f2502f5 	svcls	0x002502f5
	...
 3f0:	00000194 	muleq	r0, r4, r1
 3f4:	000001a4 	andeq	r0, r0, r4, lsr #3
 3f8:	a8500001 	ldmdage	r0, {r0}^
 3fc:	ac000001 	stcge	0, cr0, [r0], {1}
 400:	01000001 	tsteq	r0, r1
 404:	00005000 	andeq	r5, r0, r0
 408:	00000000 	andeq	r0, r0, r0
 40c:	01780000 	cmneq	r8, r0
 410:	01840000 	orreq	r0, r4, r0
 414:	00020000 	andeq	r0, r2, r0
 418:	01849f30 	orreq	r9, r4, r0, lsr pc
 41c:	01a40000 			; <UNDEFINED> instruction: 0x01a40000
 420:	00020000 	andeq	r0, r2, r0
 424:	01a49f31 			; <UNDEFINED> instruction: 0x01a49f31
 428:	01ac0000 			; <UNDEFINED> instruction: 0x01ac0000
 42c:	00020000 	andeq	r0, r2, r0
 430:	00009f30 	andeq	r9, r0, r0, lsr pc
 434:	00000000 	andeq	r0, r0, r0
 438:	01ac0000 			; <UNDEFINED> instruction: 0x01ac0000
 43c:	01c00000 	biceq	r0, r0, r0
 440:	00010000 	andeq	r0, r1, r0
 444:	0001c050 	andeq	ip, r1, r0, asr r0
 448:	00021800 	andeq	r1, r2, r0, lsl #16
 44c:	f3000400 	vshl.u8	d0, d0, d0
 450:	009f5001 	addseq	r5, pc, r1
 454:	00000000 	andeq	r0, r0, r0
 458:	ac000000 	stcge	0, cr0, [r0], {-0}
 45c:	fc000001 	stc2	0, cr0, [r0], {1}
 460:	06000001 	streq	r0, [r0], -r1
 464:	04935200 	ldreq	r5, [r3], #512	; 0x200
 468:	00049353 	andeq	r9, r4, r3, asr r3
 46c:	18000002 	stmdane	r0, {r1}
 470:	06000002 	streq	r0, [r0], -r2
 474:	04935200 	ldreq	r5, [r3], #512	; 0x200
 478:	00049353 	andeq	r9, r4, r3, asr r3
 47c:	00000000 	andeq	r0, r0, r0
 480:	b0000000 	andlt	r0, r0, r0
 484:	b4000001 	strlt	r0, [r0], #-1
 488:	03000001 	movweq	r0, #1
 48c:	9f157000 	svcls	0x00157000
 490:	000001b4 			; <UNDEFINED> instruction: 0x000001b4
 494:	000001e4 	andeq	r0, r0, r4, ror #3
 498:	e4510001 	ldrb	r0, [r1], #-1
 49c:	18000001 	stmdane	r0, {r0}
 4a0:	03000002 	movweq	r0, #2
 4a4:	9f017100 	svcls	0x00017100
	...
 4b0:	00000218 	andeq	r0, r0, r8, lsl r2
 4b4:	00000228 	andeq	r0, r0, r8, lsr #4
 4b8:	9f300002 	svcls	0x00300002
	...
 4c4:	00000250 	andeq	r0, r0, r0, asr r2
 4c8:	00000288 	andeq	r0, r0, r8, lsl #5
 4cc:	88500001 	ldmdahi	r0, {r0}^
 4d0:	e0000002 	and	r0, r0, r2
 4d4:	01000003 	tsteq	r0, r3
 4d8:	03e05700 	mvneq	r5, #0, 14
 4dc:	03e80000 	mvneq	r0, #0
 4e0:	00010000 	andeq	r0, r1, r0
 4e4:	00000050 	andeq	r0, r0, r0, asr r0
 4e8:	00000000 	andeq	r0, r0, r0
 4ec:	00026c00 	andeq	r6, r2, r0, lsl #24
 4f0:	00028800 	andeq	r8, r2, r0, lsl #16
 4f4:	30000200 	andcc	r0, r0, r0, lsl #4
 4f8:	0002889f 	muleq	r2, pc, r8	; <UNPREDICTABLE>
 4fc:	0003d400 	andeq	sp, r3, r0, lsl #8
 500:	55000100 	strpl	r0, [r0, #-256]	; 0xffffff00
	...
 50c:	0000026c 	andeq	r0, r0, ip, ror #4
 510:	00000288 	andeq	r0, r0, r8, lsl #5
 514:	9f300002 	svcls	0x00300002
 518:	00000288 	andeq	r0, r0, r8, lsl #5
 51c:	000003b8 			; <UNDEFINED> instruction: 0x000003b8
 520:	b8540001 	ldmdalt	r4, {r0}^
 524:	bc000003 	stclt	0, cr0, [r0], {3}
 528:	03000003 	movweq	r0, #3
 52c:	9f017400 	svcls	0x00017400
 530:	000003bc 			; <UNDEFINED> instruction: 0x000003bc
 534:	000003d4 	ldrdeq	r0, [r0], -r4
 538:	00540001 	subseq	r0, r4, r1
 53c:	00000000 	andeq	r0, r0, r0
 540:	98000000 	stmdals	r0, {}	; <UNPREDICTABLE>
 544:	cc000002 	stcgt	0, cr0, [r0], {2}
 548:	02000002 	andeq	r0, r0, #2
 54c:	cc9f3000 	ldcgt	0, cr3, [pc], {0}
 550:	d0000002 	andle	r0, r0, r2
 554:	01000002 	tsteq	r0, r2
 558:	02d05a00 	sbcseq	r5, r0, #0, 20
 55c:	02fc0000 	rscseq	r0, ip, #0
 560:	00020000 	andeq	r0, r2, r0
 564:	02fc9f30 	rscseq	r9, ip, #48, 30	; 0xc0
 568:	03000000 	movweq	r0, #0
 56c:	00010000 	andeq	r0, r1, r0
 570:	00030050 	andeq	r0, r3, r0, asr r0
 574:	00032c00 	andeq	r2, r3, r0, lsl #24
 578:	30000200 	andcc	r0, r0, r0, lsl #4
 57c:	00032c9f 	muleq	r3, pc, ip	; <UNPREDICTABLE>
 580:	00033000 	andeq	r3, r3, r0
 584:	50000100 	andpl	r0, r0, r0, lsl #2
 588:	00000330 	andeq	r0, r0, r0, lsr r3
 58c:	00000360 	andeq	r0, r0, r0, ror #6
 590:	9f300002 	svcls	0x00300002
 594:	00000360 	andeq	r0, r0, r0, ror #6
 598:	00000364 	andeq	r0, r0, r4, ror #6
 59c:	64500001 	ldrbvs	r0, [r0], #-1
 5a0:	9c000003 	stcls	0, cr0, [r0], {3}
 5a4:	02000003 	andeq	r0, r0, #3
 5a8:	9c9f3000 	ldcls	0, cr3, [pc], {0}
 5ac:	a0000003 	andge	r0, r0, r3
 5b0:	01000003 	tsteq	r0, r3
 5b4:	03a05000 	moveq	r5, #0
 5b8:	03c00000 	biceq	r0, r0, #0
 5bc:	00010000 	andeq	r0, r1, r0
 5c0:	0000005a 	andeq	r0, r0, sl, asr r0
 5c4:	00000000 	andeq	r0, r0, r0
 5c8:	0003e800 	andeq	lr, r3, r0, lsl #16
 5cc:	0003f800 	andeq	pc, r3, r0, lsl #16
 5d0:	30000200 	andcc	r0, r0, r0, lsl #4
 5d4:	0000009f 	muleq	r0, pc, r0	; <UNPREDICTABLE>
 5d8:	00000000 	andeq	r0, r0, r0
 5dc:	00061800 	andeq	r1, r6, r0, lsl #16
 5e0:	00062402 	andeq	r2, r6, r2, lsl #8
 5e4:	50000102 	andpl	r0, r0, r2, lsl #2
 5e8:	02000624 	andeq	r0, r0, #36, 12	; 0x2400000
 5ec:	02000634 	andeq	r0, r0, #52, 12	; 0x3400000
 5f0:	01f30004 	mvnseq	r0, r4
 5f4:	00009f50 	andeq	r9, r0, r0, asr pc
 5f8:	00000000 	andeq	r0, r0, r0
 5fc:	06180000 	ldreq	r0, [r8], -r0
 600:	06180200 	ldreq	r0, [r8], -r0, lsl #4
 604:	00010200 	andeq	r0, r1, r0, lsl #4
 608:	00061852 	andeq	r1, r6, r2, asr r8
 60c:	00062402 	andeq	r2, r6, r2, lsl #8
 610:	72000302 	andvc	r0, r0, #134217728	; 0x8000000
 614:	06249f7f 	qsub16eq	r9, r4, pc	; <UNPREDICTABLE>
 618:	06280200 	strteq	r0, [r8], -r0, lsl #4
 61c:	000b0200 	andeq	r0, fp, r0, lsl #4
 620:	f3200070 	vqadd.u32	q0, q0, q8
 624:	70225201 	eorvc	r5, r2, r1, lsl #4
 628:	289f2200 	ldmcs	pc, {r9, sp}	; <UNPREDICTABLE>
 62c:	34020006 	strcc	r0, [r2], #-6
 630:	0b020006 	bleq	80650 <__PROGRAM_SIZE+0x7664c>
 634:	20007000 	andcs	r7, r0, r0
 638:	f3220070 	vqadd.u32	q0, q1, q8
 63c:	9f225201 	svcls	0x00225201
	...
 648:	02000634 	andeq	r0, r0, #52, 12	; 0x3400000
 64c:	02000648 	andeq	r0, r0, #72, 12	; 0x4800000
 650:	48500001 	ldmdami	r0, {r0}^
 654:	c4020006 	strgt	r0, [r2], #-6
 658:	01020006 	tsteq	r2, r6
 65c:	06c45300 	strbeq	r5, [r4], r0, lsl #6
 660:	06fc0200 	ldrbteq	r0, [ip], r0, lsl #4
 664:	00040200 	andeq	r0, r4, r0, lsl #4
 668:	9f5001f3 	svcls	0x005001f3
 66c:	020006fc 	andeq	r0, r0, #252, 12	; 0xfc00000
 670:	0200070c 	andeq	r0, r0, #12, 14	; 0x300000
 674:	0c530001 	mrrceq	0, 0, r0, r3, cr1
 678:	24020007 	strcs	r0, [r2], #-7
 67c:	04020007 	streq	r0, [r2], #-7
 680:	5001f300 	andpl	pc, r1, r0, lsl #6
 684:	0000009f 	muleq	r0, pc, r0	; <UNPREDICTABLE>
 688:	00000000 	andeq	r0, r0, r0
 68c:	00063400 	andeq	r3, r6, r0, lsl #8
 690:	00063802 	andeq	r3, r6, r2, lsl #16
 694:	52000102 	andpl	r0, r0, #-2147483648	; 0x80000000
 698:	02000638 	andeq	r0, r0, #56, 12	; 0x3800000
 69c:	0200068c 	andeq	r0, r0, #140, 12	; 0x8c00000
 6a0:	d05e0001 	subsle	r0, lr, r1
 6a4:	dc020006 	stcle	0, cr0, [r2], {6}
 6a8:	01020006 	tsteq	r2, r6
 6ac:	06dc5e00 	ldrbeq	r5, [ip], r0, lsl #28
 6b0:	06ec0200 	strbteq	r0, [ip], r0, lsl #4
 6b4:	00030200 	andeq	r0, r3, r0, lsl #4
 6b8:	ec9f7f7e 	ldc	15, cr7, [pc], {126}	; 0x7e
 6bc:	f4020006 	vst4.8	{d0-d3}, [r2], r6
 6c0:	03020006 	movweq	r0, #8198	; 0x2006
 6c4:	9f7e7e00 	svcls	0x007e7e00
 6c8:	02000704 	andeq	r0, r0, #4, 14	; 0x100000
 6cc:	0200070c 	andeq	r0, r0, #12, 14	; 0x300000
 6d0:	0c5e0001 	mrrceq	0, 0, r0, lr, cr1
 6d4:	1c020007 	stcne	0, cr0, [r2], {7}
 6d8:	0b020007 	bleq	806fc <__PROGRAM_SIZE+0x766f8>
 6dc:	20007300 	andcs	r7, r0, r0, lsl #6
 6e0:	f3220073 	vqadd.u32	q0, q1, <illegal reg q9.5>
 6e4:	9f225201 	svcls	0x00225201
	...
 6f0:	02000638 	andeq	r0, r0, #56, 12	; 0x3800000
 6f4:	020006a8 	andeq	r0, r0, #168, 12	; 0xa800000
 6f8:	d0510001 	subsle	r0, r1, r1
 6fc:	e0020006 	and	r0, r2, r6
 700:	03020006 	movweq	r0, #8198	; 0x2006
 704:	9f017c00 	svcls	0x00017c00
 708:	020006e0 	andeq	r0, r0, #224, 12	; 0xe000000
 70c:	020006ec 	andeq	r0, r0, #236, 12	; 0xec00000
 710:	027c0003 	rsbseq	r0, ip, #3
 714:	0006ec9f 	muleq	r6, pc, ip	; <UNPREDICTABLE>
 718:	0006f402 	andeq	pc, r6, r2, lsl #8
 71c:	7c000302 	stcvc	3, cr0, [r0], {2}
 720:	06fc9f03 	ldrbteq	r9, [ip], r3, lsl #30
 724:	070c0200 	streq	r0, [ip, -r0, lsl #4]
 728:	00010200 	andeq	r0, r1, r0, lsl #4
 72c:	00000051 	andeq	r0, r0, r1, asr r0
 730:	00000000 	andeq	r0, r0, r0
 734:	0006d000 	andeq	sp, r6, r0
 738:	0006e002 	andeq	lr, r6, r2
 73c:	73000302 	movwvc	r0, #770	; 0x302
 740:	06e09f01 	strbteq	r9, [r0], r1, lsl #30
 744:	06ec0200 	strbteq	r0, [ip], r0, lsl #4
 748:	00030200 	andeq	r0, r3, r0, lsl #4
 74c:	ec9f0273 	lfm	f0, 4, [pc], {115}	; 0x73
 750:	f0020006 			; <UNDEFINED> instruction: 0xf0020006
 754:	03020006 	movweq	r0, #8198	; 0x2006
 758:	9f037300 	svcls	0x00037300
 75c:	0200070c 	andeq	r0, r0, #12, 14	; 0x300000
 760:	02000710 	andeq	r0, r0, #16, 14	; 0x400000
 764:	10530001 	subsne	r0, r3, r1
 768:	18020007 	stmdane	r2, {r0, r1, r2}
 76c:	03020007 	movweq	r0, #8199	; 0x2007
 770:	9f7f7300 	svcls	0x007f7300
 774:	02000718 	andeq	r0, r0, #24, 14	; 0x600000
 778:	0200071c 	andeq	r0, r0, #28, 14	; 0x700000
 77c:	00530001 	subseq	r0, r3, r1
 780:	00000000 	andeq	r0, r0, r0
 784:	24000000 	strcs	r0, [r0], #-0
 788:	28020007 	stmdacs	r2, {r0, r1, r2}
 78c:	01020007 	tsteq	r2, r7
 790:	07285000 	streq	r5, [r8, -r0]!
 794:	07500200 	ldrbeq	r0, [r0, -r0, lsl #4]
 798:	00040200 	andeq	r0, r4, r0, lsl #4
 79c:	9f5001f3 	svcls	0x005001f3
	...
 7a8:	02000724 	andeq	r0, r0, #36, 14	; 0x900000
 7ac:	02000728 	andeq	r0, r0, #40, 14	; 0xa00000
 7b0:	28510001 	ldmdacs	r1, {r0}^
 7b4:	50020007 	andpl	r0, r2, r7
 7b8:	04020007 	streq	r0, [r2], #-7
 7bc:	5101f300 	mrspl	pc, SP_irq	; <UNPREDICTABLE>
 7c0:	0000009f 	muleq	r0, pc, r0	; <UNPREDICTABLE>
 7c4:	00000000 	andeq	r0, r0, r0
 7c8:	00072400 	andeq	r2, r7, r0, lsl #8
 7cc:	00072802 	andeq	r2, r7, r2, lsl #16
 7d0:	52000102 	andpl	r0, r0, #-2147483648	; 0x80000000
 7d4:	02000728 	andeq	r0, r0, #40, 14	; 0xa00000
 7d8:	02000750 	andeq	r0, r0, #80, 14	; 0x1400000
 7dc:	0071000b 	rsbseq	r0, r1, fp
 7e0:	22007120 	andcs	r7, r0, #32, 2
 7e4:	225201f3 	subscs	r0, r2, #-1073741764	; 0xc000003c
 7e8:	0000009f 	muleq	r0, pc, r0	; <UNPREDICTABLE>
 7ec:	00000000 	andeq	r0, r0, r0
 7f0:	00072400 	andeq	r2, r7, r0, lsl #8
 7f4:	00073402 	andeq	r3, r7, r2, lsl #8
 7f8:	51000102 	tstpl	r0, r2, lsl #2
 7fc:	02000734 	andeq	r0, r0, #52, 14	; 0xd00000
 800:	02000748 	andeq	r0, r0, #72, 14	; 0x1200000
 804:	7f710003 	svcvc	0x00710003
 808:	0007489f 	muleq	r7, pc, r8	; <UNPREDICTABLE>
 80c:	00075002 	andeq	r5, r7, r2
 810:	51000102 	tstpl	r0, r2, lsl #2
	...
 81c:	02000724 	andeq	r0, r0, #36, 14	; 0x900000
 820:	02000738 	andeq	r0, r0, #56, 14	; 0xe00000
 824:	38500001 	ldmdacc	r0, {r0}^
 828:	44020007 	strmi	r0, [r2], #-7
 82c:	03020007 	movweq	r0, #8199	; 0x2007
 830:	9f7f7000 	svcls	0x007f7000
 834:	02000748 	andeq	r0, r0, #72, 14	; 0x1200000
 838:	0200074c 	andeq	r0, r0, #76, 14	; 0x1300000
 83c:	00500001 	subseq	r0, r0, r1
	...
 848:	0c000000 	stceq	0, cr0, [r0], {-0}
 84c:	01000000 	mrseq	r0, (UNDEF: 0)
 850:	000c5000 	andeq	r5, ip, r0
 854:	000f0000 	andeq	r0, pc, r0
 858:	00010000 	andeq	r0, r1, r0
 85c:	00000f51 	andeq	r0, r0, r1, asr pc
 860:	00001400 	andeq	r1, r0, r0, lsl #8
 864:	f3000400 	vshl.u8	d0, d0, d0
 868:	009f5001 	addseq	r5, pc, r1
	...
 874:	23000000 	movwcs	r0, #0
 878:	01000000 	mrseq	r0, (UNDEF: 0)
 87c:	00235000 	eoreq	r5, r3, r0
 880:	002c0000 	eoreq	r0, ip, r0
 884:	00040000 	andeq	r0, r4, r0
 888:	9f5001f3 	svcls	0x005001f3
	...
 894:	0000000c 	andeq	r0, r0, ip
 898:	00000023 	andeq	r0, r0, r3, lsr #32
 89c:	23500001 	cmpcs	r0, #1
 8a0:	2c000000 	stccs	0, cr0, [r0], {-0}
 8a4:	04000000 	streq	r0, [r0], #-0
 8a8:	5001f300 	andpl	pc, r1, r0, lsl #6
 8ac:	0000009f 	muleq	r0, pc, r0	; <UNPREDICTABLE>
	...
 8b8:	00000800 	andeq	r0, r0, r0, lsl #16
 8bc:	50000100 	andpl	r0, r0, r0, lsl #2
 8c0:	00000008 	andeq	r0, r0, r8
 8c4:	00000058 	andeq	r0, r0, r8, asr r0
 8c8:	01f30004 	mvnseq	r0, r4
 8cc:	00009f50 	andeq	r9, r0, r0, asr pc
	...
 8d8:	001c0000 	andseq	r0, ip, r0
 8dc:	00010000 	andeq	r0, r1, r0
 8e0:	00001c51 	andeq	r1, r0, r1, asr ip
 8e4:	00005800 	andeq	r5, r0, r0, lsl #16
 8e8:	f3000400 	vshl.u8	d0, d0, d0
 8ec:	009f5101 	addseq	r5, pc, r1, lsl #2
 8f0:	00000000 	andeq	r0, r0, r0
 8f4:	1c000000 	stcne	0, cr0, [r0], {-0}
 8f8:	44000000 	strmi	r0, [r0], #-0
 8fc:	01000000 	mrseq	r0, (UNDEF: 0)
 900:	00005100 	andeq	r5, r0, r0, lsl #2
 904:	00000000 	andeq	r0, r0, r0
 908:	00580000 	subseq	r0, r8, r0
 90c:	00600000 	rsbeq	r0, r0, r0
 910:	00010000 	andeq	r0, r1, r0
 914:	00006050 	andeq	r6, r0, r0, asr r0
 918:	00007400 	andeq	r7, r0, r0, lsl #8
 91c:	f3000400 	vshl.u8	d0, d0, d0
 920:	009f5001 	addseq	r5, pc, r1
 924:	00000000 	andeq	r0, r0, r0
 928:	5c000000 	stcpl	0, cr0, [r0], {-0}
 92c:	60000000 	andvs	r0, r0, r0
 930:	0f000000 	svceq	0x00000000
 934:	06007300 	streq	r7, [r0], -r0, lsl #6
 938:	71061023 	tstvc	r6, r3, lsr #32
 93c:	00701e00 	rsbseq	r1, r0, r0, lsl #28
 940:	9f221e33 	svcls	0x00221e33
 944:	00000060 	andeq	r0, r0, r0, rrx
 948:	00000064 	andeq	r0, r0, r4, rrx
 94c:	00730010 	rsbseq	r0, r3, r0, lsl r0
 950:	06102306 	ldreq	r2, [r0], -r6, lsl #6
 954:	f31e0071 	vqadd.u16	q0, q7, <illegal reg q8.5>
 958:	1e335001 	cdpne	0, 3, cr5, cr3, cr1, {0}
 95c:	00649f22 	rsbeq	r9, r4, r2, lsr #30
 960:	00680000 	rsbeq	r0, r8, r0
 964:	000d0000 	andeq	r0, sp, r0
 968:	71061073 	tstvc	r6, r3, ror r0
 96c:	01f31e00 	mvnseq	r1, r0, lsl #28
 970:	221e3350 	andscs	r3, lr, #80, 6	; 0x40000001
 974:	0000009f 	muleq	r0, pc, r0	; <UNPREDICTABLE>
 978:	00000000 	andeq	r0, r0, r0
 97c:	00007400 	andeq	r7, r0, r0, lsl #8
 980:	00008800 	andeq	r8, r0, r0, lsl #16
 984:	50000100 	andpl	r0, r0, r0, lsl #2
 988:	00000088 	andeq	r0, r0, r8, lsl #1
 98c:	00000094 	muleq	r0, r4, r0
 990:	01f30004 	mvnseq	r0, r4
 994:	00009f50 	andeq	r9, r0, r0, asr pc
 998:	00000000 	andeq	r0, r0, r0
 99c:	00ac0000 	adceq	r0, ip, r0
 9a0:	00c80000 	sbceq	r0, r8, r0
 9a4:	00010000 	andeq	r0, r1, r0
 9a8:	0000c850 	andeq	ip, r0, r0, asr r8
 9ac:	00013800 	andeq	r3, r1, r0, lsl #16
 9b0:	f3000400 	vshl.u8	d0, d0, d0
 9b4:	009f5001 	addseq	r5, pc, r1
 9b8:	00000000 	andeq	r0, r0, r0
 9bc:	ac000000 	stcge	0, cr0, [r0], {-0}
 9c0:	cc000000 	stcgt	0, cr0, [r0], {-0}
 9c4:	01000000 	mrseq	r0, (UNDEF: 0)
 9c8:	00cc5200 	sbceq	r5, ip, r0, lsl #4
 9cc:	01380000 	teqeq	r8, r0
 9d0:	00040000 	andeq	r0, r4, r0
 9d4:	9f5201f3 	svcls	0x005201f3
	...
 9e0:	000000ac 	andeq	r0, r0, ip, lsr #1
 9e4:	000000c8 	andeq	r0, r0, r8, asr #1
 9e8:	c8500001 	ldmdagt	r0, {r0}^
 9ec:	cc000000 	stcgt	0, cr0, [r0], {-0}
 9f0:	04000000 	streq	r0, [r0], #-0
 9f4:	5001f300 	andpl	pc, r1, r0, lsl #6
 9f8:	0000009f 	muleq	r0, pc, r0	; <UNPREDICTABLE>
 9fc:	00000000 	andeq	r0, r0, r0
 a00:	0000cc00 	andeq	ip, r0, r0, lsl #24
 a04:	0000d800 	andeq	sp, r0, r0, lsl #16
 a08:	51000100 	mrspl	r0, (UNDEF: 16)
 a0c:	000000d8 	ldrdeq	r0, [r0], -r8
 a10:	0000011c 	andeq	r0, r0, ip, lsl r1
 a14:	005e0001 	subseq	r0, lr, r1
 a18:	00000000 	andeq	r0, r0, r0
 a1c:	d8000000 	stmdale	r0, {}	; <UNPREDICTABLE>
 a20:	08000000 	stmdaeq	r0, {}	; <UNPREDICTABLE>
 a24:	01000001 	tsteq	r0, r1
 a28:	01085e00 	tsteq	r8, r0, lsl #28
 a2c:	011c0000 	tsteq	ip, r0
 a30:	00030000 	andeq	r0, r3, r0
 a34:	009f7f7e 	addseq	r7, pc, lr, ror pc	; <UNPREDICTABLE>
 a38:	00000000 	andeq	r0, r0, r0
 a3c:	ec000000 	stc	0, cr0, [r0], {-0}
 a40:	10000000 	andne	r0, r0, r0
 a44:	01000001 	tsteq	r0, r1
 a48:	00005c00 	andeq	r5, r0, r0, lsl #24
	...
 a54:	00140000 	andseq	r0, r4, r0
 a58:	00010000 	andeq	r0, r1, r0
 a5c:	00001450 	andeq	r1, r0, r0, asr r4
 a60:	00002000 	andeq	r2, r0, r0
 a64:	f3000400 	vshl.u8	d0, d0, d0
 a68:	009f5001 	addseq	r5, pc, r1
 a6c:	00000000 	andeq	r0, r0, r0
 a70:	20000000 	andcs	r0, r0, r0
 a74:	34000000 	strcc	r0, [r0], #-0
 a78:	01000000 	mrseq	r0, (UNDEF: 0)
 a7c:	00345000 	eorseq	r5, r4, r0
 a80:	00400000 	subeq	r0, r0, r0
 a84:	00040000 	andeq	r0, r4, r0
 a88:	9f5001f3 	svcls	0x005001f3
	...
 a94:	00000050 	andeq	r0, r0, r0, asr r0
 a98:	00000080 	andeq	r0, r0, r0, lsl #1
 a9c:	80500001 	subshi	r0, r0, r1
 aa0:	7c000000 	stcvc	0, cr0, [r0], {-0}
 aa4:	04000001 	streq	r0, [r0], #-1
 aa8:	5001f300 	andpl	pc, r1, r0, lsl #6
 aac:	0000009f 	muleq	r0, pc, r0	; <UNPREDICTABLE>
 ab0:	00000000 	andeq	r0, r0, r0
 ab4:	00005000 	andeq	r5, r0, r0
 ab8:	0000a000 	andeq	sl, r0, r0
 abc:	51000100 	mrspl	r0, (UNDEF: 16)
 ac0:	000000a0 	andeq	r0, r0, r0, lsr #1
 ac4:	0000017c 	andeq	r0, r0, ip, ror r1
 ac8:	01f30004 	mvnseq	r0, r4
 acc:	00009f51 	andeq	r9, r0, r1, asr pc
 ad0:	00000000 	andeq	r0, r0, r0
 ad4:	00500000 	subseq	r0, r0, r0
 ad8:	00740000 	rsbseq	r0, r4, r0
 adc:	00010000 	andeq	r0, r1, r0
 ae0:	00007452 	andeq	r7, r0, r2, asr r4
 ae4:	00017c00 	andeq	r7, r1, r0, lsl #24
 ae8:	f3000400 	vshl.u8	d0, d0, d0
 aec:	009f5201 	addseq	r5, pc, r1, lsl #4
 af0:	00000000 	andeq	r0, r0, r0
 af4:	5c000000 	stcpl	0, cr0, [r0], {-0}
 af8:	74000000 	strvc	r0, [r0], #-0
 afc:	01000000 	mrseq	r0, (UNDEF: 0)
 b00:	00745200 	rsbseq	r5, r4, r0, lsl #4
 b04:	00980000 	addseq	r0, r8, r0
 b08:	00040000 	andeq	r0, r4, r0
 b0c:	9f5201f3 	svcls	0x005201f3
 b10:	00000098 	muleq	r0, r8, r0
 b14:	000000a0 	andeq	r0, r0, r0, lsr #1
 b18:	a0520001 	subsge	r0, r2, r1
 b1c:	7c000000 	stcvc	0, cr0, [r0], {-0}
 b20:	08000001 	stmdaeq	r0, {r0}
 b24:	5201f300 	andpl	pc, r1, #0, 6
 b28:	24321e37 	ldrtcs	r1, [r2], #-3639	; 0xfffff1c9
 b2c:	0000009f 	muleq	r0, pc, r0	; <UNPREDICTABLE>
 b30:	00000000 	andeq	r0, r0, r0
 b34:	00005c00 	andeq	r5, r0, r0, lsl #24
 b38:	0000a000 	andeq	sl, r0, r0
 b3c:	71000500 	tstvc	r0, r0, lsl #10
 b40:	9f243400 	svcls	0x00243400
 b44:	000000a0 	andeq	r0, r0, r0, lsr #1
 b48:	0000017c 	andeq	r0, r0, ip, ror r1
 b4c:	01f30006 	mvnseq	r0, r6
 b50:	9f243451 	svcls	0x00243451
	...
 b5c:	0000005c 	andeq	r0, r0, ip, asr r0
 b60:	00000080 	andeq	r0, r0, r0, lsl #1
 b64:	80500001 	subshi	r0, r0, r1
 b68:	7c000000 	stcvc	0, cr0, [r0], {-0}
 b6c:	04000001 	streq	r0, [r0], #-1
 b70:	5001f300 	andpl	pc, r1, r0, lsl #6
 b74:	0000009f 	muleq	r0, pc, r0	; <UNPREDICTABLE>
 b78:	00000000 	andeq	r0, r0, r0
 b7c:	00009800 	andeq	r9, r0, r0, lsl #16
 b80:	0000a000 	andeq	sl, r0, r0
 b84:	30000200 	andcc	r0, r0, r0, lsl #4
 b88:	0000a09f 	muleq	r0, pc, r0	; <UNPREDICTABLE>
 b8c:	00016c00 	andeq	r6, r1, r0, lsl #24
 b90:	56000100 	strpl	r0, [r0], -r0, lsl #2
	...
 b9c:	000000a0 	andeq	r0, r0, r0, lsr #1
 ba0:	000000b4 	strheq	r0, [r0], -r4
 ba4:	9f300002 	svcls	0x00300002
 ba8:	000000b4 	strheq	r0, [r0], -r4
 bac:	0000017c 	andeq	r0, r0, ip, ror r1
 bb0:	00510001 	subseq	r0, r1, r1
 bb4:	00000000 	andeq	r0, r0, r0
 bb8:	b4000000 	strlt	r0, [r0], #-0
 bbc:	e0000000 	and	r0, r0, r0
 bc0:	01000000 	mrseq	r0, (UNDEF: 0)
 bc4:	01185300 	tsteq	r8, r0, lsl #6
 bc8:	01480000 	mrseq	r0, (UNDEF: 72)
 bcc:	00010000 	andeq	r0, r1, r0
 bd0:	00000053 	andeq	r0, r0, r3, asr r0
 bd4:	00000000 	andeq	r0, r0, r0
 bd8:	00017c00 	andeq	r7, r1, r0, lsl #24
 bdc:	00019700 	andeq	r9, r1, r0, lsl #14
 be0:	50000100 	andpl	r0, r0, r0, lsl #2
 be4:	00000197 	muleq	r0, r7, r1
 be8:	000001a4 	andeq	r0, r0, r4, lsr #3
 bec:	a4570001 	ldrbge	r0, [r7], #-1
 bf0:	af000001 	svcge	0x00000001
 bf4:	01000001 	tsteq	r0, r1
 bf8:	01af5000 			; <UNDEFINED> instruction: 0x01af5000
 bfc:	01ec0000 	mvneq	r0, r0
 c00:	00010000 	andeq	r0, r1, r0
 c04:	00000057 	andeq	r0, r0, r7, asr r0
 c08:	00000000 	andeq	r0, r0, r0
 c0c:	00017c00 	andeq	r7, r1, r0, lsl #24
 c10:	00019700 	andeq	r9, r1, r0, lsl #14
 c14:	51000100 	mrspl	r0, (UNDEF: 16)
 c18:	00000197 	muleq	r0, r7, r1
 c1c:	000001a4 	andeq	r0, r0, r4, lsr #3
 c20:	a4550001 	ldrbge	r0, [r5], #-1
 c24:	af000001 	svcge	0x00000001
 c28:	01000001 	tsteq	r0, r1
 c2c:	01af5100 			; <UNDEFINED> instruction: 0x01af5100
 c30:	01cc0000 	biceq	r0, ip, r0
 c34:	00010000 	andeq	r0, r1, r0
 c38:	00000055 	andeq	r0, r0, r5, asr r0
 c3c:	00000000 	andeq	r0, r0, r0
 c40:	00017c00 	andeq	r7, r1, r0, lsl #24
 c44:	00019700 	andeq	r9, r1, r0, lsl #14
 c48:	52000100 	andpl	r0, r0, #0, 2
 c4c:	00000197 	muleq	r0, r7, r1
 c50:	000001a4 	andeq	r0, r0, r4, lsr #3
 c54:	a4560001 	ldrbge	r0, [r6], #-1
 c58:	af000001 	svcge	0x00000001
 c5c:	01000001 	tsteq	r0, r1
 c60:	01af5200 			; <UNDEFINED> instruction: 0x01af5200
 c64:	01ec0000 	mvneq	r0, r0
 c68:	00010000 	andeq	r0, r1, r0
 c6c:	00000056 	andeq	r0, r0, r6, asr r0
 c70:	00000000 	andeq	r0, r0, r0
 c74:	00017c00 	andeq	r7, r1, r0, lsl #24
 c78:	00019700 	andeq	r9, r1, r0, lsl #14
 c7c:	53000100 	movwpl	r0, #256	; 0x100
 c80:	00000197 	muleq	r0, r7, r1
 c84:	000001a4 	andeq	r0, r0, r4, lsr #3
 c88:	01f30004 	mvnseq	r0, r4
 c8c:	01a49f53 			; <UNDEFINED> instruction: 0x01a49f53
 c90:	01af0000 			; <UNDEFINED> instruction: 0x01af0000
 c94:	00010000 	andeq	r0, r1, r0
 c98:	0001af53 	andeq	sl, r1, r3, asr pc
 c9c:	0001ec00 	andeq	lr, r1, r0, lsl #24
 ca0:	f3000400 	vshl.u8	d0, d0, d0
 ca4:	009f5301 	addseq	r5, pc, r1, lsl #6
 ca8:	00000000 	andeq	r0, r0, r0
 cac:	8c000000 	stchi	0, cr0, [r0], {-0}
 cb0:	cc000001 	stcgt	0, cr0, [r0], {1}
 cb4:	02000001 	andeq	r0, r0, #1
 cb8:	cc9f3000 	ldcgt	0, cr3, [pc], {0}
 cbc:	dc000001 	stcle	0, cr0, [r0], {1}
 cc0:	06000001 	streq	r0, [r0], -r1
 cc4:	77007400 	strvc	r7, [r0, -r0, lsl #8]
 cc8:	dc9f1c00 	ldcle	12, cr1, [pc], {0}
 ccc:	e0000001 	and	r0, r0, r1
 cd0:	08000001 	stmdaeq	r0, {r0}
 cd4:	77007400 	strvc	r7, [r0, -r0, lsl #8]
 cd8:	01231c00 	teqeq	r3, r0, lsl #24
 cdc:	0001e09f 	muleq	r1, pc, r0	; <UNPREDICTABLE>
 ce0:	0001ec00 	andeq	lr, r1, r0, lsl #24
 ce4:	74000600 	strvc	r0, [r0], #-1536	; 0xfffffa00
 ce8:	1c007700 	stcne	7, cr7, [r0], {-0}
 cec:	0000009f 	muleq	r0, pc, r0	; <UNPREDICTABLE>
 cf0:	00000000 	andeq	r0, r0, r0
 cf4:	0001bc00 	andeq	fp, r1, r0, lsl #24
 cf8:	0001db00 	andeq	sp, r1, r0, lsl #22
 cfc:	50000100 	andpl	r0, r0, r0, lsl #2
 d00:	000001e0 	andeq	r0, r0, r0, ror #3
 d04:	000001ec 	andeq	r0, r0, ip, ror #3
 d08:	00500001 	subseq	r0, r0, r1
 d0c:	00000000 	andeq	r0, r0, r0
 d10:	ec000000 	stc	0, cr0, [r0], {-0}
 d14:	00000001 	andeq	r0, r0, r1
 d18:	01000002 	tsteq	r0, r2
 d1c:	02005200 	andeq	r5, r0, #0, 4
 d20:	02200000 	eoreq	r0, r0, #0
 d24:	00040000 	andeq	r0, r4, r0
 d28:	9f5201f3 	svcls	0x005201f3
	...
 d34:	000001ec 	andeq	r0, r0, ip, ror #3
 d38:	00000208 	andeq	r0, r0, r8, lsl #4
 d3c:	08530001 	ldmdaeq	r3, {r0}^
 d40:	20000002 	andcs	r0, r0, r2
 d44:	04000002 	streq	r0, [r0], #-2
 d48:	5301f300 	movwpl	pc, #4864	; 0x1300	; <UNPREDICTABLE>
 d4c:	0000009f 	muleq	r0, pc, r0	; <UNPREDICTABLE>
 d50:	00000000 	andeq	r0, r0, r0
 d54:	00001800 	andeq	r1, r0, r0, lsl #16
 d58:	00002400 	andeq	r2, r0, r0, lsl #8
 d5c:	50000100 	andpl	r0, r0, r0, lsl #2
 d60:	00000024 	andeq	r0, r0, r4, lsr #32
 d64:	00000033 	andeq	r0, r0, r3, lsr r0
 d68:	00530001 	subseq	r0, r3, r1
	...
 d74:	0f000000 	svceq	0x00000000
 d78:	01000000 	mrseq	r0, (UNDEF: 0)
 d7c:	000f5000 	andeq	r5, pc, r0
 d80:	00180000 	andseq	r0, r8, r0
 d84:	00040000 	andeq	r0, r4, r0
 d88:	9f5001f3 	svcls	0x005001f3
	...
 d98:	0000000f 	andeq	r0, r0, pc
 d9c:	0f510001 	svceq	0x00510001
 da0:	18000000 	stmdane	r0, {}	; <UNPREDICTABLE>
 da4:	04000000 	streq	r0, [r0], #-0
 da8:	5101f300 	mrspl	pc, SP_irq	; <UNPREDICTABLE>
 dac:	0000009f 	muleq	r0, pc, r0	; <UNPREDICTABLE>
 db0:	00000000 	andeq	r0, r0, r0
 db4:	000bbc00 	andeq	fp, fp, r0, lsl #24
 db8:	000bd802 	andeq	sp, fp, r2, lsl #16
 dbc:	50000102 	andpl	r0, r0, r2, lsl #2
 dc0:	02000bd8 	andeq	r0, r0, #216, 22	; 0x36000
 dc4:	02000bf4 	andeq	r0, r0, #244, 22	; 0x3d000
 dc8:	00540001 	subseq	r0, r4, r1
 dcc:	00000000 	andeq	r0, r0, r0
 dd0:	bc000000 	stclt	0, cr0, [r0], {-0}
 dd4:	d402000b 	strle	r0, [r2], #-11
 dd8:	0102000b 	tsteq	r2, fp
 ddc:	0bd45100 	bleq	ff5151e4 <__PROGRAM_END+0xfd50b1b8>
 de0:	0bf40200 	bleq	ffd015e8 <__PROGRAM_END+0xfdcf75bc>
 de4:	00010200 	andeq	r0, r1, r0, lsl #4
 de8:	00000055 	andeq	r0, r0, r5, asr r0
 dec:	00000000 	andeq	r0, r0, r0
 df0:	000bf400 	andeq	pc, fp, r0, lsl #8
 df4:	000c0002 	andeq	r0, ip, r2
 df8:	50000102 	andpl	r0, r0, r2, lsl #2
 dfc:	02000c00 	andeq	r0, r0, #0, 24
 e00:	02000c03 	andeq	r0, r0, #768	; 0x300
 e04:	03510001 	cmpeq	r1, #1
 e08:	0802000c 	stmdaeq	r2, {r2, r3}
 e0c:	0402000c 	streq	r0, [r2], #-12
 e10:	5001f300 	andpl	pc, r1, r0, lsl #6
 e14:	0000009f 	muleq	r0, pc, r0	; <UNPREDICTABLE>
	...
 e20:	00001002 	andeq	r1, r0, r2
 e24:	50000102 	andpl	r0, r0, r2, lsl #2
 e28:	02000010 	andeq	r0, r0, #16
 e2c:	02000013 	andeq	r0, r0, #19
 e30:	20030005 	andcs	r0, r3, r5
 e34:	130200a0 	movwne	r0, #8352	; 0x20a0
 e38:	28020000 	stmdacs	r2, {}	; <UNPREDICTABLE>
 e3c:	04020000 	streq	r0, [r2], #-0
 e40:	5001f300 	andpl	pc, r1, r0, lsl #6
 e44:	0000009f 	muleq	r0, pc, r0	; <UNPREDICTABLE>
 e48:	00000000 	andeq	r0, r0, r0
	...

Disassembly of section .debug_aranges:

00000000 <.debug_aranges>:
   0:	0000001c 	andeq	r0, r0, ip, lsl r0
   4:	00000002 	andeq	r0, r0, r2
   8:	00040000 	andeq	r0, r4, r0
   c:	00000000 	andeq	r0, r0, r0
  10:	02000028 	andeq	r0, r0, #40	; 0x28
  14:	00000020 	andeq	r0, r0, r0, lsr #32
	...
  20:	0000001c 	andeq	r0, r0, ip, lsl r0
  24:	01920002 	orrseq	r0, r2, r2
  28:	00040000 	andeq	r0, r4, r0
  2c:	00000000 	andeq	r0, r0, r0
  30:	02000048 	andeq	r0, r0, #72	; 0x48
  34:	00000168 	andeq	r0, r0, r8, ror #2
	...
  40:	0000001c 	andeq	r0, r0, ip, lsl r0
  44:	05f30002 	ldrbeq	r0, [r3, #2]!
  48:	00040000 	andeq	r0, r4, r0
  4c:	00000000 	andeq	r0, r0, r0
  50:	020001b0 	andeq	r0, r0, #176, 2	; 0x2c
  54:	00000040 	andeq	r0, r0, r0, asr #32
	...
  60:	0000001c 	andeq	r0, r0, ip, lsl r0
  64:	075d0002 	ldrbeq	r0, [sp, -r2]
  68:	00040000 	andeq	r0, r4, r0
  6c:	00000000 	andeq	r0, r0, r0
  70:	020001f0 	andeq	r0, r0, #240, 2	; 0x3c
  74:	00000420 	andeq	r0, r0, r0, lsr #8
	...
  80:	0000001c 	andeq	r0, r0, ip, lsl r0
  84:	0d0f0002 	stceq	0, cr0, [pc, #-8]	; 84 <__PROGRAM_SIZE-0x9f80>
  88:	00040000 	andeq	r0, r4, r0
  8c:	00000000 	andeq	r0, r0, r0
  90:	02000610 	andeq	r0, r0, #16, 12	; 0x1000000
  94:	00000008 	andeq	r0, r0, r8
	...
  a0:	0000001c 	andeq	r0, r0, ip, lsl r0
  a4:	0d660002 	stcleq	0, cr0, [r6, #-8]!
  a8:	00040000 	andeq	r0, r4, r0
  ac:	00000000 	andeq	r0, r0, r0
  b0:	02000618 	andeq	r0, r0, #24, 12	; 0x1800000
  b4:	00000138 	andeq	r0, r0, r8, lsr r1
	...
  c0:	0000001c 	andeq	r0, r0, ip, lsl r0
  c4:	0eff0002 	cdpeq	0, 15, cr0, cr15, cr2, {0}
  c8:	00040000 	andeq	r0, r4, r0
  cc:	00000000 	andeq	r0, r0, r0
  d0:	02000750 	andeq	r0, r0, #80, 14	; 0x1400000
  d4:	0000003c 	andeq	r0, r0, ip, lsr r0
	...
  e0:	0000001c 	andeq	r0, r0, ip, lsl r0
  e4:	10c70002 	sbcne	r0, r7, r2
  e8:	00040000 	andeq	r0, r4, r0
  ec:	00000000 	andeq	r0, r0, r0
  f0:	0200078c 	andeq	r0, r0, #140, 14	; 0x2300000
  f4:	0000003c 	andeq	r0, r0, ip, lsr r0
	...
 100:	0000001c 	andeq	r0, r0, ip, lsl r0
 104:	12460002 	subne	r0, r6, #2
 108:	00040000 	andeq	r0, r4, r0
 10c:	00000000 	andeq	r0, r0, r0
 110:	020007c8 	andeq	r0, r0, #200, 14	; 0x3200000
 114:	00000138 	andeq	r0, r0, r8, lsr r1
	...
 120:	0000001c 	andeq	r0, r0, ip, lsl r0
 124:	16360002 	ldrtne	r0, [r6], -r2
 128:	00040000 	andeq	r0, r4, r0
 12c:	00000000 	andeq	r0, r0, r0
 130:	02000900 	andeq	r0, r0, #0, 18
 134:	00000220 	andeq	r0, r0, r0, lsr #4
	...
 140:	0000001c 	andeq	r0, r0, ip, lsl r0
 144:	1ba30002 	blne	fe8c0154 <__PROGRAM_END+0xfc8b6128>
 148:	00040000 	andeq	r0, r4, r0
 14c:	00000000 	andeq	r0, r0, r0
 150:	02000b20 	andeq	r0, r0, #32, 22	; 0x8000
 154:	00000084 	andeq	r0, r0, r4, lsl #1
	...
 160:	0000001c 	andeq	r0, r0, ip, lsl r0
 164:	1ea60002 	cdpne	0, 10, cr0, cr6, cr2, {0}
 168:	00040000 	andeq	r0, r4, r0
 16c:	00000000 	andeq	r0, r0, r0
 170:	02000ba4 	andeq	r0, r0, #164, 22	; 0x29000
 174:	00000018 	andeq	r0, r0, r8, lsl r0
	...
 180:	00000024 	andeq	r0, r0, r4, lsr #32
 184:	1ff00002 	svcne	0x00f00002
 188:	00040000 	andeq	r0, r4, r0
 18c:	00000000 	andeq	r0, r0, r0
 190:	02000bbc 	andeq	r0, r0, #188, 22	; 0x2f000
 194:	0000004c 	andeq	r0, r0, ip, asr #32
 198:	02000000 	andeq	r0, r0, #0
 19c:	00000028 	andeq	r0, r0, r8, lsr #32
	...

Disassembly of section .debug_line:

00000000 <.debug_line>:
   0:	000000db 	ldrdeq	r0, [r0], -fp
   4:	00c60002 	sbceq	r0, r6, r2
   8:	01020000 	mrseq	r0, (UNDEF: 2)
   c:	000d0efb 	strdeq	r0, [sp], -fp
  10:	01010101 	tsteq	r1, r1, lsl #2
  14:	01000000 	mrseq	r0, (UNDEF: 0)
  18:	73010000 	movwvc	r0, #4096	; 0x1000
  1c:	6372756f 	cmnvs	r2, #465567744	; 0x1bc00000
  20:	752f0065 	strvc	r0, [pc, #-101]!	; ffffffc3 <__PROGRAM_END+0xfdff5f97>
  24:	612f7273 	teqvs	pc, r3, ror r2	; <UNPREDICTABLE>
  28:	6e2d6d72 	mcrvs	13, 1, r6, cr13, cr2, {3}
  2c:	2d656e6f 	stclcs	14, cr6, [r5, #-444]!	; 0xfffffe44
  30:	69626165 	stmdbvs	r2!, {r0, r2, r5, r6, r8, sp, lr}^
  34:	636e692f 	cmnvs	lr, #770048	; 0xbc000
  38:	6564756c 	strbvs	r7, [r4, #-1388]!	; 0xfffffa94
  3c:	63616d2f 	cmnvs	r1, #3008	; 0xbc0
  40:	656e6968 	strbvs	r6, [lr, #-2408]!	; 0xfffff698
  44:	73752f00 	cmnvc	r5, #0, 30
  48:	72612f72 	rsbvc	r2, r1, #456	; 0x1c8
  4c:	6f6e2d6d 	svcvs	0x006e2d6d
  50:	652d656e 	strvs	r6, [sp, #-1390]!	; 0xfffffa92
  54:	2f696261 	svccs	0x00696261
  58:	6c636e69 	stclvs	14, cr6, [r3], #-420	; 0xfffffe5c
  5c:	2f656475 	svccs	0x00656475
  60:	00737973 	rsbseq	r7, r3, r3, ror r9
  64:	2e2e2f2e 	cdpcs	15, 2, cr2, cr14, cr14, {1}
  68:	2f2e2e2f 	svccs	0x002e2e2f
  6c:	432f2e2e 	teqmi	pc, #736	; 0x2e0
  70:	6f6d6d6f 	svcvs	0x006d6d6f
  74:	6e69006e 	cdpvs	0, 6, cr0, cr9, cr14, {3}
  78:	64756c63 	ldrbtvs	r6, [r5], #-3171	; 0xfffff39d
  7c:	73000065 	movwvc	r0, #101	; 0x65
  80:	656b616e 	strbvs	r6, [fp, #-366]!	; 0xfffffe92
  84:	0100632e 	tsteq	r0, lr, lsr #6
  88:	645f0000 	ldrbvs	r0, [pc], #-0	; 90 <__PROGRAM_SIZE-0x9f74>
  8c:	75616665 	strbvc	r6, [r1, #-1637]!	; 0xfffff99b
  90:	745f746c 	ldrbvc	r7, [pc], #-1132	; 98 <__PROGRAM_SIZE-0x9f6c>
  94:	73657079 	cmnvc	r5, #121	; 0x79
  98:	0200682e 	andeq	r6, r0, #3014656	; 0x2e0000
  9c:	735f0000 	cmpvc	pc, #0
  a0:	6e696474 	mcrvs	4, 3, r6, cr9, cr4, {3}
  a4:	00682e74 	rsbeq	r2, r8, r4, ror lr
  a8:	64000003 	strvs	r0, [r0], #-3
  ac:	75616665 	strbvc	r6, [r1, #-1637]!	; 0xfffff99b
  b0:	682e746c 	stmdavs	lr!, {r2, r3, r5, r6, sl, ip, sp, lr}
  b4:	00000400 	andeq	r0, r0, r0, lsl #8
  b8:	6b616e73 	blvs	185ba8c <__PROGRAM_SIZE+0x1851a88>
  bc:	00682e65 	rsbeq	r2, r8, r5, ror #28
  c0:	73000005 	movwvc	r0, #5
  c4:	65657263 	strbvs	r7, [r5, #-611]!	; 0xfffffd9d
  c8:	00682e6e 	rsbeq	r2, r8, lr, ror #28
  cc:	00000005 	andeq	r0, r0, r5
  d0:	28020500 	stmdacs	r2, {r8, sl}
  d4:	15020000 	strne	r0, [r2, #-0]
  d8:	0402834c 	streq	r8, [r2], #-844	; 0xfffffcb4
  dc:	8a010100 	bhi	404e4 <__PROGRAM_SIZE+0x364e0>
  e0:	02000001 	andeq	r0, r0, #1
  e4:	00013a00 	andeq	r3, r1, r0, lsl #20
  e8:	fb010200 	blx	408f2 <__PROGRAM_SIZE+0x368ee>
  ec:	01000d0e 	tsteq	r0, lr, lsl #26
  f0:	00010101 	andeq	r0, r1, r1, lsl #2
  f4:	00010000 	andeq	r0, r1, r0
  f8:	6f730100 	svcvs	0x00730100
  fc:	65637275 	strbvs	r7, [r3, #-629]!	; 0xfffffd8b
 100:	73752f00 	cmnvc	r5, #0, 30
 104:	72612f72 	rsbvc	r2, r1, #456	; 0x1c8
 108:	6f6e2d6d 	svcvs	0x006e2d6d
 10c:	652d656e 	strvs	r6, [sp, #-1390]!	; 0xfffffa92
 110:	2f696261 	svccs	0x00696261
 114:	6c636e69 	stclvs	14, cr6, [r3], #-420	; 0xfffffe5c
 118:	2f656475 	svccs	0x00656475
 11c:	6863616d 	stmdavs	r3!, {r0, r2, r3, r5, r6, r8, sp, lr}^
 120:	00656e69 	rsbeq	r6, r5, r9, ror #28
 124:	7273752f 	rsbsvc	r7, r3, #197132288	; 0xbc00000
 128:	6d72612f 	ldfvse	f6, [r2, #-188]!	; 0xffffff44
 12c:	6e6f6e2d 	cdpvs	14, 6, cr6, cr15, cr13, {1}
 130:	61652d65 	cmnvs	r5, r5, ror #26
 134:	692f6962 	stmdbvs	pc!, {r1, r5, r6, r8, fp, sp, lr}	; <UNPREDICTABLE>
 138:	756c636e 	strbvc	r6, [ip, #-878]!	; 0xfffffc92
 13c:	732f6564 	teqvc	pc, #100, 10	; 0x19000000
 140:	2e007379 	mcrcs	3, 0, r7, cr0, cr9, {3}
 144:	2f2e2e2f 	svccs	0x002e2e2f
 148:	2e2f2e2e 	cdpcs	14, 2, cr2, cr15, cr14, {1}
 14c:	6f432f2e 	svcvs	0x00432f2e
 150:	6e6f6d6d 	cdpvs	13, 6, cr6, cr15, cr13, {3}
 154:	2f2e2e00 	svccs	0x002e2e00
 158:	2e2f2e2e 	cdpcs	14, 2, cr2, cr15, cr14, {1}
 15c:	73552f2e 	cmpvc	r5, #46, 30	; 0xb8
 160:	616c7265 	cmnvs	ip, r5, ror #4
 164:	412f646e 	teqmi	pc, lr, ror #8
 168:	692f4950 	stmdbvs	pc!, {r4, r6, r8, fp, lr}	; <UNPREDICTABLE>
 16c:	756c636e 	strbvc	r6, [ip, #-878]!	; 0xfffffc92
 170:	532f6564 	teqpl	pc, #100, 10	; 0x19000000
 174:	616b7769 	cmnvs	fp, r9, ror #14
 178:	2f2e2e00 	svccs	0x002e2e00
 17c:	2e2f2e2e 	cdpcs	14, 2, cr2, cr15, cr14, {1}
 180:	74532f2e 	ldrbvc	r2, [r3], #-3886	; 0xfffff0d2
 184:	62696c64 	rsbvs	r6, r9, #100, 24	; 0x6400
 188:	636e692f 	cmnvs	lr, #770048	; 0xbc000
 18c:	6564756c 	strbvs	r7, [r4, #-1388]!	; 0xfffffa94
 190:	6474532f 	ldrbtvs	r5, [r4], #-815	; 0xfffffcd1
 194:	0062696c 	rsbeq	r6, r2, ip, ror #18
 198:	6c636e69 	stclvs	14, cr6, [r3], #-420	; 0xfffffe5c
 19c:	00656475 	rsbeq	r6, r5, r5, ror r4
 1a0:	69616d00 	stmdbvs	r1!, {r8, sl, fp, sp, lr}^
 1a4:	00632e6e 	rsbeq	r2, r3, lr, ror #28
 1a8:	5f000001 	svcpl	0x00000001
 1ac:	61666564 	cmnvs	r6, r4, ror #10
 1b0:	5f746c75 	svcpl	0x00746c75
 1b4:	65707974 	ldrbvs	r7, [r0, #-2420]!	; 0xfffff68c
 1b8:	00682e73 	rsbeq	r2, r8, r3, ror lr
 1bc:	5f000002 	svcpl	0x00000002
 1c0:	69647473 	stmdbvs	r4!, {r0, r1, r4, r5, r6, sl, ip, sp, lr}^
 1c4:	682e746e 	stmdavs	lr!, {r1, r2, r3, r5, r6, sl, ip, sp, lr}
 1c8:	00000300 	andeq	r0, r0, r0, lsl #6
 1cc:	61666564 	cmnvs	r6, r4, ror #10
 1d0:	2e746c75 	mrccs	12, 3, r6, cr4, cr5, {3}
 1d4:	00040068 	andeq	r0, r4, r8, rrx
 1d8:	706e6900 	rsbvc	r6, lr, r0, lsl #18
 1dc:	682e7475 	stmdavs	lr!, {r0, r2, r4, r5, r6, sl, ip, sp, lr}
 1e0:	00000500 	andeq	r0, r0, r0, lsl #10
 1e4:	69727473 	ldmdbvs	r2!, {r0, r1, r4, r5, r6, sl, ip, sp, lr}^
 1e8:	682e676e 	stmdavs	lr!, {r1, r2, r3, r5, r6, r8, r9, sl, sp, lr}
 1ec:	00000600 	andeq	r0, r0, r0, lsl #12
 1f0:	6b616e73 	blvs	185bbc4 <__PROGRAM_SIZE+0x1851bc0>
 1f4:	00682e65 	rsbeq	r2, r8, r5, ror #28
 1f8:	73000007 	movwvc	r0, #7
 1fc:	65657263 	strbvs	r7, [r5, #-611]!	; 0xfffffd9d
 200:	00682e6e 	rsbeq	r2, r8, lr, ror #28
 204:	67000007 	strvs	r0, [r0, -r7]
 208:	68706172 	ldmdavs	r0!, {r1, r4, r5, r6, r8, sp, lr}^
 20c:	2e736369 	cdpcs	3, 7, cr6, cr3, cr9, {3}
 210:	00050068 	andeq	r0, r5, r8, rrx
 214:	6f727000 	svcvs	0x00727000
 218:	6d617267 	sfmvs	f7, 2, [r1, #-412]!	; 0xfffffe64
 21c:	0500682e 	streq	r6, [r0, #-2094]	; 0xfffff7d2
 220:	00000000 	andeq	r0, r0, r0
 224:	00480205 	subeq	r0, r8, r5, lsl #4
 228:	0b030200 	bleq	c0a30 <__PROGRAM_SIZE+0xb6a2c>
 22c:	02001501 	andeq	r1, r0, #4194304	; 0x400000
 230:	66060104 	strvs	r0, [r6], -r4, lsl #2
 234:	02040200 	andeq	r0, r4, #0, 4
 238:	02006806 	andeq	r6, r0, #393216	; 0x60000
 23c:	a6680204 	strbtge	r0, [r8], -r4, lsl #4
 240:	324cf469 	subcc	pc, ip, #1761607680	; 0x69000000
 244:	02004c48 	andeq	r4, r0, #72, 24	; 0x4800
 248:	037e0204 	cmneq	lr, #4, 4	; 0x40000000
 24c:	48b58211 	ldmmi	r5!, {r0, r4, r9, pc}
 250:	0402004c 	streq	r0, [r2], #-76	; 0xffffffb4
 254:	09037e02 	stmdbeq	r3, {r1, r9, sl, fp, ip, sp, lr}
 258:	30483082 	subcc	r3, r8, r2, lsl #1
 25c:	29302108 	ldmdbcs	r0!, {r3, r8, sp}
 260:	08660903 	stmdaeq	r6!, {r0, r1, r8, fp}^
 264:	2e5c0320 	cdpcs	3, 5, cr0, cr12, cr0, {1}
 268:	01000802 	tsteq	r0, r2, lsl #16
 26c:	0000f301 	andeq	pc, r0, r1, lsl #6
 270:	da000200 	ble	a78 <__PROGRAM_SIZE-0x958c>
 274:	02000000 	andeq	r0, r0, #0
 278:	0d0efb01 	vstreq	d15, [lr, #-4]
 27c:	01010100 	mrseq	r0, (UNDEF: 17)
 280:	00000001 	andeq	r0, r0, r1
 284:	01000001 	tsteq	r0, r1
 288:	72756f73 	rsbsvc	r6, r5, #460	; 0x1cc
 28c:	2f006563 	svccs	0x00006563
 290:	2f727375 	svccs	0x00727375
 294:	2d6d7261 	sfmcs	f7, 2, [sp, #-388]!	; 0xfffffe7c
 298:	656e6f6e 	strbvs	r6, [lr, #-3950]!	; 0xfffff092
 29c:	6261652d 	rsbvs	r6, r1, #188743680	; 0xb400000
 2a0:	6e692f69 	cdpvs	15, 6, cr2, cr9, cr9, {3}
 2a4:	64756c63 	ldrbtvs	r6, [r5], #-3171	; 0xfffff39d
 2a8:	616d2f65 	cmnvs	sp, r5, ror #30
 2ac:	6e696863 	cdpvs	8, 6, cr6, cr9, cr3, {3}
 2b0:	752f0065 	strvc	r0, [pc, #-101]!	; 253 <__PROGRAM_SIZE-0x9db1>
 2b4:	612f7273 	teqvs	pc, r3, ror r2	; <UNPREDICTABLE>
 2b8:	6e2d6d72 	mcrvs	13, 1, r6, cr13, cr2, {3}
 2bc:	2d656e6f 	stclcs	14, cr6, [r5, #-444]!	; 0xfffffe44
 2c0:	69626165 	stmdbvs	r2!, {r0, r2, r5, r6, r8, sp, lr}^
 2c4:	636e692f 	cmnvs	lr, #770048	; 0xbc000
 2c8:	6564756c 	strbvs	r7, [r4, #-1388]!	; 0xfffffa94
 2cc:	7379732f 	cmnvc	r9, #-1140850688	; 0xbc000000
 2d0:	2e2f2e00 	cdpcs	14, 2, cr2, cr15, cr0, {0}
 2d4:	2e2e2f2e 	cdpcs	15, 2, cr2, cr14, cr14, {1}
 2d8:	2f2e2e2f 	svccs	0x002e2e2f
 2dc:	6d6d6f43 	stclvs	15, cr6, [sp, #-268]!	; 0xfffffef4
 2e0:	2e006e6f 	cdpcs	14, 0, cr6, cr0, cr15, {3}
 2e4:	2e2e2f2e 	cdpcs	15, 2, cr2, cr14, cr14, {1}
 2e8:	2f2e2e2f 	svccs	0x002e2e2f
 2ec:	72657355 	rsbvc	r7, r5, #1409286145	; 0x54000001
 2f0:	646e616c 	strbtvs	r6, [lr], #-364	; 0xfffffe94
 2f4:	4950412f 	ldmdbmi	r0, {r0, r1, r2, r3, r5, r8, lr}^
 2f8:	636e692f 	cmnvs	lr, #770048	; 0xbc000
 2fc:	6564756c 	strbvs	r7, [r4, #-1388]!	; 0xfffffa94
 300:	7769532f 	strbvc	r5, [r9, -pc, lsr #6]!
 304:	0000616b 	andeq	r6, r0, fp, ror #2
 308:	65726373 	ldrbvs	r6, [r2, #-883]!	; 0xfffffc8d
 30c:	632e6e65 	teqvs	lr, #1616	; 0x650
 310:	00000100 	andeq	r0, r0, r0, lsl #2
 314:	6665645f 			; <UNDEFINED> instruction: 0x6665645f
 318:	746c7561 	strbtvc	r7, [ip], #-1377	; 0xfffffa9f
 31c:	7079745f 	rsbsvc	r7, r9, pc, asr r4
 320:	682e7365 	stmdavs	lr!, {r0, r2, r5, r6, r8, r9, ip, sp, lr}
 324:	00000200 	andeq	r0, r0, r0, lsl #4
 328:	6474735f 	ldrbtvs	r7, [r4], #-863	; 0xfffffca1
 32c:	2e746e69 	cdpcs	14, 7, cr6, cr4, cr9, {3}
 330:	00030068 	andeq	r0, r3, r8, rrx
 334:	66656400 	strbtvs	r6, [r5], -r0, lsl #8
 338:	746c7561 	strbtvc	r7, [ip], #-1377	; 0xfffffa9f
 33c:	0400682e 	streq	r6, [r0], #-2094	; 0xfffff7d2
 340:	72670000 	rsbvc	r0, r7, #0
 344:	69687061 	stmdbvs	r8!, {r0, r5, r6, ip, sp, lr}^
 348:	682e7363 	stmdavs	lr!, {r0, r1, r5, r6, r8, r9, ip, sp, lr}
 34c:	00000500 	andeq	r0, r0, r0, lsl #10
 350:	02050000 	andeq	r0, r5, #0
 354:	020001b0 	andeq	r0, r0, #176, 2	; 0x2c
 358:	31651317 	cmncc	r5, r7, lsl r3
 35c:	0283302f 	addeq	r3, r3, #47	; 0x2f
 360:	0101000c 	tsteq	r1, ip
 364:	0000019c 	muleq	r0, ip, r1
 368:	01000002 	tsteq	r0, r2
 36c:	01020000 	mrseq	r0, (UNDEF: 2)
 370:	000d0efb 	strdeq	r0, [sp], -fp
 374:	01010101 	tsteq	r1, r1, lsl #2
 378:	01000000 	mrseq	r0, (UNDEF: 0)
 37c:	73010000 	movwvc	r0, #4096	; 0x1000
 380:	6372756f 	cmnvs	r2, #465567744	; 0x1bc00000
 384:	752f0065 	strvc	r0, [pc, #-101]!	; 327 <__PROGRAM_SIZE-0x9cdd>
 388:	6c2f7273 	sfmvs	f7, 4, [pc], #-460	; 1c4 <__PROGRAM_SIZE-0x9e40>
 38c:	672f6269 	strvs	r6, [pc, -r9, ror #4]!
 390:	612f6363 	teqvs	pc, r3, ror #6
 394:	6e2d6d72 	mcrvs	13, 1, r6, cr13, cr2, {3}
 398:	2d656e6f 	stclcs	14, cr6, [r5, #-444]!	; 0xfffffe44
 39c:	69626165 	stmdbvs	r2!, {r0, r2, r5, r6, r8, sp, lr}^
 3a0:	312e352f 	teqcc	lr, pc, lsr #10
 3a4:	692f302e 	stmdbvs	pc!, {r1, r2, r3, r5, ip, sp}	; <UNPREDICTABLE>
 3a8:	756c636e 	strbvc	r6, [ip, #-878]!	; 0xfffffc92
 3ac:	2f006564 	svccs	0x00006564
 3b0:	2f727375 	svccs	0x00727375
 3b4:	2d6d7261 	sfmcs	f7, 2, [sp, #-388]!	; 0xfffffe7c
 3b8:	656e6f6e 	strbvs	r6, [lr, #-3950]!	; 0xfffff092
 3bc:	6261652d 	rsbvs	r6, r1, #188743680	; 0xb400000
 3c0:	6e692f69 	cdpvs	15, 6, cr2, cr9, cr9, {3}
 3c4:	64756c63 	ldrbtvs	r6, [r5], #-3171	; 0xfffff39d
 3c8:	616d2f65 	cmnvs	sp, r5, ror #30
 3cc:	6e696863 	cdpvs	8, 6, cr6, cr9, cr3, {3}
 3d0:	752f0065 	strvc	r0, [pc, #-101]!	; 373 <__PROGRAM_SIZE-0x9c91>
 3d4:	612f7273 	teqvs	pc, r3, ror r2	; <UNPREDICTABLE>
 3d8:	6e2d6d72 	mcrvs	13, 1, r6, cr13, cr2, {3}
 3dc:	2d656e6f 	stclcs	14, cr6, [r5, #-444]!	; 0xfffffe44
 3e0:	69626165 	stmdbvs	r2!, {r0, r2, r5, r6, r8, sp, lr}^
 3e4:	636e692f 	cmnvs	lr, #770048	; 0xbc000
 3e8:	6564756c 	strbvs	r7, [r4, #-1388]!	; 0xfffffa94
 3ec:	7379732f 	cmnvc	r9, #-1140850688	; 0xbc000000
 3f0:	636e6900 	cmnvs	lr, #0, 18
 3f4:	6564756c 	strbvs	r7, [r4, #-1388]!	; 0xfffffa94
 3f8:	6474532f 	ldrbtvs	r5, [r4], #-815	; 0xfffffcd1
 3fc:	0062696c 	rsbeq	r6, r2, ip, ror #18
 400:	72747300 	rsbsvc	r7, r4, #0, 6
 404:	2e676e69 	cdpcs	14, 6, cr6, cr7, cr9, {3}
 408:	00010063 	andeq	r0, r1, r3, rrx
 40c:	64747300 	ldrbtvs	r7, [r4], #-768	; 0xfffffd00
 410:	2e666564 	cdpcs	5, 6, cr6, cr6, cr4, {3}
 414:	00020068 	andeq	r0, r2, r8, rrx
 418:	65645f00 	strbvs	r5, [r4, #-3840]!	; 0xfffff100
 41c:	6c756166 	ldfvse	f6, [r5], #-408	; 0xfffffe68
 420:	79745f74 	ldmdbvc	r4!, {r2, r4, r5, r6, r8, r9, sl, fp, ip, lr}^
 424:	2e736570 	mrccs	5, 3, r6, cr3, cr0, {3}
 428:	00030068 	andeq	r0, r3, r8, rrx
 42c:	74735f00 	ldrbtvc	r5, [r3], #-3840	; 0xfffff100
 430:	746e6964 	strbtvc	r6, [lr], #-2404	; 0xfffff69c
 434:	0400682e 	streq	r6, [r0], #-2094	; 0xfffff7d2
 438:	74730000 	ldrbtvc	r0, [r3], #-0
 43c:	676e6972 			; <UNDEFINED> instruction: 0x676e6972
 440:	0500682e 	streq	r6, [r0, #-2094]	; 0xfffff7d2
 444:	74730000 	ldrbtvc	r0, [r3], #-0
 448:	67726164 	ldrbvs	r6, [r2, -r4, ror #2]!
 44c:	0200682e 	andeq	r6, r0, #3014656	; 0x2e0000
 450:	623c0000 	eorsvs	r0, ip, #0
 454:	746c6975 	strbtvc	r6, [ip], #-2421	; 0xfffff68b
 458:	3e6e692d 	cdpcc	9, 6, cr6, cr14, cr13, {1}
 45c:	00000000 	andeq	r0, r0, r0
 460:	756d656d 	strbvc	r6, [sp, #-1389]!	; 0xfffffa93
 464:	2e6c6974 	mcrcs	9, 3, r6, cr12, cr4, {3}
 468:	00050068 	andeq	r0, r5, r8, rrx
 46c:	05000000 	streq	r0, [r0, #-0]
 470:	0001f002 	andeq	pc, r1, r2
 474:	30131702 	andscc	r1, r3, r2, lsl #14
 478:	be674d85 	cdplt	13, 6, cr4, cr7, cr5, {4}
 47c:	004c4b67 	subeq	r4, ip, r7, ror #22
 480:	4c010402 	cfstrsmi	mvf0, [r1], {2}
 484:	0402004c 	streq	r0, [r2], #-76	; 0xffffffb4
 488:	50720802 	rsbspl	r0, r2, r2, lsl #16
 48c:	6d47474d 	stclvs	7, cr4, [r7, #-308]	; 0xfffffecc
 490:	684b6731 	stmdavs	fp, {r0, r4, r5, r8, r9, sl, sp, lr}^
 494:	cd034d83 	stcgt	13, cr4, [r3, #-524]	; 0xfffffdf4
 498:	6a6a4a00 	bvs	1a92ca0 <__PROGRAM_SIZE+0x1a88c9c>
 49c:	52d32108 	sbcspl	r2, r3, #8, 2
 4a0:	324a6603 	subcc	r6, sl, #3145728	; 0x300000
 4a4:	01040200 	mrseq	r0, R12_usr
 4a8:	04020068 	streq	r0, [r2], #-104	; 0xffffff98
 4ac:	31818301 	orrcc	r8, r1, r1, lsl #6
 4b0:	332e1403 	teqcc	lr, #50331648	; 0x3000000
 4b4:	d33d086a 	teqle	sp, #6946816	; 0x6a0000
 4b8:	84158552 	ldrhi	r8, [r5], #-1362	; 0xfffffaae
 4bc:	09034783 	stmdbeq	r3, {r0, r1, r7, r8, r9, sl, lr}
 4c0:	7f870366 	svcvc	0x00870366
 4c4:	a251a02e 	subsge	sl, r1, #46	; 0x2e
 4c8:	2e790333 	mrccs	3, 3, r0, cr9, cr3, {1}
 4cc:	034a2603 	movteq	r2, #42499	; 0xa603
 4d0:	30312e5a 	eorscc	r2, r1, sl, asr lr
 4d4:	68342c68 	ldmdavs	r4!, {r3, r5, r6, sl, fp, sp}
 4d8:	220868a0 	andcs	r6, r8, #160, 16	; 0xa00000
 4dc:	68220868 	stmdavs	r2!, {r3, r5, r6, fp}
 4e0:	67033e08 	strvs	r3, [r3, -r8, lsl #28]
 4e4:	2e19034a 	cdpcs	3, 1, cr0, cr9, cr10, {2}
 4e8:	675b0830 	smmlarvs	fp, r0, r8, r0
 4ec:	54032fa6 	strpl	r2, [r3], #-4006	; 0xfffff05a
 4f0:	6632032e 	ldrtvs	r0, [r2], -lr, lsr #6
 4f4:	9e00c103 	mvflss	f4, f3
 4f8:	47838415 	usada8mi	r3, r5, r4, r8
 4fc:	02660903 	rsbeq	r0, r6, #49152	; 0xc000
 500:	01010002 	tsteq	r1, r2
 504:	0000003b 	andeq	r0, r0, fp, lsr r0
 508:	00270002 	eoreq	r0, r7, r2
 50c:	01020000 	mrseq	r0, (UNDEF: 2)
 510:	000d0efb 	strdeq	r0, [sp], -fp
 514:	01010101 	tsteq	r1, r1, lsl #2
 518:	01000000 	mrseq	r0, (UNDEF: 0)
 51c:	73010000 	movwvc	r0, #4096	; 0x1000
 520:	6372756f 	cmnvs	r2, #465567744	; 0x1bc00000
 524:	63000065 	movwvs	r0, #101	; 0x65
 528:	74737070 	ldrbtvc	r7, [r3], #-112	; 0xffffff90
 52c:	532e6275 	teqpl	lr, #1342177287	; 0x50000007
 530:	00000100 	andeq	r0, r0, r0, lsl #2
 534:	02050000 	andeq	r0, r5, #0
 538:	02000610 	andeq	r0, r0, #16, 12	; 0x1000000
 53c:	02023214 	andeq	r3, r2, #20, 4	; 0x40000001
 540:	5c010100 	stfpls	f0, [r1], {-0}
 544:	02000000 	andeq	r0, r0, #0
 548:	00002700 	andeq	r2, r0, r0, lsl #14
 54c:	fb010200 	blx	40d56 <__PROGRAM_SIZE+0x36d52>
 550:	01000d0e 	tsteq	r0, lr, lsl #26
 554:	00010101 	andeq	r0, r1, r1, lsl #2
 558:	00010000 	andeq	r0, r1, r0
 55c:	6f730100 	svcvs	0x00730100
 560:	65637275 	strbvs	r7, [r3, #-629]!	; 0xfffffd8b
 564:	656d0000 	strbvs	r0, [sp, #-0]!
 568:	6974756d 	ldmdbvs	r4!, {r0, r2, r3, r5, r6, r8, sl, ip, sp, lr}^
 56c:	00632e6c 	rsbeq	r2, r3, ip, ror #28
 570:	00000001 	andeq	r0, r0, r1
 574:	18020500 	stmdane	r2, {r8, sl}
 578:	15020006 	strne	r0, [r2, #-6]
 57c:	6d2c6815 	stcvs	8, cr6, [ip, #-84]!	; 0xffffffac
 580:	0e260216 	mcreq	2, 1, r0, cr6, cr6, {0}
 584:	3a0884da 	bcc	2218f4 <__PROGRAM_SIZE+0x2178f0>
 588:	2c302c30 	ldccs	12, cr2, [r0], #-192	; 0xffffff40
 58c:	4e142c30 	mrcmi	12, 0, r2, cr4, cr0, {1}
 590:	844a7a03 	strbhi	r7, [sl], #-2563	; 0xfffff5fd
 594:	342c302c 	strtcc	r3, [ip], #-44	; 0xffffffd4
 598:	834c324d 	movthi	r3, #49741	; 0xc24d
 59c:	02022f4d 	andeq	r2, r2, #308	; 0x134
 5a0:	e5010100 	str	r0, [r1, #-256]	; 0xffffff00
 5a4:	02000000 	andeq	r0, r0, #0
 5a8:	0000ca00 	andeq	ip, r0, r0, lsl #20
 5ac:	fb010200 	blx	40db6 <__PROGRAM_SIZE+0x36db2>
 5b0:	01000d0e 	tsteq	r0, lr, lsl #26
 5b4:	00010101 	andeq	r0, r1, r1, lsl #2
 5b8:	00010000 	andeq	r0, r1, r0
 5bc:	6f730100 	svcvs	0x00730100
 5c0:	65637275 	strbvs	r7, [r3, #-629]!	; 0xfffffd8b
 5c4:	73752f00 	cmnvc	r5, #0, 30
 5c8:	72612f72 	rsbvc	r2, r1, #456	; 0x1c8
 5cc:	6f6e2d6d 	svcvs	0x006e2d6d
 5d0:	652d656e 	strvs	r6, [sp, #-1390]!	; 0xfffffa92
 5d4:	2f696261 	svccs	0x00696261
 5d8:	6c636e69 	stclvs	14, cr6, [r3], #-420	; 0xfffffe5c
 5dc:	2f656475 	svccs	0x00656475
 5e0:	6863616d 	stmdavs	r3!, {r0, r2, r3, r5, r6, r8, sp, lr}^
 5e4:	00656e69 	rsbeq	r6, r5, r9, ror #28
 5e8:	7273752f 	rsbsvc	r7, r3, #197132288	; 0xbc00000
 5ec:	6d72612f 	ldfvse	f6, [r2, #-188]!	; 0xffffff44
 5f0:	6e6f6e2d 	cdpvs	14, 6, cr6, cr15, cr13, {1}
 5f4:	61652d65 	cmnvs	r5, r5, ror #26
 5f8:	692f6962 	stmdbvs	pc!, {r1, r5, r6, r8, fp, sp, lr}	; <UNPREDICTABLE>
 5fc:	756c636e 	strbvc	r6, [ip, #-878]!	; 0xfffffc92
 600:	732f6564 	teqvc	pc, #100, 10	; 0x19000000
 604:	2e007379 	mcrcs	3, 0, r7, cr0, cr9, {3}
 608:	2f2e2e2f 	svccs	0x002e2e2f
 60c:	432f2e2e 	teqmi	pc, #736	; 0x2e0
 610:	6f6d6d6f 	svcvs	0x006d6d6f
 614:	6e69006e 	cdpvs	0, 6, cr0, cr9, cr14, {3}
 618:	64756c63 	ldrbtvs	r6, [r5], #-3171	; 0xfffff39d
 61c:	69532f65 	ldmdbvs	r3, {r0, r2, r5, r6, r8, r9, sl, fp, sp}^
 620:	00616b77 	rsbeq	r6, r1, r7, ror fp
 624:	6f727000 	svcvs	0x00727000
 628:	6d617267 	sfmvs	f7, 2, [r1, #-412]!	; 0xfffffe64
 62c:	0100632e 	tsteq	r0, lr, lsr #6
 630:	645f0000 	ldrbvs	r0, [pc], #-0	; 638 <__PROGRAM_SIZE-0x99cc>
 634:	75616665 	strbvc	r6, [r1, #-1637]!	; 0xfffff99b
 638:	745f746c 	ldrbvc	r7, [pc], #-1132	; 640 <__PROGRAM_SIZE-0x99c4>
 63c:	73657079 	cmnvc	r5, #121	; 0x79
 640:	0200682e 	andeq	r6, r0, #3014656	; 0x2e0000
 644:	735f0000 	cmpvc	pc, #0
 648:	6e696474 	mcrvs	4, 3, r6, cr9, cr4, {3}
 64c:	00682e74 	rsbeq	r2, r8, r4, ror lr
 650:	64000003 	strvs	r0, [r0], #-3
 654:	75616665 	strbvc	r6, [r1, #-1637]!	; 0xfffff99b
 658:	682e746c 	stmdavs	lr!, {r2, r3, r5, r6, sl, ip, sp, lr}
 65c:	00000400 	andeq	r0, r0, r0, lsl #8
 660:	676f7270 			; <UNDEFINED> instruction: 0x676f7270
 664:	2e6d6172 	mcrcs	1, 3, r6, cr13, cr2, {3}
 668:	00050068 	andeq	r0, r5, r8, rrx
 66c:	63767300 	cmnvs	r6, #0, 6
 670:	0500682e 	streq	r6, [r0, #-2094]	; 0xfffff7d2
 674:	00000000 	andeq	r0, r0, r0
 678:	07500205 	ldrbeq	r0, [r0, -r5, lsl #4]
 67c:	2f160200 	svccs	0x00160200
 680:	672f3167 	strvs	r3, [pc, -r7, ror #2]!
 684:	02672f31 	rsbeq	r2, r7, #49, 30	; 0xc4
 688:	01010002 	tsteq	r1, r2
 68c:	0000005b 	andeq	r0, r0, fp, asr r0
 690:	003e0002 	eorseq	r0, lr, r2
 694:	01020000 	mrseq	r0, (UNDEF: 2)
 698:	000d0efb 	strdeq	r0, [sp], -fp
 69c:	01010101 	tsteq	r1, r1, lsl #2
 6a0:	01000000 	mrseq	r0, (UNDEF: 0)
 6a4:	73010000 	movwvc	r0, #4096	; 0x1000
 6a8:	6372756f 	cmnvs	r2, #465567744	; 0x1bc00000
 6ac:	6e690065 	cdpvs	0, 6, cr0, cr9, cr5, {3}
 6b0:	64756c63 	ldrbtvs	r6, [r5], #-3171	; 0xfffff39d
 6b4:	69532f65 	ldmdbvs	r3, {r0, r2, r5, r6, r8, r9, sl, fp, sp}^
 6b8:	00616b77 	rsbeq	r6, r1, r7, ror fp
 6bc:	706e6900 	rsbvc	r6, lr, r0, lsl #18
 6c0:	632e7475 	teqvs	lr, #1962934272	; 0x75000000
 6c4:	00000100 	andeq	r0, r0, r0, lsl #2
 6c8:	75706e69 	ldrbvc	r6, [r0, #-3689]!	; 0xfffff197
 6cc:	00682e74 	rsbeq	r2, r8, r4, ror lr
 6d0:	00000002 	andeq	r0, r0, r2
 6d4:	8c020500 	cfstr32hi	mvfx0, [r2], {-0}
 6d8:	19020007 	stmdbne	r2, {r0, r1, r2}
 6dc:	77036c15 	smladvc	r3, r5, ip, r6
 6e0:	2e0b0382 	cdpcs	3, 0, cr0, cr11, cr2, {4}
 6e4:	0802136c 	stmdaeq	r2, {r2, r3, r5, r6, r8, r9, ip}
 6e8:	1b010100 	blne	40af0 <__PROGRAM_SIZE+0x36aec>
 6ec:	02000001 	andeq	r0, r0, #1
 6f0:	0000cc00 	andeq	ip, r0, r0, lsl #24
 6f4:	fb010200 	blx	40efe <__PROGRAM_SIZE+0x36efa>
 6f8:	01000d0e 	tsteq	r0, lr, lsl #26
 6fc:	00010101 	andeq	r0, r1, r1, lsl #2
 700:	00010000 	andeq	r0, r1, r0
 704:	6f730100 	svcvs	0x00730100
 708:	65637275 	strbvs	r7, [r3, #-629]!	; 0xfffffd8b
 70c:	6172472f 	cmnvs	r2, pc, lsr #14
 710:	63696870 	cmnvs	r9, #112, 16	; 0x700000
 714:	752f0073 	strvc	r0, [pc, #-115]!	; 6a9 <__PROGRAM_SIZE-0x995b>
 718:	612f7273 	teqvs	pc, r3, ror r2	; <UNPREDICTABLE>
 71c:	6e2d6d72 	mcrvs	13, 1, r6, cr13, cr2, {3}
 720:	2d656e6f 	stclcs	14, cr6, [r5, #-444]!	; 0xfffffe44
 724:	69626165 	stmdbvs	r2!, {r0, r2, r5, r6, r8, sp, lr}^
 728:	636e692f 	cmnvs	lr, #770048	; 0xbc000
 72c:	6564756c 	strbvs	r7, [r4, #-1388]!	; 0xfffffa94
 730:	63616d2f 	cmnvs	r1, #3008	; 0xbc0
 734:	656e6968 	strbvs	r6, [lr, #-2408]!	; 0xfffff698
 738:	73752f00 	cmnvc	r5, #0, 30
 73c:	72612f72 	rsbvc	r2, r1, #456	; 0x1c8
 740:	6f6e2d6d 	svcvs	0x006e2d6d
 744:	652d656e 	strvs	r6, [sp, #-1390]!	; 0xfffffa92
 748:	2f696261 	svccs	0x00696261
 74c:	6c636e69 	stclvs	14, cr6, [r3], #-420	; 0xfffffe5c
 750:	2f656475 	svccs	0x00656475
 754:	00737973 	rsbseq	r7, r3, r3, ror r9
 758:	2e2e2f2e 	cdpcs	15, 2, cr2, cr14, cr14, {1}
 75c:	2f2e2e2f 	svccs	0x002e2e2f
 760:	6d6d6f43 	stclvs	15, cr6, [sp, #-268]!	; 0xfffffef4
 764:	69006e6f 	stmdbvs	r0, {r0, r1, r2, r3, r5, r6, r9, sl, fp, sp, lr}
 768:	756c636e 	strbvc	r6, [ip, #-878]!	; 0xfffffc92
 76c:	532f6564 	teqpl	pc, #100, 10	; 0x19000000
 770:	616b7769 	cmnvs	fp, r9, ror #14
 774:	72670000 	rsbvc	r0, r7, #0
 778:	69687061 	stmdbvs	r8!, {r0, r5, r6, ip, sp, lr}^
 77c:	632e7363 	teqvs	lr, #-1946157055	; 0x8c000001
 780:	00000100 	andeq	r0, r0, r0, lsl #2
 784:	6665645f 			; <UNDEFINED> instruction: 0x6665645f
 788:	746c7561 	strbtvc	r7, [ip], #-1377	; 0xfffffa9f
 78c:	7079745f 	rsbsvc	r7, r9, pc, asr r4
 790:	682e7365 	stmdavs	lr!, {r0, r2, r5, r6, r8, r9, ip, sp, lr}
 794:	00000200 	andeq	r0, r0, r0, lsl #4
 798:	6474735f 	ldrbtvs	r7, [r4], #-863	; 0xfffffca1
 79c:	2e746e69 	cdpcs	14, 7, cr6, cr4, cr9, {3}
 7a0:	00030068 	andeq	r0, r3, r8, rrx
 7a4:	66656400 	strbtvs	r6, [r5], -r0, lsl #8
 7a8:	746c7561 	strbtvc	r7, [ip], #-1377	; 0xfffffa9f
 7ac:	0400682e 	streq	r6, [r0], #-2094	; 0xfffff7d2
 7b0:	72670000 	rsbvc	r0, r7, #0
 7b4:	69687061 	stmdbvs	r8!, {r0, r5, r6, ip, sp, lr}^
 7b8:	682e7363 	stmdavs	lr!, {r0, r1, r5, r6, r8, r9, ip, sp, lr}
 7bc:	00000500 	andeq	r0, r0, r0, lsl #10
 7c0:	02050000 	andeq	r0, r5, #0
 7c4:	020007c8 	andeq	r0, r0, #200, 14	; 0x3200000
 7c8:	2c681319 	stclcs	3, cr1, [r8], #-100	; 0xffffff9c
 7cc:	67302c30 			; <UNDEFINED> instruction: 0x67302c30
 7d0:	3013f683 	andscc	pc, r3, r3, lsl #13
 7d4:	692f302c 	stmdbvs	pc!, {r2, r3, r5, ip, sp}	; <UNPREDICTABLE>
 7d8:	864b4b13 			; <UNDEFINED> instruction: 0x864b4b13
 7dc:	6a2f4b13 	bvs	bd3430 <__PROGRAM_SIZE+0xbc942c>
 7e0:	04020013 	streq	r0, [r2], #-19	; 0xffffffed
 7e4:	02004903 	andeq	r4, r0, #49152	; 0xc000
 7e8:	03bd0304 			; <UNDEFINED> instruction: 0x03bd0304
 7ec:	2c306660 	ldccs	6, cr6, [r0], #-384	; 0xfffffe80
 7f0:	2f302c30 	svccs	0x00302c30
 7f4:	2e1c0383 	cdpcs	3, 1, cr0, cr12, cr3, {4}
 7f8:	032e6403 	teqeq	lr, #50331648	; 0x3000000
 7fc:	64034a1c 	strvs	r4, [r3], #-2588	; 0xfffff5e4
 800:	2e1c032e 	cdpcs	3, 1, cr0, cr12, cr14, {1}
 804:	000c0248 	andeq	r0, ip, r8, asr #4
 808:	01a60101 			; <UNDEFINED> instruction: 0x01a60101
 80c:	00020000 	andeq	r0, r2, r0
 810:	0000012f 	andeq	r0, r0, pc, lsr #2
 814:	0efb0102 	cdpeq	1, 15, cr0, cr11, cr2, {0}
 818:	0101000d 	tsteq	r1, sp
 81c:	00000101 	andeq	r0, r0, r1, lsl #2
 820:	00000100 	andeq	r0, r0, r0, lsl #2
 824:	756f7301 	strbvc	r7, [pc, #-769]!	; 52b <__PROGRAM_SIZE-0x9ad9>
 828:	2f656372 	svccs	0x00656372
 82c:	70617247 	rsbvc	r7, r1, r7, asr #4
 830:	73636968 	cmnvc	r3, #104, 18	; 0x1a0000
 834:	73752f00 	cmnvc	r5, #0, 30
 838:	696c2f72 	stmdbvs	ip!, {r1, r4, r5, r6, r8, r9, sl, fp, sp}^
 83c:	63672f62 	cmnvs	r7, #392	; 0x188
 840:	72612f63 	rsbvc	r2, r1, #396	; 0x18c
 844:	6f6e2d6d 	svcvs	0x006e2d6d
 848:	652d656e 	strvs	r6, [sp, #-1390]!	; 0xfffffa92
 84c:	2f696261 	svccs	0x00696261
 850:	2e312e35 	mrccs	14, 1, r2, cr1, cr5, {1}
 854:	6e692f30 	mcrvs	15, 3, r2, cr9, cr0, {1}
 858:	64756c63 	ldrbtvs	r6, [r5], #-3171	; 0xfffff39d
 85c:	752f0065 	strvc	r0, [pc, #-101]!	; 7ff <__PROGRAM_SIZE-0x9805>
 860:	612f7273 	teqvs	pc, r3, ror r2	; <UNPREDICTABLE>
 864:	6e2d6d72 	mcrvs	13, 1, r6, cr13, cr2, {3}
 868:	2d656e6f 	stclcs	14, cr6, [r5, #-444]!	; 0xfffffe44
 86c:	69626165 	stmdbvs	r2!, {r0, r2, r5, r6, r8, sp, lr}^
 870:	636e692f 	cmnvs	lr, #770048	; 0xbc000
 874:	6564756c 	strbvs	r7, [r4, #-1388]!	; 0xfffffa94
 878:	63616d2f 	cmnvs	r1, #3008	; 0xbc0
 87c:	656e6968 	strbvs	r6, [lr, #-2408]!	; 0xfffff698
 880:	73752f00 	cmnvc	r5, #0, 30
 884:	72612f72 	rsbvc	r2, r1, #456	; 0x1c8
 888:	6f6e2d6d 	svcvs	0x006e2d6d
 88c:	652d656e 	strvs	r6, [sp, #-1390]!	; 0xfffffa92
 890:	2f696261 	svccs	0x00696261
 894:	6c636e69 	stclvs	14, cr6, [r3], #-420	; 0xfffffe5c
 898:	2f656475 	svccs	0x00656475
 89c:	00737973 	rsbseq	r7, r3, r3, ror r9
 8a0:	2e2e2f2e 	cdpcs	15, 2, cr2, cr14, cr14, {1}
 8a4:	2f2e2e2f 	svccs	0x002e2e2f
 8a8:	6d6d6f43 	stclvs	15, cr6, [sp, #-268]!	; 0xfffffef4
 8ac:	2e006e6f 	cdpcs	14, 0, cr6, cr0, cr15, {3}
 8b0:	2e2e2f2e 	cdpcs	15, 2, cr2, cr14, cr14, {1}
 8b4:	6474532f 	ldrbtvs	r5, [r4], #-815	; 0xfffffcd1
 8b8:	2f62696c 	svccs	0x0062696c
 8bc:	6c636e69 	stclvs	14, cr6, [r3], #-420	; 0xfffffe5c
 8c0:	2f656475 	svccs	0x00656475
 8c4:	6c647453 	cfstrdvs	mvd7, [r4], #-332	; 0xfffffeb4
 8c8:	69006269 	stmdbvs	r0, {r0, r3, r5, r6, r9, sp, lr}
 8cc:	756c636e 	strbvc	r6, [ip, #-878]!	; 0xfffffc92
 8d0:	532f6564 	teqpl	pc, #100, 10	; 0x19000000
 8d4:	616b7769 	cmnvs	fp, r9, ror #14
 8d8:	65740000 	ldrbvs	r0, [r4, #-0]!
 8dc:	632e7478 	teqvs	lr, #120, 8	; 0x78000000
 8e0:	00000100 	andeq	r0, r0, r0, lsl #2
 8e4:	64647473 	strbtvs	r7, [r4], #-1139	; 0xfffffb8d
 8e8:	682e6665 	stmdavs	lr!, {r0, r2, r5, r6, r9, sl, sp, lr}
 8ec:	00000200 	andeq	r0, r0, r0, lsl #4
 8f0:	6665645f 			; <UNDEFINED> instruction: 0x6665645f
 8f4:	746c7561 	strbtvc	r7, [ip], #-1377	; 0xfffffa9f
 8f8:	7079745f 	rsbsvc	r7, r9, pc, asr r4
 8fc:	682e7365 	stmdavs	lr!, {r0, r2, r5, r6, r8, r9, ip, sp, lr}
 900:	00000300 	andeq	r0, r0, r0, lsl #6
 904:	6474735f 	ldrbtvs	r7, [r4], #-863	; 0xfffffca1
 908:	2e746e69 	cdpcs	14, 7, cr6, cr4, cr9, {3}
 90c:	00040068 	andeq	r0, r4, r8, rrx
 910:	66656400 	strbtvs	r6, [r5], -r0, lsl #8
 914:	746c7561 	strbtvc	r7, [ip], #-1377	; 0xfffffa9f
 918:	0500682e 	streq	r6, [r0, #-2094]	; 0xfffff7d2
 91c:	74730000 	ldrbtvc	r0, [r3], #-0
 920:	676e6972 			; <UNDEFINED> instruction: 0x676e6972
 924:	0600682e 	streq	r6, [r0], -lr, lsr #16
 928:	72670000 	rsbvc	r0, r7, #0
 92c:	69687061 	stmdbvs	r8!, {r0, r5, r6, ip, sp, lr}^
 930:	682e7363 	stmdavs	lr!, {r0, r1, r5, r6, r8, r9, ip, sp, lr}
 934:	00000700 	andeq	r0, r0, r0, lsl #14
 938:	746e6f66 	strbtvc	r6, [lr], #-3942	; 0xfffff09a
 93c:	0700682e 	streq	r6, [r0, -lr, lsr #16]
 940:	00000000 	andeq	r0, r0, r0
 944:	09000205 	stmdbeq	r0, {r0, r2, r9}
 948:	0b030200 	bleq	c1150 <__PROGRAM_SIZE+0xb714c>
 94c:	4b4b1301 	blmi	12c5558 <__PROGRAM_SIZE+0x12bb554>
 950:	4b4b1386 	blmi	12c5770 <__PROGRAM_SIZE+0x12bb76c>
 954:	13861386 	orrne	r1, r6, #402653186	; 0x18000002
 958:	03345065 	teqeq	r4, #101	; 0x65
 95c:	03464a78 	movteq	r4, #27256	; 0x6a78
 960:	78032e0c 	stmdavc	r3, {r2, r3, r9, sl, fp, sp}
 964:	8210032e 	andshi	r0, r0, #-1207959552	; 0xb8000000
 968:	362e7003 	strtcc	r7, [lr], -r3
 96c:	8a667a03 	bhi	199f180 <__PROGRAM_SIZE+0x199517c>
 970:	344a7a03 	strbcc	r7, [sl], #-2563	; 0xfffff5fd
 974:	7803832f 	stmdavc	r3, {r0, r1, r2, r3, r5, r8, r9, pc}
 978:	78033666 	stmdavc	r3, {r1, r2, r5, r6, r9, sl, ip, sp}
 97c:	302c324a 	eorcc	r3, ip, sl, asr #4
 980:	302c309c 	mlacc	ip, ip, r0, r3
 984:	4a740336 	bmi	1d01664 <__PROGRAM_SIZE+0x1cf7660>
 988:	2f2e0c03 	svccs	0x002e0c03
 98c:	66720383 	ldrbtvs	r0, [r2], -r3, lsl #7
 990:	032e0e03 	teqeq	lr, #3, 28	; 0x30
 994:	032c4a72 	teqeq	ip, #466944	; 0x72000
 998:	85bd6615 	ldrhi	r6, [sp, #1557]!	; 0x615
 99c:	6b4c844c 	blvs	1321ad4 <__PROGRAM_SIZE+0x1317ad0>
 9a0:	79036b30 	stmdbvc	r3, {r4, r5, r8, r9, fp, sp, lr}
 9a4:	0c03309e 	stceq	0, cr3, [r3], {158}	; 0x9e
 9a8:	2f4b1366 	svccs	0x004b1366
 9ac:	024b4b2f 	subeq	r4, fp, #48128	; 0xbc00
 9b0:	0101000a 	tsteq	r1, sl
 9b4:	00000120 	andeq	r0, r0, r0, lsr #2
 9b8:	01010002 	tsteq	r1, r2
 9bc:	01020000 	mrseq	r0, (UNDEF: 2)
 9c0:	000d0efb 	strdeq	r0, [sp], -fp
 9c4:	01010101 	tsteq	r1, r1, lsl #2
 9c8:	01000000 	mrseq	r0, (UNDEF: 0)
 9cc:	73010000 	movwvc	r0, #4096	; 0x1000
 9d0:	6372756f 	cmnvs	r2, #465567744	; 0x1bc00000
 9d4:	72472f65 	subvc	r2, r7, #404	; 0x194
 9d8:	69687061 	stmdbvs	r8!, {r0, r5, r6, ip, sp, lr}^
 9dc:	2f007363 	svccs	0x00007363
 9e0:	2f727375 	svccs	0x00727375
 9e4:	2d6d7261 	sfmcs	f7, 2, [sp, #-388]!	; 0xfffffe7c
 9e8:	656e6f6e 	strbvs	r6, [lr, #-3950]!	; 0xfffff092
 9ec:	6261652d 	rsbvs	r6, r1, #188743680	; 0xb400000
 9f0:	6e692f69 	cdpvs	15, 6, cr2, cr9, cr9, {3}
 9f4:	64756c63 	ldrbtvs	r6, [r5], #-3171	; 0xfffff39d
 9f8:	616d2f65 	cmnvs	sp, r5, ror #30
 9fc:	6e696863 	cdpvs	8, 6, cr6, cr9, cr3, {3}
 a00:	752f0065 	strvc	r0, [pc, #-101]!	; 9a3 <__PROGRAM_SIZE-0x9661>
 a04:	612f7273 	teqvs	pc, r3, ror r2	; <UNPREDICTABLE>
 a08:	6e2d6d72 	mcrvs	13, 1, r6, cr13, cr2, {3}
 a0c:	2d656e6f 	stclcs	14, cr6, [r5, #-444]!	; 0xfffffe44
 a10:	69626165 	stmdbvs	r2!, {r0, r2, r5, r6, r8, sp, lr}^
 a14:	636e692f 	cmnvs	lr, #770048	; 0xbc000
 a18:	6564756c 	strbvs	r7, [r4, #-1388]!	; 0xfffffa94
 a1c:	7379732f 	cmnvc	r9, #-1140850688	; 0xbc000000
 a20:	2e2f2e00 	cdpcs	14, 2, cr2, cr15, cr0, {0}
 a24:	2e2e2f2e 	cdpcs	15, 2, cr2, cr14, cr14, {1}
 a28:	6d6f432f 	stclvs	3, cr4, [pc, #-188]!	; 974 <__PROGRAM_SIZE-0x9690>
 a2c:	006e6f6d 	rsbeq	r6, lr, sp, ror #30
 a30:	6c636e69 	stclvs	14, cr6, [r3], #-420	; 0xfffffe5c
 a34:	2f656475 	svccs	0x00656475
 a38:	6b776953 	blvs	1ddaf8c <__PROGRAM_SIZE+0x1dd0f88>
 a3c:	2e2e0061 	cdpcs	0, 2, cr0, cr14, cr1, {3}
 a40:	2f2e2e2f 	svccs	0x002e2e2f
 a44:	6c647453 	cfstrdvs	mvd7, [r4], #-332	; 0xfffffeb4
 a48:	692f6269 	stmdbvs	pc!, {r0, r3, r5, r6, r9, sp, lr}	; <UNPREDICTABLE>
 a4c:	756c636e 	strbvc	r6, [ip, #-878]!	; 0xfffffc92
 a50:	532f6564 	teqpl	pc, #100, 10	; 0x19000000
 a54:	696c6474 	stmdbvs	ip!, {r2, r4, r5, r6, sl, sp, lr}^
 a58:	66000062 	strvs	r0, [r0], -r2, rrx
 a5c:	656d6172 	strbvs	r6, [sp, #-370]!	; 0xfffffe8e
 a60:	66667562 	strbtvs	r7, [r6], -r2, ror #10
 a64:	632e7265 	teqvs	lr, #1342177286	; 0x50000006
 a68:	00000100 	andeq	r0, r0, r0, lsl #2
 a6c:	6665645f 			; <UNDEFINED> instruction: 0x6665645f
 a70:	746c7561 	strbtvc	r7, [ip], #-1377	; 0xfffffa9f
 a74:	7079745f 	rsbsvc	r7, r9, pc, asr r4
 a78:	682e7365 	stmdavs	lr!, {r0, r2, r5, r6, r8, r9, ip, sp, lr}
 a7c:	00000200 	andeq	r0, r0, r0, lsl #4
 a80:	6474735f 	ldrbtvs	r7, [r4], #-863	; 0xfffffca1
 a84:	2e746e69 	cdpcs	14, 7, cr6, cr4, cr9, {3}
 a88:	00030068 	andeq	r0, r3, r8, rrx
 a8c:	66656400 	strbtvs	r6, [r5], -r0, lsl #8
 a90:	746c7561 	strbtvc	r7, [ip], #-1377	; 0xfffffa9f
 a94:	0400682e 	streq	r6, [r0], #-2094	; 0xfffff7d2
 a98:	72670000 	rsbvc	r0, r7, #0
 a9c:	69687061 	stmdbvs	r8!, {r0, r5, r6, ip, sp, lr}^
 aa0:	682e7363 	stmdavs	lr!, {r0, r1, r5, r6, r8, r9, ip, sp, lr}
 aa4:	00000500 	andeq	r0, r0, r0, lsl #10
 aa8:	756d656d 	strbvc	r6, [sp, #-1389]!	; 0xfffffa93
 aac:	2e6c6974 	mcrcs	9, 3, r6, cr12, cr4, {3}
 ab0:	00060068 	andeq	r0, r6, r8, rrx
 ab4:	63767300 	cmnvs	r6, #0, 6
 ab8:	0500682e 	streq	r6, [r0, #-2094]	; 0xfffff7d2
 abc:	00000000 	andeq	r0, r0, r0
 ac0:	0b200205 	bleq	8012dc <__PROGRAM_SIZE+0x7f72d8>
 ac4:	0a030200 	beq	c12cc <__PROGRAM_SIZE+0xb72c8>
 ac8:	4b844b01 	blmi	fe1136d4 <__PROGRAM_END+0xfc1096a8>
 acc:	d783684c 	strle	r6, [r3, ip, asr #16]
 ad0:	0214694b 	andseq	r6, r4, #1228800	; 0x12c000
 ad4:	01010008 	tsteq	r1, r8
 ad8:	000000ce 	andeq	r0, r0, lr, asr #1
 adc:	00b90002 	adcseq	r0, r9, r2
 ae0:	01020000 	mrseq	r0, (UNDEF: 2)
 ae4:	000d0efb 	strdeq	r0, [sp], -fp
 ae8:	01010101 	tsteq	r1, r1, lsl #2
 aec:	01000000 	mrseq	r0, (UNDEF: 0)
 af0:	73010000 	movwvc	r0, #4096	; 0x1000
 af4:	6372756f 	cmnvs	r2, #465567744	; 0x1bc00000
 af8:	752f0065 	strvc	r0, [pc, #-101]!	; a9b <__PROGRAM_SIZE-0x9569>
 afc:	612f7273 	teqvs	pc, r3, ror r2	; <UNPREDICTABLE>
 b00:	6e2d6d72 	mcrvs	13, 1, r6, cr13, cr2, {3}
 b04:	2d656e6f 	stclcs	14, cr6, [r5, #-444]!	; 0xfffffe44
 b08:	69626165 	stmdbvs	r2!, {r0, r2, r5, r6, r8, sp, lr}^
 b0c:	636e692f 	cmnvs	lr, #770048	; 0xbc000
 b10:	6564756c 	strbvs	r7, [r4, #-1388]!	; 0xfffffa94
 b14:	63616d2f 	cmnvs	r1, #3008	; 0xbc0
 b18:	656e6968 	strbvs	r6, [lr, #-2408]!	; 0xfffff698
 b1c:	73752f00 	cmnvc	r5, #0, 30
 b20:	72612f72 	rsbvc	r2, r1, #456	; 0x1c8
 b24:	6f6e2d6d 	svcvs	0x006e2d6d
 b28:	652d656e 	strvs	r6, [sp, #-1390]!	; 0xfffffa92
 b2c:	2f696261 	svccs	0x00696261
 b30:	6c636e69 	stclvs	14, cr6, [r3], #-420	; 0xfffffe5c
 b34:	2f656475 	svccs	0x00656475
 b38:	00737973 	rsbseq	r7, r3, r3, ror r9
 b3c:	2e2e2f2e 	cdpcs	15, 2, cr2, cr14, cr14, {1}
 b40:	2f2e2e2f 	svccs	0x002e2e2f
 b44:	6d6d6f43 	stclvs	15, cr6, [sp, #-268]!	; 0xfffffef4
 b48:	69006e6f 	stmdbvs	r0, {r0, r1, r2, r3, r5, r6, r9, sl, fp, sp, lr}
 b4c:	756c636e 	strbvc	r6, [ip, #-878]!	; 0xfffffc92
 b50:	532f6564 	teqpl	pc, #100, 10	; 0x19000000
 b54:	616b7769 	cmnvs	fp, r9, ror #14
 b58:	76730000 	ldrbtvc	r0, [r3], -r0
 b5c:	00632e63 	rsbeq	r2, r3, r3, ror #28
 b60:	5f000001 	svcpl	0x00000001
 b64:	61666564 	cmnvs	r6, r4, ror #10
 b68:	5f746c75 	svcpl	0x00746c75
 b6c:	65707974 	ldrbvs	r7, [r0, #-2420]!	; 0xfffff68c
 b70:	00682e73 	rsbeq	r2, r8, r3, ror lr
 b74:	5f000002 	svcpl	0x00000002
 b78:	69647473 	stmdbvs	r4!, {r0, r1, r4, r5, r6, sl, ip, sp, lr}^
 b7c:	682e746e 	stmdavs	lr!, {r1, r2, r3, r5, r6, sl, ip, sp, lr}
 b80:	00000300 	andeq	r0, r0, r0, lsl #6
 b84:	61666564 	cmnvs	r6, r4, ror #10
 b88:	2e746c75 	mrccs	12, 3, r6, cr4, cr5, {3}
 b8c:	00040068 	andeq	r0, r4, r8, rrx
 b90:	63767300 	cmnvs	r6, #0, 6
 b94:	0500682e 	streq	r6, [r0, #-2094]	; 0xfffff7d2
 b98:	00000000 	andeq	r0, r0, r0
 b9c:	0ba40205 	bleq	fe9013b8 <__PROGRAM_END+0xfc8f738c>
 ba0:	2f1a0200 	svccs	0x001a0200
 ba4:	00040267 	andeq	r0, r4, r7, ror #4
 ba8:	01040101 	tsteq	r4, r1, lsl #2
 bac:	00020000 	andeq	r0, r2, r0
 bb0:	000000d4 	ldrdeq	r0, [r0], -r4
 bb4:	0efb0102 	cdpeq	1, 15, cr0, cr11, cr2, {0}
 bb8:	0101000d 	tsteq	r1, sp
 bbc:	00000101 	andeq	r0, r0, r1, lsl #2
 bc0:	00000100 	andeq	r0, r0, r0, lsl #2
 bc4:	756f7301 	strbvc	r7, [pc, #-769]!	; 8cb <__PROGRAM_SIZE-0x9739>
 bc8:	00656372 	rsbeq	r6, r5, r2, ror r3
 bcc:	7273752f 	rsbsvc	r7, r3, #197132288	; 0xbc00000
 bd0:	6d72612f 	ldfvse	f6, [r2, #-188]!	; 0xffffff44
 bd4:	6e6f6e2d 	cdpvs	14, 6, cr6, cr15, cr13, {1}
 bd8:	61652d65 	cmnvs	r5, r5, ror #26
 bdc:	692f6962 	stmdbvs	pc!, {r1, r5, r6, r8, fp, sp, lr}	; <UNPREDICTABLE>
 be0:	756c636e 	strbvc	r6, [ip, #-878]!	; 0xfffffc92
 be4:	6d2f6564 	cfstr32vs	mvfx6, [pc, #-400]!	; a5c <__PROGRAM_SIZE-0x95a8>
 be8:	69686361 	stmdbvs	r8!, {r0, r5, r6, r8, r9, sp, lr}^
 bec:	2f00656e 	svccs	0x0000656e
 bf0:	2f727375 	svccs	0x00727375
 bf4:	2d6d7261 	sfmcs	f7, 2, [sp, #-388]!	; 0xfffffe7c
 bf8:	656e6f6e 	strbvs	r6, [lr, #-3950]!	; 0xfffff092
 bfc:	6261652d 	rsbvs	r6, r1, #188743680	; 0xb400000
 c00:	6e692f69 	cdpvs	15, 6, cr2, cr9, cr9, {3}
 c04:	64756c63 	ldrbtvs	r6, [r5], #-3171	; 0xfffff39d
 c08:	79732f65 	ldmdbvc	r3!, {r0, r2, r5, r6, r8, r9, sl, fp, sp}^
 c0c:	2f2e0073 	svccs	0x002e0073
 c10:	2e2f2e2e 	cdpcs	14, 2, cr2, cr15, cr14, {1}
 c14:	6f432f2e 	svcvs	0x00432f2e
 c18:	6e6f6d6d 	cdpvs	13, 6, cr6, cr15, cr13, {3}
 c1c:	636e6900 	cmnvs	lr, #0, 18
 c20:	6564756c 	strbvs	r7, [r4, #-1388]!	; 0xfffffa94
 c24:	7769532f 	strbvc	r5, [r9, -pc, lsr #6]!
 c28:	0000616b 	andeq	r6, r0, fp, ror #2
 c2c:	72617473 	rsbvc	r7, r1, #1929379840	; 0x73000000
 c30:	00632e74 	rsbeq	r2, r3, r4, ror lr
 c34:	5f000001 	svcpl	0x00000001
 c38:	61666564 	cmnvs	r6, r4, ror #10
 c3c:	5f746c75 	svcpl	0x00746c75
 c40:	65707974 	ldrbvs	r7, [r0, #-2420]!	; 0xfffff68c
 c44:	00682e73 	rsbeq	r2, r8, r3, ror lr
 c48:	5f000002 	svcpl	0x00000002
 c4c:	69647473 	stmdbvs	r4!, {r0, r1, r4, r5, r6, sl, ip, sp, lr}^
 c50:	682e746e 	stmdavs	lr!, {r1, r2, r3, r5, r6, sl, ip, sp, lr}
 c54:	00000300 	andeq	r0, r0, r0, lsl #6
 c58:	61666564 	cmnvs	r6, r4, ror #10
 c5c:	2e746c75 	mrccs	12, 3, r6, cr4, cr5, {3}
 c60:	00040068 	andeq	r0, r4, r8, rrx
 c64:	706e6900 	rsbvc	r6, lr, r0, lsl #18
 c68:	682e7475 	stmdavs	lr!, {r0, r2, r4, r5, r6, sl, ip, sp, lr}
 c6c:	00000500 	andeq	r0, r0, r0, lsl #10
 c70:	70617267 	rsbvc	r7, r1, r7, ror #4
 c74:	73636968 	cmnvc	r3, #104, 18	; 0x1a0000
 c78:	0500682e 	streq	r6, [r0, #-2094]	; 0xfffff7d2
 c7c:	76730000 	ldrbtvc	r0, [r3], -r0
 c80:	00682e63 	rsbeq	r2, r8, r3, ror #28
 c84:	00000005 	andeq	r0, r0, r5
 c88:	bc020500 	cfstr32lt	mvfx0, [r2], {-0}
 c8c:	0302000b 	movweq	r0, #8203	; 0x200b
 c90:	a167011c 	cmnge	r7, ip, lsl r1
 c94:	8274034c 	rsbshi	r0, r4, #76, 6	; 0x30000001
 c98:	0008022f 	andeq	r0, r8, pc, lsr #4
 c9c:	05000101 	streq	r0, [r0, #-257]	; 0xfffffeff
 ca0:	00000002 	andeq	r0, r0, r2
 ca4:	010c0302 	tsteq	ip, r2, lsl #6
 ca8:	304b4c2f 	subcc	r4, fp, pc, lsr #24
 cac:	0006022f 	andeq	r0, r6, pc, lsr #4
 cb0:	Address 0x0000000000000cb0 is out of bounds.


Disassembly of section .debug_str:

00000000 <.debug_str>:
   0:	6c6f6f62 	stclvs	15, cr6, [pc], #-392	; fffffe80 <__PROGRAM_END+0xfdff5e54>
   4:	4e5a5f00 	cdpmi	15, 5, cr5, cr10, cr0, {0}
   8:	6e533131 	mrcvs	1, 2, r3, cr3, cr1, {1}
   c:	4f656b61 	svcmi	0x00656b61
  10:	63656a62 	cmnvs	r5, #401408	; 0x62000
  14:	45324374 	ldrmi	r4, [r2, #-884]!	; 0xfffffc8c
  18:	6c420076 	mcrrvs	0, 7, r0, r2, cr6
  1c:	436b636f 	cmnmi	fp, #-1140850687	; 0xbc000001
  20:	746e756f 	strbtvc	r7, [lr], #-1391	; 0xfffffa91
  24:	616e5300 	cmnvs	lr, r0, lsl #6
  28:	624f656b 	subvs	r6, pc, #448790528	; 0x1ac00000
  2c:	7463656a 	strbtvc	r6, [r3], #-1386	; 0xfffffa96
  30:	736e7500 	cmnvc	lr, #0, 10
  34:	656e6769 	strbvs	r6, [lr, #-1897]!	; 0xfffff897
  38:	68632064 	stmdavs	r3!, {r2, r5, r6, sp}^
  3c:	74007261 	strvc	r7, [r0], #-609	; 0xfffffd9f
  40:	00736968 	rsbseq	r6, r3, r8, ror #18
  44:	726f6873 	rsbvc	r6, pc, #7536640	; 0x730000
  48:	6e752074 	mrcvs	0, 3, r2, cr5, cr4, {3}
  4c:	6e676973 	mcrvs	9, 3, r6, cr7, cr3, {3}
  50:	69206465 	stmdbvs	r0!, {r0, r2, r5, r6, sl, sp, lr}
  54:	2f00746e 	svccs	0x0000746e
  58:	61746164 	cmnvs	r4, r4, ror #2
  5c:	7365442f 	cmnvc	r5, #788529152	; 0x2f000000
  60:	706f746b 	rsbvc	r7, pc, fp, ror #8
  64:	7769532f 	strbvc	r5, [r9, -pc, lsr #6]!
  68:	4f20616b 	svcmi	0x0020616b
  6c:	73552f53 	cmpvc	r5, #332	; 0x14c
  70:	616c7265 	cmnvs	ip, r5, ror #4
  74:	502f646e 	eorpl	r6, pc, lr, ror #8
  78:	72676f72 	rsbvc	r6, r7, #456	; 0x1c8
  7c:	2f736d61 	svccs	0x00736d61
  80:	6b616e53 	blvs	185b9d4 <__PROGRAM_SIZE+0x18519d0>
  84:	6f730065 	svcvs	0x00730065
  88:	65637275 	strbvs	r7, [r3, #-629]!	; 0xfffffd8b
  8c:	616e732f 	cmnvs	lr, pc, lsr #6
  90:	632e656b 	teqvs	lr, #448790528	; 0x1ac00000
  94:	74655300 	strbtvc	r5, [r5], #-768	; 0xfffffd00
  98:	656c6954 	strbvs	r6, [ip, #-2388]!	; 0xfffff6ac
  9c:	62616e45 	rsbvs	r6, r1, #1104	; 0x450
  a0:	0064656c 	rsbeq	r6, r4, ip, ror #10
  a4:	69755f5f 	ldmdbvs	r5!, {r0, r1, r2, r3, r4, r6, r8, r9, sl, fp, ip, lr}^
  a8:	3233746e 	eorscc	r7, r3, #1845493760	; 0x6e000000
  ac:	7500745f 	strvc	r7, [r0, #-1119]	; 0xfffffba1
  b0:	33746e69 	cmncc	r4, #1680	; 0x690
  b4:	6f500032 	svcvs	0x00500032
  b8:	69746973 	ldmdbvs	r4!, {r0, r1, r4, r5, r6, r8, fp, sp, lr}^
  bc:	42006e6f 	andmi	r6, r0, #1776	; 0x6f0
  c0:	6b636f6c 	blvs	18dbe78 <__PROGRAM_SIZE+0x18d1e74>
  c4:	6f6c0073 	svcvs	0x006c0073
  c8:	6c20676e 	stcvs	7, cr6, [r0], #-440	; 0xfffffe48
  cc:	20676e6f 	rsbcs	r6, r7, pc, ror #28
  d0:	69736e75 	ldmdbvs	r3!, {r0, r2, r4, r5, r6, r9, sl, fp, sp, lr}^
  d4:	64656e67 	strbtvs	r6, [r5], #-3687	; 0xfffff199
  d8:	746e6920 	strbtvc	r6, [lr], #-2336	; 0xfffff6e0
  dc:	7a697300 	bvc	1a5cce4 <__PROGRAM_SIZE+0x1a52ce0>
  e0:	70797465 	rsbsvc	r7, r9, r5, ror #8
  e4:	6f6c0065 	svcvs	0x006c0065
  e8:	6c20676e 	stcvs	7, cr6, [r0], #-440	; 0xfffffe48
  ec:	20676e6f 	rsbcs	r6, r7, pc, ror #28
  f0:	00746e69 	rsbseq	r6, r4, r9, ror #28
  f4:	34315a5f 	ldrtcc	r5, [r1], #-2655	; 0xfffff5a1
  f8:	54746553 	ldrbtpl	r6, [r4], #-1363	; 0xfffffaad
  fc:	45656c69 	strbmi	r6, [r5, #-3177]!	; 0xfffff397
 100:	6c62616e 	stfvse	f6, [r2], #-440	; 0xfffffe48
 104:	6d6d6465 	cfstrdvs	mvd6, [sp, #-404]!	; 0xfffffe6c
 108:	68730062 	ldmdavs	r3!, {r1, r5, r6}^
 10c:	2074726f 	rsbscs	r7, r4, pc, ror #4
 110:	00746e69 	rsbseq	r6, r4, r9, ror #28
 114:	314e5a5f 	cmpcc	lr, pc, asr sl
 118:	616e5331 	cmnvs	lr, r1, lsr r3
 11c:	624f656b 	subvs	r6, pc, #448790528	; 0x1ac00000
 120:	7463656a 	strbtvc	r6, [r3], #-1386	; 0xfffffa96
 124:	76453443 	strbvc	r3, [r5], -r3, asr #8
 128:	554e4700 	strbpl	r4, [lr, #-1792]	; 0xfffff900
 12c:	2b2b4320 	blcs	ad0db4 <__PROGRAM_SIZE+0xac6db0>
 130:	312e3520 	teqcc	lr, r0, lsr #10
 134:	2d20302e 	stccs	0, cr3, [r0, #-184]!	; 0xffffff48
 138:	6372616d 	cmnvs	r2, #1073741851	; 0x4000001b
 13c:	72613d68 	rsbvc	r3, r1, #104, 26	; 0x1a00
 140:	6a36766d 	bvs	d9dafc <__PROGRAM_SIZE+0xd93af8>
 144:	746d2d20 	strbtvc	r2, [sp], #-3360	; 0xfffff2e0
 148:	3d656e75 	stclcc	14, cr6, [r5, #-468]!	; 0xfffffe2c
 14c:	316d7261 	cmncc	sp, r1, ror #4
 150:	6a363731 	bvs	d8de1c <__PROGRAM_SIZE+0xd83e18>
 154:	732d667a 	teqvc	sp, #127926272	; 0x7a00000
 158:	666d2d20 	strbtvs	r2, [sp], -r0, lsr #26
 15c:	74616f6c 	strbtvc	r6, [r1], #-3948	; 0xfffff094
 160:	6962612d 	stmdbvs	r2!, {r0, r2, r3, r5, r8, sp, lr}^
 164:	7261683d 	rsbvc	r6, r1, #3997696	; 0x3d0000
 168:	672d2064 	strvs	r2, [sp, -r4, rrx]!
 16c:	204f2d20 	subcs	r2, pc, r0, lsr #26
 170:	6f6e662d 	svcvs	0x006e662d
 174:	6378652d 	cmnvs	r8, #188743680	; 0xb400000
 178:	69747065 	ldmdbvs	r4!, {r0, r2, r5, r6, ip, sp, lr}^
 17c:	20736e6f 	rsbscs	r6, r3, pc, ror #28
 180:	6973662d 	ldmdbvs	r3!, {r0, r2, r3, r5, r9, sl, sp, lr}^
 184:	64656e67 	strbtvs	r6, [r5], #-3687	; 0xfffff199
 188:	6168632d 	cmnvs	r8, sp, lsr #6
 18c:	65530072 	ldrbvs	r0, [r3, #-114]	; 0xffffff8e
 190:	756f4d74 	strbvc	r4, [pc, #-3444]!	; fffff424 <__PROGRAM_END+0xfdff53f8>
 194:	76456573 			; <UNDEFINED> instruction: 0x76456573
 198:	48746e65 	ldmdami	r4!, {r0, r2, r5, r6, r9, sl, fp, sp, lr}^
 19c:	6c646e61 	stclvs	14, cr6, [r4], #-388	; 0xfffffe7c
 1a0:	5f007265 	svcpl	0x00007265
 1a4:	4d37315a 	ldfmis	f3, [r7, #-360]!	; 0xfffffe98
 1a8:	6573756f 	ldrbvs	r7, [r3, #-1391]!	; 0xfffffa91
 1ac:	6e657645 	cdpvs	6, 6, cr7, cr5, cr5, {2}
 1b0:	6e614874 	mcrvs	8, 3, r4, cr1, cr4, {3}
 1b4:	72656c64 	rsbvc	r6, r5, #100, 24	; 0x6400
 1b8:	4d303150 	ldfmis	f3, [r0, #-320]!	; 0xfffffec0
 1bc:	6573756f 	ldrbvs	r7, [r3, #-1391]!	; 0xfffffa91
 1c0:	6e657645 	cdpvs	6, 6, cr7, cr5, cr5, {2}
 1c4:	74530074 	ldrbvc	r0, [r3], #-116	; 0xffffff8c
 1c8:	676e6972 			; <UNDEFINED> instruction: 0x676e6972
 1cc:	6d726f46 	ldclvs	15, cr6, [r2, #-280]!	; 0xfffffee8
 1d0:	5f007461 	svcpl	0x00007461
 1d4:	424f4c47 	submi	r4, pc, #18176	; 0x4700
 1d8:	5f5f4c41 	svcpl	0x005f4c41
 1dc:	5f627573 	svcpl	0x00627573
 1e0:	75525f49 	ldrbvc	r5, [r2, #-3913]	; 0xfffff0b7
 1e4:	6e696e6e 	cdpvs	14, 6, cr6, cr9, cr14, {3}
 1e8:	6f730067 	svcvs	0x00730067
 1ec:	65637275 	strbvs	r7, [r3, #-629]!	; 0xfffffd8b
 1f0:	69616d2f 	stmdbvs	r1!, {r0, r1, r2, r3, r5, r8, sl, fp, sp, lr}^
 1f4:	00632e6e 	rsbeq	r2, r3, lr, ror #28
 1f8:	4d345a5f 	vldmdbmi	r4!, {s10-s104}
 1fc:	766e6961 	strbtvc	r6, [lr], -r1, ror #18
 200:	315a5f00 	cmpcc	sl, r0, lsl #30
 204:	72745332 	rsbsvc	r5, r4, #-939524096	; 0xc8000000
 208:	46676e69 	strbtmi	r6, [r7], -r9, ror #28
 20c:	616d726f 	cmnvs	sp, pc, ror #4
 210:	53635074 	cmnpl	r3, #116	; 0x74
 214:	6d007a5f 	vstrvs	s14, [r0, #-380]	; 0xfffffe84
 218:	70636d65 	rsbvc	r6, r3, r5, ror #26
 21c:	5f5f0079 	svcpl	0x005f0079
 220:	74696e69 	strbtvc	r6, [r9], #-3689	; 0xfffff197
 224:	696c6169 	stmdbvs	ip!, {r0, r3, r5, r6, r8, sp, lr}^
 228:	705f657a 	subsvc	r6, pc, sl, ror r5	; <UNPREDICTABLE>
 22c:	325a5f00 	subscc	r5, sl, #0, 30
 230:	74655330 	strbtvc	r5, [r5], #-816	; 0xfffffcd0
 234:	73756f4d 	cmnvc	r5, #308	; 0x134
 238:	65764565 	ldrbvs	r4, [r6, #-1381]!	; 0xfffffa9b
 23c:	6148746e 	cmpvs	r8, lr, ror #8
 240:	656c646e 	strbvs	r6, [ip, #-1134]!	; 0xfffffb92
 244:	76465072 			; <UNDEFINED> instruction: 0x76465072
 248:	4d303150 	ldfmis	f3, [r0, #-320]!	; 0xfffffec0
 24c:	6573756f 	ldrbvs	r7, [r3, #-1391]!	; 0xfffffa91
 250:	6e657645 	cdpvs	6, 6, cr7, cr5, cr5, {2}
 254:	5f004574 	svcpl	0x00004574
 258:	47384e5a 			; <UNDEFINED> instruction: 0x47384e5a
 25c:	68706172 	ldmdavs	r0!, {r1, r4, r5, r6, r8, sp, lr}^
 260:	39736369 	ldmdbcc	r3!, {r0, r3, r5, r6, r8, r9, sp, lr}^
 264:	53747550 	cmnpl	r4, #80, 10	; 0x14000000
 268:	6e697274 	mcrvs	2, 3, r7, cr9, cr4, {3}
 26c:	63504567 	cmpvs	r0, #432013312	; 0x19c00000
 270:	00696969 	rsbeq	r6, r9, r9, ror #18
 274:	74747542 	ldrbtvc	r7, [r4], #-1346	; 0xfffffabe
 278:	54006e6f 	strpl	r6, [r0], #-3695	; 0xfffff191
 27c:	00657079 	rsbeq	r7, r5, r9, ror r0
 280:	74735f5f 	ldrbtvc	r5, [r3], #-3935	; 0xfffff0a1
 284:	63697461 	cmnvs	r9, #1627389952	; 0x61000000
 288:	696e695f 	stmdbvs	lr!, {r0, r1, r2, r3, r4, r6, r8, fp, sp, lr}^
 28c:	6c616974 	stclvs	9, cr6, [r1], #-464	; 0xfffffe30
 290:	74617a69 	strbtvc	r7, [r1], #-2665	; 0xfffff597
 294:	5f6e6f69 	svcpl	0x006e6f69
 298:	5f646e61 	svcpl	0x00646e61
 29c:	74736564 	ldrbtvc	r6, [r3], #-1380	; 0xfffffa9c
 2a0:	74637572 	strbtvc	r7, [r3], #-1394	; 0xfffffa8e
 2a4:	5f6e6f69 	svcpl	0x006e6f69
 2a8:	5f5f0030 	svcpl	0x005f0030
 2ac:	6f697270 	svcvs	0x00697270
 2b0:	79746972 	ldmdbvc	r4!, {r1, r4, r5, r6, r8, fp, sp, lr}^
 2b4:	73694400 	cmnvc	r9, #0, 8
 2b8:	63746170 	cmnvs	r4, #112, 2
 2bc:	73654d68 	cmnvc	r5, #104, 26	; 0x1a00
 2c0:	65676173 	strbvs	r6, [r7, #-371]!	; 0xfffffe8d
 2c4:	72470073 	subvc	r0, r7, #115	; 0x73
 2c8:	69687061 	stmdbvs	r8!, {r0, r5, r6, ip, sp, lr}^
 2cc:	5f007363 	svcpl	0x00007363
 2d0:	4436315a 	ldrtmi	r3, [r6], #-346	; 0xfffffea6
 2d4:	61707369 	cmnvs	r0, r9, ror #6
 2d8:	4d686374 	stclmi	3, cr6, [r8, #-464]!	; 0xfffffe30
 2dc:	61737365 	cmnvs	r3, r5, ror #6
 2e0:	76736567 	ldrbtvc	r6, [r3], -r7, ror #10
 2e4:	74755000 	ldrbtvc	r5, [r5], #-0
 2e8:	69727453 	ldmdbvs	r2!, {r0, r1, r4, r6, sl, ip, sp, lr}^
 2ec:	4400676e 	strmi	r6, [r0], #-1902	; 0xfffff892
 2f0:	6c707369 	ldclvs	3, cr7, [r0], #-420	; 0xfffffe5c
 2f4:	6d656361 	stclvs	3, cr6, [r5, #-388]!	; 0xfffffe7c
 2f8:	58746e65 	ldmdapl	r4!, {r0, r2, r5, r6, r9, sl, fp, sp, lr}^
 2fc:	73694400 	cmnvc	r9, #0, 8
 300:	63616c70 	cmnvs	r1, #112, 24	; 0x7000
 304:	6e656d65 	cdpvs	13, 6, cr6, cr5, cr5, {3}
 308:	5f005974 	svcpl	0x00005974
 30c:	47384e5a 			; <UNDEFINED> instruction: 0x47384e5a
 310:	68706172 	ldmdavs	r0!, {r1, r4, r5, r6, r8, sp, lr}^
 314:	38736369 	ldmdacc	r3!, {r0, r3, r5, r6, r8, r9, sp, lr}^
 318:	6c6c6946 	stclvs	9, cr6, [ip], #-280	; 0xfffffee8
 31c:	74636552 	strbtvc	r6, [r3], #-1362	; 0xfffffaae
 320:	6d6d6d45 	stclvs	13, cr6, [sp, #-276]!	; 0xfffffeec
 324:	5a5f006d 	bpl	17c04e0 <__PROGRAM_SIZE+0x17b64dc>
 328:	7247384e 	subvc	r3, r7, #5111808	; 0x4e0000
 32c:	69687061 	stmdbvs	r8!, {r0, r5, r6, ip, sp, lr}^
 330:	53387363 	teqpl	r8, #-1946157055	; 0x8c000001
 334:	6f437465 	svcvs	0x00437465
 338:	45726f6c 	ldrbmi	r6, [r2, #-3948]!	; 0xfffff094
 33c:	6946006d 	stmdbvs	r6, {r0, r2, r3, r5, r6}^
 340:	65526c6c 	ldrbvs	r6, [r2, #-3180]	; 0xfffff394
 344:	73007463 	movwvc	r7, #1123	; 0x463
 348:	6372756f 	cmnvs	r2, #465567744	; 0x1bc00000
 34c:	63732f65 	cmnvs	r3, #404	; 0x194
 350:	6e656572 	mcrvs	5, 3, r6, cr5, cr2, {3}
 354:	5000632e 	andpl	r6, r0, lr, lsr #6
 358:	0058736f 	subseq	r7, r8, pc, ror #6
 35c:	43746553 	cmnmi	r4, #348127232	; 0x14c00000
 360:	726f6c6f 	rsbvc	r6, pc, #28416	; 0x6f00
 364:	736f5000 	cmnvc	pc, #0
 368:	6f730059 	svcvs	0x00730059
 36c:	65637275 	strbvs	r7, [r3, #-629]!	; 0xfffffd8b
 370:	7274732f 	rsbsvc	r7, r4, #-1140850688	; 0xbc000000
 374:	2e676e69 	cdpcs	14, 6, cr6, cr7, cr9, {3}
 378:	654d0063 	strbvs	r0, [sp, #-99]	; 0xffffff9d
 37c:	79726f6d 	ldmdbvc	r2!, {r0, r2, r3, r5, r6, r8, r9, sl, fp, sp, lr}^
 380:	79706f43 	ldmdbvc	r0!, {r0, r1, r6, r8, r9, sl, fp, sp, lr}^
 384:	72745300 	rsbsvc	r5, r4, #0, 6
 388:	43676e69 	cmnmi	r7, #1680	; 0x690
 38c:	61636e6f 	cmnvs	r3, pc, ror #28
 390:	6f530074 	svcvs	0x00530074
 394:	65637275 	strbvs	r7, [r3, #-629]!	; 0xfffffd8b
 398:	69727453 	ldmdbvs	r2!, {r0, r1, r4, r6, sl, ip, sp, lr}^
 39c:	7300676e 	movwvc	r6, #1902	; 0x76e
 3a0:	5f657a69 	svcpl	0x00657a69
 3a4:	74530074 	ldrbvc	r0, [r3], #-116	; 0xffffff8c
 3a8:	676e6972 			; <UNDEFINED> instruction: 0x676e6972
 3ac:	61757145 	cmnvs	r5, r5, asr #2
 3b0:	754e006c 	strbvc	r0, [lr, #-108]	; 0xffffff94
 3b4:	7265626d 	rsbvc	r6, r5, #-805306362	; 0xd0000006
 3b8:	66667542 	strbtvs	r7, [r6], -r2, asr #10
 3bc:	5f007265 	svcpl	0x00007265
 3c0:	5331315a 	teqpl	r1, #-2147483626	; 0x80000016
 3c4:	6e697274 	mcrvs	2, 3, r7, cr9, cr4, {3}
 3c8:	70705567 	rsbsvc	r5, r0, r7, ror #10
 3cc:	63507265 	cmpvs	r0, #1342177286	; 0x50000006
 3d0:	315a5f00 	cmpcc	sl, r0, lsl #30
 3d4:	72745335 	rsbsvc	r5, r4, #-738197504	; 0xd4000000
 3d8:	47676e69 	strbmi	r6, [r7, -r9, ror #28]!
 3dc:	654c7465 	strbvs	r7, [ip, #-1125]	; 0xfffffb9b
 3e0:	6874676e 	ldmdavs	r4!, {r1, r2, r3, r5, r6, r8, r9, sl, sp, lr}^
 3e4:	53006350 	movwpl	r6, #848	; 0x350
 3e8:	6e697274 	mcrvs	2, 3, r7, cr9, cr4, {3}
 3ec:	6e6f4367 	cdpvs	3, 6, cr4, cr15, cr7, {3}
 3f0:	74726576 	ldrbtvc	r6, [r2], #-1398	; 0xfffffa8a
 3f4:	676e6f4c 	strbvs	r6, [lr, -ip, asr #30]!
 3f8:	325a5f00 	subscc	r5, sl, #0, 30
 3fc:	72745335 	rsbsvc	r5, r4, #-738197504	; 0xd4000000
 400:	43676e69 	cmnmi	r7, #1680	; 0x690
 404:	65766e6f 	ldrbvs	r6, [r6, #-3695]!	; 0xfffff191
 408:	6e557472 	mrcvs	4, 2, r7, cr5, cr2, {3}
 40c:	6e676973 	mcrvs	9, 3, r6, cr7, cr3, {3}
 410:	6f4c6465 	svcvs	0x004c6465
 414:	6350676e 	cmpvs	r0, #28835840	; 0x1b80000
 418:	5f5f0079 	svcpl	0x005f0079
 41c:	6c5f6176 	ldfvse	f6, [pc], {118}	; 0x76
 420:	00747369 	rsbseq	r7, r4, r9, ror #6
 424:	36315a5f 			; <UNDEFINED> instruction: 0x36315a5f
 428:	69727453 	ldmdbvs	r2!, {r0, r1, r4, r6, sl, ip, sp, lr}^
 42c:	6f43676e 	svcvs	0x0043676e
 430:	7265766e 	rsbvc	r7, r5, #115343360	; 0x6e00000
 434:	78654874 	stmdavc	r5!, {r2, r4, r5, r6, fp, lr}^
 438:	00786350 	rsbseq	r6, r8, r0, asr r3
 43c:	6e695f5f 	mcrvs	15, 3, r5, cr9, cr15, {2}
 440:	5f343674 	svcpl	0x00343674
 444:	5a5f0074 	bpl	17c061c <__PROGRAM_SIZE+0x17b6618>
 448:	74533231 	ldrbvc	r3, [r3], #-561	; 0xfffffdcf
 44c:	676e6972 			; <UNDEFINED> instruction: 0x676e6972
 450:	636e6f43 	cmnvs	lr, #268	; 0x10c
 454:	63507461 	cmpvs	r0, #1627389952	; 0x61000000
 458:	53005f53 	movwpl	r5, #3923	; 0xf53
 45c:	6e697274 	mcrvs	2, 3, r7, cr9, cr4, {3}
 460:	53003167 	movwpl	r3, #359	; 0x167
 464:	6e697274 	mcrvs	2, 3, r7, cr9, cr4, {3}
 468:	5f003267 	svcpl	0x00003267
 46c:	5337315a 	teqpl	r7, #-2147483626	; 0x80000016
 470:	6e697274 	mcrvs	2, 3, r7, cr9, cr4, {3}
 474:	6e6f4367 	cdpvs	3, 6, cr4, cr15, cr7, {3}
 478:	74726576 	ldrbtvc	r6, [r2], #-1398	; 0xfffffa8a
 47c:	676e6f4c 	strbvs	r6, [lr, -ip, asr #30]!
 480:	00786350 	rsbseq	r6, r8, r0, asr r3
 484:	756c6156 	strbvc	r6, [ip, #-342]!	; 0xfffffeaa
 488:	74530065 	ldrbvc	r0, [r3], #-101	; 0xffffff9b
 48c:	676e6972 			; <UNDEFINED> instruction: 0x676e6972
 490:	766e6f43 	strbtvc	r6, [lr], -r3, asr #30
 494:	48747265 	ldmdami	r4!, {r0, r2, r5, r6, r9, ip, sp, lr}^
 498:	5f007865 	svcpl	0x00007865
 49c:	0070615f 	rsbseq	r6, r0, pc, asr r1
 4a0:	30315a5f 	eorscc	r5, r1, pc, asr sl
 4a4:	69727453 	ldmdbvs	r2!, {r0, r1, r4, r6, sl, ip, sp, lr}^
 4a8:	6f43676e 	svcvs	0x0043676e
 4ac:	63507970 	cmpvs	r0, #112, 18	; 0x1c0000
 4b0:	53007650 	movwpl	r7, #1616	; 0x650
 4b4:	6e697274 	mcrvs	2, 3, r7, cr9, cr4, {3}
 4b8:	706f4367 	rsbvc	r4, pc, r7, ror #6
 4bc:	74530079 	ldrbvc	r0, [r3], #-121	; 0xffffff87
 4c0:	676e6972 			; <UNDEFINED> instruction: 0x676e6972
 4c4:	65707055 	ldrbvs	r7, [r0, #-85]!	; 0xffffffab
 4c8:	61500072 	cmpvs	r0, r2, ror r0
 4cc:	72657474 	rsbvc	r7, r5, #116, 8	; 0x74000000
 4d0:	5a5f006e 	bpl	17c0690 <__PROGRAM_SIZE+0x17b668c>
 4d4:	74533131 	ldrbvc	r3, [r3], #-305	; 0xfffffecf
 4d8:	676e6972 			; <UNDEFINED> instruction: 0x676e6972
 4dc:	61757145 	cmnvs	r5, r5, asr #2
 4e0:	5363506c 	cmnpl	r3, #108	; 0x6c
 4e4:	642f005f 	strtvs	r0, [pc], #-95	; 4ec <__PROGRAM_SIZE-0x9b18>
 4e8:	2f617461 	svccs	0x00617461
 4ec:	6b736544 	blvs	1cd9a04 <__PROGRAM_SIZE+0x1ccfa00>
 4f0:	2f706f74 	svccs	0x00706f74
 4f4:	6b776953 	blvs	1ddaa48 <__PROGRAM_SIZE+0x1dd0a44>
 4f8:	534f2061 	movtpl	r2, #61537	; 0xf061
 4fc:	6474532f 	ldrbtvs	r5, [r4], #-815	; 0xfffffcd1
 500:	0062696c 	rsbeq	r6, r2, ip, ror #18
 504:	69755f5f 	ldmdbvs	r5!, {r0, r1, r2, r3, r4, r6, r8, r9, sl, fp, ip, lr}^
 508:	3436746e 	ldrtcc	r7, [r6], #-1134	; 0xfffffb92
 50c:	5000745f 	andpl	r7, r0, pc, asr r4
 510:	65646e49 	strbvs	r6, [r4, #-3657]!	; 0xfffff1b7
 514:	75430078 	strbvc	r0, [r3, #-120]	; 0xffffff88
 518:	6e657272 	mcrvs	2, 3, r7, cr5, cr2, {3}
 51c:	72745374 	rsbsvc	r5, r4, #116, 6	; 0xd0000001
 520:	00676e69 	rsbeq	r6, r7, r9, ror #28
 524:	75677241 	strbvc	r7, [r7, #-577]!	; 0xfffffdbf
 528:	746e656d 	strbtvc	r6, [lr], #-1389	; 0xfffffa93
 52c:	5a5f0073 	bpl	17c0700 <__PROGRAM_SIZE+0x17b66fc>
 530:	74533131 	ldrbvc	r3, [r3], #-305	; 0xfffffecf
 534:	676e6972 			; <UNDEFINED> instruction: 0x676e6972
 538:	65776f4c 	ldrbvs	r6, [r7, #-3916]!	; 0xfffff0b4
 53c:	00635072 	rsbeq	r5, r3, r2, ror r0
 540:	646e4944 	strbtvs	r4, [lr], #-2372	; 0xfffff6bc
 544:	44007865 	strmi	r7, [r0], #-2149	; 0xfffff79b
 548:	69747365 	ldmdbvs	r4!, {r0, r2, r5, r6, r8, r9, ip, sp, lr}^
 54c:	6974616e 	ldmdbvs	r4!, {r1, r2, r3, r5, r6, r8, sp, lr}^
 550:	4c006e6f 	stcmi	14, cr6, [r0], {111}	; 0x6f
 554:	74676e65 	strbtvc	r6, [r7], #-3685	; 0xfffff19b
 558:	4c003168 	stfmis	f3, [r0], {104}	; 0x68
 55c:	74676e65 	strbtvc	r6, [r7], #-3685	; 0xfffff19b
 560:	53003268 	movwpl	r3, #616	; 0x268
 564:	6e697274 	mcrvs	2, 3, r7, cr9, cr4, {3}
 568:	74654767 	strbtvc	r4, [r5], #-1895	; 0xfffff899
 56c:	676e654c 	strbvs	r6, [lr, -ip, asr #10]!
 570:	5f006874 	svcpl	0x00006874
 574:	756e675f 	strbvc	r6, [lr, #-1887]!	; 0xfffff8a1
 578:	61765f63 	cmnvs	r6, r3, ror #30
 57c:	73696c5f 	cmnvc	r9, #24320	; 0x5f00
 580:	74530074 	ldrbvc	r0, [r3], #-116	; 0xffffff8c
 584:	676e6972 			; <UNDEFINED> instruction: 0x676e6972
 588:	65776f4c 	ldrbvs	r6, [r7, #-3916]!	; 0xfffff0b4
 58c:	5a5f0072 	bpl	17c075c <__PROGRAM_SIZE+0x17b6758>
 590:	654d3031 	strbvs	r3, [sp, #-49]	; 0xffffffcf
 594:	79726f6d 	ldmdbvc	r2!, {r0, r2, r3, r5, r6, r8, r9, sl, fp, sp, lr}^
 598:	79706f43 	ldmdbvc	r0!, {r0, r1, r6, r8, r9, sl, fp, sp, lr}^
 59c:	5f537650 	svcpl	0x00537650
 5a0:	74530069 	ldrbvc	r0, [r3], #-105	; 0xffffff97
 5a4:	676e6972 			; <UNDEFINED> instruction: 0x676e6972
 5a8:	766e6f43 	strbtvc	r6, [lr], -r3, asr #30
 5ac:	55747265 	ldrbpl	r7, [r4, #-613]!	; 0xfffffd9b
 5b0:	6769736e 	strbvs	r7, [r9, -lr, ror #6]!
 5b4:	4c64656e 	cfstr64mi	mvdx6, [r4], #-440	; 0xfffffe48
 5b8:	00676e6f 	rsbeq	r6, r7, pc, ror #28
 5bc:	50637253 	rsbpl	r7, r3, r3, asr r2
 5c0:	41007274 	tstmi	r0, r4, ror r2
 5c4:	72726464 	rsbsvc	r6, r2, #100, 8	; 0x64000000
 5c8:	00737365 	rsbseq	r7, r3, r5, ror #6
 5cc:	74736544 	ldrbtvc	r6, [r3], #-1348	; 0xfffffabc
 5d0:	756f7300 	strbvc	r7, [pc, #-768]!	; 2d8 <__PROGRAM_SIZE-0x9d2c>
 5d4:	2f656372 	svccs	0x00656372
 5d8:	756d656d 	strbvc	r6, [sp, #-1389]!	; 0xfffffa93
 5dc:	2e6c6974 	mcrcs	9, 3, r6, cr12, cr4, {3}
 5e0:	69530063 	ldmdbvs	r3, {r0, r1, r5, r6}^
 5e4:	4400657a 	strmi	r6, [r0], #-1402	; 0xfffffa86
 5e8:	50747365 	rsbspl	r7, r4, r5, ror #6
 5ec:	4d007274 	sfmmi	f7, 4, [r0, #-464]	; 0xfffffe30
 5f0:	726f6d65 	rsbvc	r6, pc, #6464	; 0x1940
 5f4:	6d6f4379 	stclvs	3, cr4, [pc, #-484]!	; 418 <__PROGRAM_SIZE-0x9bec>
 5f8:	65726170 	ldrbvs	r6, [r2, #-368]!	; 0xfffffe90
 5fc:	6d654d00 	stclvs	13, cr4, [r5, #-0]
 600:	5379726f 	cmnpl	r9, #-268435450	; 0xf0000006
 604:	5f007465 	svcpl	0x00007465
 608:	4d33315a 	ldfmis	f3, [r3, #-360]!	; 0xfffffe98
 60c:	726f6d65 	rsbvc	r6, pc, #6464	; 0x1940
 610:	6d6f4379 	stclvs	3, cr4, [pc, #-484]!	; 434 <__PROGRAM_SIZE-0x9bd0>
 614:	65726170 	ldrbvs	r6, [r2, #-368]!	; 0xfffffe90
 618:	5f537650 	svcpl	0x00537650
 61c:	6f530069 	svcvs	0x00530069
 620:	65637275 	strbvs	r7, [r3, #-629]!	; 0xfffffd8b
 624:	395a5f00 	ldmdbcc	sl, {r8, r9, sl, fp, ip, lr}^
 628:	6f6d654d 	svcvs	0x006d654d
 62c:	65537972 	ldrbvs	r7, [r3, #-2418]	; 0xfffff68e
 630:	63765074 	cmnvs	r6, #116	; 0x74
 634:	6f730069 	svcvs	0x00730069
 638:	65637275 	strbvs	r7, [r3, #-629]!	; 0xfffffd8b
 63c:	6f72702f 	svcvs	0x0072702f
 640:	6d617267 	sfmvs	f7, 2, [r1, #-412]!	; 0xfffffe64
 644:	5f00632e 	svcpl	0x0000632e
 648:	4734315a 			; <UNDEFINED> instruction: 0x4734315a
 64c:	72507465 	subsvc	r7, r0, #1694498816	; 0x65000000
 650:	6172676f 	cmnvs	r2, pc, ror #14
 654:	73694c6d 	cmnvc	r9, #27904	; 0x6d00
 658:	47007674 	smlsdxmi	r0, r4, r6, r7
 65c:	72507465 	subsvc	r7, r0, #1694498816	; 0x65000000
 660:	6172676f 	cmnvs	r2, pc, ror #14
 664:	73694c6d 	cmnvc	r9, #27904	; 0x6d00
 668:	74530074 	ldrbvc	r0, [r3], #-116	; 0xffffff8c
 66c:	00747261 	rsbseq	r7, r4, r1, ror #4
 670:	69533131 	ldmdbvs	r3, {r0, r4, r5, r8, ip, sp}^
 674:	48616b77 	stmdami	r1!, {r0, r1, r2, r4, r5, r6, r8, r9, fp, sp, lr}^
 678:	65646165 	strbvs	r6, [r4, #-357]!	; 0xfffffe9b
 67c:	642f0072 	strtvs	r0, [pc], #-114	; 684 <__PROGRAM_SIZE-0x9980>
 680:	2f617461 	svccs	0x00617461
 684:	6b736544 	blvs	1cd9b9c <__PROGRAM_SIZE+0x1ccfb98>
 688:	2f706f74 	svccs	0x00706f74
 68c:	6b776953 	blvs	1ddabe0 <__PROGRAM_SIZE+0x1dd0bdc>
 690:	534f2061 	movtpl	r2, #61537	; 0xf061
 694:	6573552f 	ldrbvs	r5, [r3, #-1327]!	; 0xfffffad1
 698:	6e616c72 	mcrvs	12, 3, r6, cr1, cr2, {3}
 69c:	50412f64 	subpl	r2, r1, r4, ror #30
 6a0:	65470049 	strbvs	r0, [r7, #-73]	; 0xffffffb7
 6a4:	6f725074 	svcvs	0x00725074
 6a8:	6d617267 	sfmvs	f7, 2, [r1, #-412]!	; 0xfffffe64
 6ac:	614e7942 	cmpvs	lr, r2, asr #18
 6b0:	5300656d 	movwpl	r6, #1389	; 0x56d
 6b4:	616e6769 	cmnvs	lr, r9, ror #14
 6b8:	65727574 	ldrbvs	r7, [r2, #-1396]!	; 0xfffffa8c
 6bc:	315a5f00 	cmpcc	sl, r0, lsl #30
 6c0:	73795330 	cmnvc	r9, #48, 6	; 0xc0000000
 6c4:	436d6574 	cmnmi	sp, #116, 10	; 0x1d000000
 6c8:	6d6c6c61 	stclvs	12, cr6, [ip, #-388]!	; 0xfffffe7c
 6cc:	5f007650 	svcpl	0x00007650
 6d0:	4736315a 			; <UNDEFINED> instruction: 0x4736315a
 6d4:	72507465 	subsvc	r7, r0, #1694498816	; 0x65000000
 6d8:	6172676f 	cmnvs	r2, pc, ror #14
 6dc:	4e79426d 	cdpmi	2, 7, cr4, cr9, cr13, {3}
 6e0:	50656d61 	rsbpl	r6, r5, r1, ror #26
 6e4:	79530063 	ldmdbvc	r3, {r0, r1, r5, r6}^
 6e8:	6d657473 	cfstrdvs	mvd7, [r5, #-460]!	; 0xfffffe34
 6ec:	6c6c6143 	stfvse	f6, [ip], #-268	; 0xfffffef4
 6f0:	6f725000 	svcvs	0x00725000
 6f4:	73736563 	cmnvc	r3, #415236096	; 0x18c00000
 6f8:	49776152 	ldmdbmi	r7!, {r1, r4, r6, r8, sp, lr}^
 6fc:	7475706e 	ldrbtvc	r7, [r5], #-110	; 0xffffff92
 700:	756f4d00 	strbvc	r4, [pc, #-3328]!	; fffffa08 <__PROGRAM_END+0xfdff59dc>
 704:	48496573 	stmdami	r9, {r0, r1, r4, r5, r6, r8, sl, sp, lr}^
 708:	6c646e61 	stclvs	14, cr6, [r4], #-388	; 0xfffffe7c
 70c:	73007265 	movwvc	r7, #613	; 0x265
 710:	6372756f 	cmnvs	r2, #465567744	; 0x1bc00000
 714:	6e692f65 	cdpvs	15, 6, cr2, cr9, cr5, {3}
 718:	2e747570 	mrccs	5, 3, r7, cr4, cr0, {3}
 71c:	5a5f0063 	bpl	17c08b0 <__PROGRAM_SIZE+0x17b68ac>
 720:	72503531 	subsvc	r3, r0, #205520896	; 0xc400000
 724:	7365636f 	cmnvc	r5, #-1140850687	; 0xbc000001
 728:	77615273 			; <UNDEFINED> instruction: 0x77615273
 72c:	75706e49 	ldrbvc	r6, [r0, #-3657]!	; 0xfffff1b7
 730:	49355074 	ldmdbmi	r5!, {r2, r4, r5, r6, ip, lr}
 734:	7475706e 	ldrbtvc	r7, [r5], #-110	; 0xffffff92
 738:	706e4900 	rsbvc	r4, lr, r0, lsl #18
 73c:	76457475 			; <UNDEFINED> instruction: 0x76457475
 740:	00746e65 	rsbseq	r6, r4, r5, ror #28
 744:	384e5a5f 	stmdacc	lr, {r0, r1, r2, r3, r4, r6, r9, fp, ip, lr}^
 748:	70617247 	rsbvc	r7, r1, r7, asr #4
 74c:	73636968 	cmnvc	r3, #104, 18	; 0x1a0000
 750:	72463531 	subvc	r3, r6, #205520896	; 0xc400000
 754:	62656d61 	rsbvs	r6, r5, #6208	; 0x1840
 758:	65666675 	strbvs	r6, [r6, #-1653]!	; 0xfffff98b
 75c:	74614472 	strbtvc	r4, [r1], #-1138	; 0xfffffb8e
 760:	5f004561 	svcpl	0x00004561
 764:	47384e5a 			; <UNDEFINED> instruction: 0x47384e5a
 768:	68706172 	ldmdavs	r0!, {r1, r4, r5, r6, r8, sp, lr}^
 76c:	38736369 	ldmdacc	r3!, {r0, r3, r5, r6, r8, r9, sp, lr}^
 770:	50746553 	rsbspl	r6, r4, r3, asr r5
 774:	6c657869 	stclvs	8, cr7, [r5], #-420	; 0xfffffe5c
 778:	006d6d45 	rsbeq	r6, sp, r5, asr #26
 77c:	72756f73 	rsbsvc	r6, r5, #460	; 0x1cc
 780:	472f6563 	strmi	r6, [pc, -r3, ror #10]!
 784:	68706172 	ldmdavs	r0!, {r1, r4, r5, r6, r8, sp, lr}^
 788:	2f736369 	svccs	0x00736369
 78c:	70617267 	rsbvc	r7, r1, r7, ror #4
 790:	73636968 	cmnvc	r3, #104, 18	; 0x1a0000
 794:	5f00632e 	svcpl	0x0000632e
 798:	47384e5a 			; <UNDEFINED> instruction: 0x47384e5a
 79c:	68706172 	ldmdavs	r0!, {r1, r4, r5, r6, r8, sp, lr}^
 7a0:	38736369 	ldmdacc	r3!, {r0, r3, r5, r6, r8, r9, sp, lr}^
 7a4:	43746553 	cmnmi	r4, #348127232	; 0x14c00000
 7a8:	726f6c6f 	rsbvc	r6, pc, #28416	; 0x6f00
 7ac:	69696945 	stmdbvs	r9!, {r0, r2, r6, r8, fp, sp, lr}^
 7b0:	6e697500 	cdpvs	5, 6, cr7, cr9, cr0, {0}
 7b4:	5f003874 	svcpl	0x00003874
 7b8:	47384e5a 			; <UNDEFINED> instruction: 0x47384e5a
 7bc:	68706172 	ldmdavs	r0!, {r1, r4, r5, r6, r8, sp, lr}^
 7c0:	38736369 	ldmdacc	r3!, {r0, r3, r5, r6, r8, r9, sp, lr}^
 7c4:	50746547 	rsbspl	r6, r4, r7, asr #10
 7c8:	6c657869 	stclvs	8, cr7, [r5], #-420	; 0xfffffe5c
 7cc:	006d6d45 	rsbeq	r6, sp, r5, asr #26
 7d0:	61727241 	cmnvs	r2, r1, asr #4
 7d4:	636f4c79 	cmnvs	pc, #30976	; 0x7900
 7d8:	6f697461 	svcvs	0x00697461
 7dc:	6547006e 	strbvs	r0, [r7, #-110]	; 0xffffff92
 7e0:	78695074 	stmdavc	r9!, {r2, r4, r5, r6, ip, lr}^
 7e4:	5f006c65 	svcpl	0x00006c65
 7e8:	6e69755f 	mcrvs	5, 3, r7, cr9, cr15, {2}
 7ec:	745f3874 	ldrbvc	r3, [pc], #-2164	; 7f4 <__PROGRAM_SIZE-0x9810>
 7f0:	4e5a5f00 	cdpmi	15, 5, cr5, cr10, cr0, {0}
 7f4:	61724738 	cmnvs	r2, r8, lsr r7
 7f8:	63696870 	cmnvs	r9, #112, 16	; 0x700000
 7fc:	61503773 	cmpvs	r0, r3, ror r7
 800:	7474656c 	ldrbtvc	r6, [r4], #-1388	; 0xfffffa94
 804:	50004565 	andpl	r4, r0, r5, ror #10
 808:	746e696f 	strbtvc	r6, [lr], #-2415	; 0xfffff691
 80c:	32007265 	andcc	r7, r0, #1342177286	; 0x50000006
 810:	61724632 	cmnvs	r2, r2, lsr r6
 814:	7562656d 	strbvc	r6, [r2, #-1389]!	; 0xfffffa93
 818:	72656666 	rsbvc	r6, r5, #106954752	; 0x6600000
 81c:	63736544 	cmnvs	r3, #68, 10	; 0x11000000
 820:	74706972 	ldrbtvc	r6, [r0], #-2418	; 0xfffff68e
 824:	006e6f69 	rsbeq	r6, lr, r9, ror #30
 828:	74726956 	ldrbtvc	r6, [r2], #-2390	; 0xfffff6aa
 82c:	576c6175 			; <UNDEFINED> instruction: 0x576c6175
 830:	68746469 	ldmdavs	r4!, {r0, r3, r5, r6, sl, sp, lr}^
 834:	74695000 	strbtvc	r5, [r9], #-0
 838:	50006863 	andpl	r6, r0, r3, ror #16
 83c:	74656c61 	strbtvc	r6, [r5], #-3169	; 0xfffff39f
 840:	35006574 	strcc	r6, [r0, #-1396]	; 0xfffffa8c
 844:	6f6c6f43 	svcvs	0x006c6f43
 848:	69560072 	ldmdbvs	r6, {r1, r4, r5, r6}^
 84c:	61757472 	cmnvs	r5, r2, ror r4
 850:	6965486c 	stmdbvs	r5!, {r2, r3, r5, r6, fp, lr}^
 854:	00746867 	rsbseq	r6, r4, r7, ror #16
 858:	384e5a5f 	stmdacc	lr, {r0, r1, r2, r3, r4, r6, r9, fp, ip, lr}^
 85c:	70617247 	rsbvc	r7, r1, r7, asr #4
 860:	73636968 	cmnvc	r3, #104, 18	; 0x1a0000
 864:	72463131 	subvc	r3, r6, #1073741836	; 0x4000000c
 868:	62656d61 	rsbvs	r6, r5, #6208	; 0x1840
 86c:	65666675 	strbvs	r6, [r6, #-1653]!	; 0xfffff98b
 870:	46004572 			; <UNDEFINED> instruction: 0x46004572
 874:	656d6172 	strbvs	r6, [sp, #-370]!	; 0xfffffe8e
 878:	66667562 	strbtvs	r7, [r6], -r2, ror #10
 87c:	61447265 	cmpvs	r4, r5, ror #4
 880:	42006174 	andmi	r6, r0, #116, 2
 884:	65447469 	strbvs	r7, [r4, #-1129]	; 0xfffffb97
 888:	00687470 	rsbeq	r7, r8, r0, ror r4
 88c:	50746553 	rsbspl	r6, r4, r3, asr r5
 890:	6c657869 	stclvs	8, cr7, [r5], #-420	; 0xfffffe5c
 894:	74655300 	strbtvc	r5, [r5], #-768	; 0xfffffd00
 898:	74786554 	ldrbtvc	r6, [r8], #-1364	; 0xfffffaac
 89c:	746e6f46 	strbtvc	r6, [lr], #-3910	; 0xfffff0ba
 8a0:	4e5a5f00 	cdpmi	15, 5, cr5, cr10, cr0, {0}
 8a4:	61724738 	cmnvs	r2, r8, lsr r7
 8a8:	63696870 	cmnvs	r9, #112, 16	; 0x700000
 8ac:	54343173 	ldrtpl	r3, [r4], #-371	; 0xfffffe8d
 8b0:	46747865 	ldrbtmi	r7, [r4], -r5, ror #16
 8b4:	6765726f 	strbvs	r7, [r5, -pc, ror #4]!
 8b8:	6e756f72 	mrcvs	15, 3, r6, cr5, cr2, {3}
 8bc:	5f004564 	svcpl	0x00004564
 8c0:	47384e5a 			; <UNDEFINED> instruction: 0x47384e5a
 8c4:	68706172 	ldmdavs	r0!, {r1, r4, r5, r6, r8, sp, lr}^
 8c8:	32736369 	rsbscc	r6, r3, #-1543503871	; 0xa4000001
 8cc:	74655332 	strbtvc	r5, [r5], #-818	; 0xfffffcce
 8d0:	74786554 	ldrbtvc	r6, [r8], #-1364	; 0xfffffaac
 8d4:	6b636142 	blvs	18d8de4 <__PROGRAM_SIZE+0x18cede0>
 8d8:	756f7267 	strbvc	r7, [pc, #-615]!	; 679 <__PROGRAM_SIZE-0x998b>
 8dc:	6f43646e 	svcvs	0x0043646e
 8e0:	45726f6c 	ldrbmi	r6, [r2, #-3948]!	; 0xfffff094
 8e4:	5a5f006d 	bpl	17c0aa0 <__PROGRAM_SIZE+0x17b6a9c>
 8e8:	7247384e 	subvc	r3, r7, #5111808	; 0x4e0000
 8ec:	69687061 	stmdbvs	r8!, {r0, r5, r6, ip, sp, lr}^
 8f0:	31317363 	teqcc	r1, r3, ror #6
 8f4:	72727543 	rsbsvc	r7, r2, #281018368	; 0x10c00000
 8f8:	46746e65 	ldrbtmi	r6, [r4], -r5, ror #28
 8fc:	45746e6f 	ldrbmi	r6, [r4, #-3695]!	; 0xfffff191
 900:	6e6f4600 	cdpvs	6, 6, cr4, cr15, cr0, {0}
 904:	74614474 	strbtvc	r4, [r1], #-1140	; 0xfffffb8c
 908:	5f5f0061 	svcpl	0x005f0061
 90c:	746e6975 	strbtvc	r6, [lr], #-2421	; 0xfffff68b
 910:	745f3631 	ldrbvc	r3, [pc], #-1585	; 918 <__PROGRAM_SIZE-0x96ec>
 914:	4e5a5f00 	cdpmi	15, 5, cr5, cr10, cr0, {0}
 918:	61724738 	cmnvs	r2, r8, lsr r7
 91c:	63696870 	cmnvs	r9, #112, 16	; 0x700000
 920:	75503773 	ldrbvc	r3, [r0, #-1907]	; 0xfffff88d
 924:	61684374 	smcvs	33844	; 0x8434
 928:	69694572 	stmdbvs	r9!, {r1, r4, r5, r6, r8, sl, lr}^
 92c:	65540069 	ldrbvs	r0, [r4, #-105]	; 0xffffff97
 930:	54007478 	strpl	r7, [r0], #-1144	; 0xfffffb88
 934:	42747865 	rsbsmi	r7, r4, #6619136	; 0x650000
 938:	676b6361 	strbvs	r6, [fp, -r1, ror #6]!
 93c:	6e756f72 	mrcvs	15, 3, r6, cr5, cr2, {3}
 940:	65540064 	ldrbvs	r0, [r4, #-100]	; 0xffffff9c
 944:	6f467478 	svcvs	0x00467478
 948:	72676572 	rsbvc	r6, r7, #478150656	; 0x1c800000
 94c:	646e756f 	strbtvs	r7, [lr], #-1391	; 0xfffffa91
 950:	696c4100 	stmdbvs	ip!, {r8, lr}^
 954:	656d6e67 	strbvs	r6, [sp, #-3687]!	; 0xfffff199
 958:	5300746e 	movwpl	r7, #1134	; 0x46e
 95c:	65547465 	ldrbvs	r7, [r4, #-1125]	; 0xfffffb9b
 960:	6f467478 	svcvs	0x00467478
 964:	72676572 	rsbvc	r6, r7, #478150656	; 0x1c800000
 968:	646e756f 	strbtvs	r7, [lr], #-1391	; 0xfffffa91
 96c:	6f6c6f43 	svcvs	0x006c6f43
 970:	5a5f0072 	bpl	17c0b40 <__PROGRAM_SIZE+0x17b6b3c>
 974:	7247384e 	subvc	r3, r7, #5111808	; 0x4e0000
 978:	69687061 	stmdbvs	r8!, {r0, r5, r6, ip, sp, lr}^
 97c:	34317363 	ldrtcc	r7, [r1], #-867	; 0xfffffc9d
 980:	74786554 	ldrbtvc	r6, [r8], #-1364	; 0xfffffaac
 984:	6b636142 	blvs	18d8e94 <__PROGRAM_SIZE+0x18cee90>
 988:	756f7267 	strbvc	r7, [pc, #-615]!	; 729 <__PROGRAM_SIZE-0x98db>
 98c:	0045646e 	subeq	r6, r5, lr, ror #8
 990:	4677654e 	ldrbtmi	r6, [r7], -lr, asr #10
 994:	00746e6f 	rsbseq	r6, r4, pc, ror #28
 998:	54746553 	ldrbtpl	r6, [r4], #-1363	; 0xfffffaad
 99c:	42747865 	rsbsmi	r7, r4, #6619136	; 0x650000
 9a0:	676b6361 	strbvs	r6, [fp, -r1, ror #6]!
 9a4:	6e756f72 	mrcvs	15, 3, r6, cr5, cr2, {3}
 9a8:	6c6f4364 	stclvs	3, cr4, [pc], #-400	; 820 <__PROGRAM_SIZE-0x97e4>
 9ac:	7300726f 	movwvc	r7, #623	; 0x26f
 9b0:	6372756f 	cmnvs	r2, #465567744	; 0x1bc00000
 9b4:	72472f65 	subvc	r2, r7, #404	; 0x194
 9b8:	69687061 	stmdbvs	r8!, {r0, r5, r6, ip, sp, lr}^
 9bc:	742f7363 	strtvc	r7, [pc], #-867	; 9c4 <__PROGRAM_SIZE-0x9640>
 9c0:	2e747865 	cdpcs	8, 7, cr7, cr4, cr5, {3}
 9c4:	5a5f0063 	bpl	17c0b58 <__PROGRAM_SIZE+0x17b6b54>
 9c8:	7247384e 	subvc	r3, r7, #5111808	; 0x4e0000
 9cc:	69687061 	stmdbvs	r8!, {r0, r5, r6, ip, sp, lr}^
 9d0:	31317363 	teqcc	r1, r3, ror #6
 9d4:	54746553 	ldrbtpl	r6, [r4], #-1363	; 0xfffffaad
 9d8:	46747865 	ldrbtmi	r7, [r4], -r5, ror #16
 9dc:	45746e6f 	ldrbmi	r6, [r4, #-3695]!	; 0xfffff191
 9e0:	6553006d 	ldrbvs	r0, [r3, #-109]	; 0xffffff93
 9e4:	78655474 	stmdavc	r5!, {r2, r4, r5, r6, sl, ip, lr}^
 9e8:	6c6f4374 	stclvs	3, cr4, [pc], #-464	; 820 <__PROGRAM_SIZE-0x97e4>
 9ec:	0073726f 	rsbseq	r7, r3, pc, ror #4
 9f0:	43747550 	cmnmi	r4, #80, 10	; 0x14000000
 9f4:	00726168 	rsbseq	r6, r2, r8, ror #2
 9f8:	72727543 	rsbsvc	r7, r2, #281018368	; 0x10c00000
 9fc:	46746e65 	ldrbtmi	r6, [r4], -r5, ror #28
 a00:	00746e6f 	rsbseq	r6, r4, pc, ror #28
 a04:	384e5a5f 	stmdacc	lr, {r0, r1, r2, r3, r4, r6, r9, fp, ip, lr}^
 a08:	70617247 	rsbvc	r7, r1, r7, asr #4
 a0c:	73636968 	cmnvc	r3, #104, 18	; 0x1a0000
 a10:	65533232 	ldrbvs	r3, [r3, #-562]	; 0xfffffdce
 a14:	78655474 	stmdavc	r5!, {r2, r4, r5, r6, sl, ip, lr}^
 a18:	726f4674 	rsbvc	r4, pc, #116, 12	; 0x7400000
 a1c:	6f726765 	svcvs	0x00726765
 a20:	43646e75 	cmnmi	r4, #1872	; 0x750
 a24:	726f6c6f 	rsbvc	r6, pc, #28416	; 0x6f00
 a28:	43006d45 	movwmi	r6, #3397	; 0xd45
 a2c:	61726168 	cmnvs	r2, r8, ror #2
 a30:	72657463 	rsbvc	r7, r5, #1660944384	; 0x63000000
 a34:	4e5a5f00 	cdpmi	15, 5, cr5, cr10, cr0, {0}
 a38:	61724738 	cmnvs	r2, r8, lsr r7
 a3c:	63696870 	cmnvs	r9, #112, 16	; 0x700000
 a40:	53333173 	teqpl	r3, #-1073741796	; 0xc000001c
 a44:	65547465 	ldrbvs	r7, [r4, #-1125]	; 0xfffffb9b
 a48:	6f437478 	svcvs	0x00437478
 a4c:	73726f6c 	cmnvc	r2, #108, 30	; 0x1b0
 a50:	69696945 	stmdbvs	r9!, {r0, r2, r6, r8, fp, sp, lr}^
 a54:	00696969 	rsbeq	r6, r9, r9, ror #18
 a58:	656e694c 	strbvs	r6, [lr, #-2380]!	; 0xfffff6b4
 a5c:	756f7300 	strbvc	r7, [pc, #-768]!	; 764 <__PROGRAM_SIZE-0x98a0>
 a60:	2f656372 	svccs	0x00656372
 a64:	70617247 	rsbvc	r7, r1, r7, asr #4
 a68:	73636968 	cmnvc	r3, #104, 18	; 0x1a0000
 a6c:	6172662f 	cmnvs	r2, pc, lsr #12
 a70:	7562656d 	strbvc	r6, [r2, #-1389]!	; 0xfffffa93
 a74:	72656666 	rsbvc	r6, r5, #106954752	; 0x6600000
 a78:	5f00632e 	svcpl	0x0000632e
 a7c:	47384e5a 			; <UNDEFINED> instruction: 0x47384e5a
 a80:	68706172 	ldmdavs	r0!, {r1, r4, r5, r6, r8, sp, lr}^
 a84:	35736369 	ldrbcc	r6, [r3, #-873]!	; 0xfffffc97
 a88:	75746553 	ldrbvc	r6, [r4, #-1363]!	; 0xfffffaad
 a8c:	00764570 	rsbseq	r4, r6, r0, ror r5
 a90:	75746553 	ldrbvc	r6, [r4, #-1363]!	; 0xfffffaad
 a94:	5a5f0070 	bpl	17c0c5c <__PROGRAM_SIZE+0x17b6c58>
 a98:	7247384e 	subvc	r3, r7, #5111808	; 0x4e0000
 a9c:	69687061 	stmdbvs	r8!, {r0, r5, r6, ip, sp, lr}^
 aa0:	34317363 	ldrtcc	r7, [r1], #-867	; 0xfffffc9d
 aa4:	46746547 	ldrbtmi	r6, [r4], -r7, asr #10
 aa8:	656d6172 	strbvs	r6, [sp, #-370]!	; 0xfffffe8e
 aac:	66667562 	strbtvs	r7, [r6], -r2, ror #10
 ab0:	76457265 	strbvc	r7, [r5], -r5, ror #4
 ab4:	73655200 	cmnvc	r5, #0, 4
 ab8:	736e6f70 	cmnvc	lr, #112, 30	; 0x1c0
 abc:	65470065 	strbvs	r0, [r7, #-101]	; 0xffffff9b
 ac0:	61724674 	cmnvs	r2, r4, ror r6
 ac4:	7562656d 	strbvc	r6, [r2, #-1389]!	; 0xfffffa93
 ac8:	72656666 	rsbvc	r6, r5, #106954752	; 0x6600000
 acc:	43565300 	cmpmi	r6, #0, 6
 ad0:	00716552 	rsbseq	r6, r1, r2, asr r5
 ad4:	48435653 	stmdami	r3, {r0, r1, r4, r6, r9, sl, ip, lr}^
 ad8:	6c646e61 	stclvs	14, cr6, [r4], #-388	; 0xfffffe7c
 adc:	31007265 	tstcc	r0, r5, ror #4
 ae0:	43565330 	cmpmi	r6, #48, 6	; 0xc0000000
 ae4:	75716552 	ldrbvc	r6, [r1, #-1362]!	; 0xfffffaae
 ae8:	00747365 	rsbseq	r7, r4, r5, ror #6
 aec:	72756f73 	rsbsvc	r6, r5, #460	; 0x1cc
 af0:	732f6563 	teqvc	pc, #415236096	; 0x18c00000
 af4:	632e6376 	teqvs	lr, #-671088639	; 0xd8000001
 af8:	72615000 	rsbvc	r5, r1, #0
 afc:	43006d61 	movwmi	r6, #3425	; 0xd61
 b00:	0065646f 	rsbeq	r6, r5, pc, ror #8
 b04:	72756f73 	rsbsvc	r6, r5, #460	; 0x1cc
 b08:	732f6563 	teqvc	pc, #415236096	; 0x18c00000
 b0c:	74726174 	ldrbtvc	r6, [r2], #-372	; 0xfffffe8c
 b10:	5000632e 	andpl	r6, r0, lr, lsr #6
 b14:	72676f72 	rsbvc	r6, r7, #456	; 0x1c8
 b18:	65536d61 	ldrbvs	r6, [r3, #-3425]	; 0xfffff29f
 b1c:	73654d74 	cmnvc	r5, #116, 26	; 0x1d00
 b20:	65676173 	strbvs	r6, [r7, #-371]!	; 0xfffffe8d
 b24:	646e6148 	strbtvs	r6, [lr], #-328	; 0xfffffeb8
 b28:	0072656c 	rsbseq	r6, r2, ip, ror #10
 b2c:	65746e49 	ldrbvs	r6, [r4, #-3657]!	; 0xfffff1b7
 b30:	6c616e72 	stclvs	14, cr6, [r1], #-456	; 0xfffffe38
 b34:	6e69614d 	powvsem	f6, f1, #5.0
 b38:	315a5f00 	cmpcc	sl, r0, lsl #30
 b3c:	73654d34 	cmnvc	r5, #52, 26	; 0xd00
 b40:	65676173 	strbvs	r6, [r7, #-371]!	; 0xfffffe8d
 b44:	646e6148 	strbtvs	r6, [lr], #-328	; 0xfffffeb8
 b48:	6d72656c 	cfldr64vs	mvdx6, [r2, #-432]!	; 0xfffffe50
 b4c:	5f007650 	svcpl	0x00007650
 b50:	4932315a 	ldmdbmi	r2!, {r1, r3, r4, r6, r8, ip, sp}
 b54:	7265746e 	rsbvc	r7, r5, #1845493760	; 0x6e000000
 b58:	4d6c616e 	stfmie	f6, [ip, #-440]!	; 0xfffffe48
 b5c:	506e6961 	rsbpl	r6, lr, r1, ror #18
 b60:	506d6d46 	rsbpl	r6, sp, r6, asr #26
 b64:	5f004576 	svcpl	0x00004576
 b68:	5034325a 	eorspl	r3, r4, sl, asr r2
 b6c:	72676f72 	rsbvc	r6, r7, #456	; 0x1c8
 b70:	65536d61 	ldrbvs	r6, [r3, #-3425]	; 0xfffff29f
 b74:	73654d74 	cmnvc	r5, #116, 26	; 0x1d00
 b78:	65676173 	strbvs	r6, [r7, #-371]!	; 0xfffffe8d
 b7c:	646e6148 	strbtvs	r6, [lr], #-328	; 0xfffffeb8
 b80:	5072656c 	rsbspl	r6, r2, ip, ror #10
 b84:	Address 0x0000000000000b84 is out of bounds.


Disassembly of section .comment:

00000000 <.comment>:
   0:	3a434347 	bcc	10d0d24 <__PROGRAM_SIZE+0x10c6d20>
   4:	72412820 	subvc	r2, r1, #32, 16	; 0x200000
   8:	52206863 	eorpl	r6, r0, #6488064	; 0x630000
   c:	736f7065 	cmnvc	pc, #101	; 0x65
  10:	726f7469 	rsbvc	r7, pc, #1761607680	; 0x69000000
  14:	35202979 	strcc	r2, [r0, #-2425]!	; 0xfffff687
  18:	302e312e 	eorcc	r3, lr, lr, lsr #2
	...

Disassembly of section .ARM.attributes:

00000000 <.ARM.attributes>:
   0:	00002f41 	andeq	r2, r0, r1, asr #30
   4:	61656100 	cmnvs	r5, r0, lsl #2
   8:	01006962 	tsteq	r0, r2, ror #18
   c:	00000025 	andeq	r0, r0, r5, lsr #32
  10:	004a3605 	subeq	r3, sl, r5, lsl #12
  14:	01080606 	tsteq	r8, r6, lsl #12
  18:	020a0109 	andeq	r0, sl, #1073741826	; 0x40000002
  1c:	01140412 	tsteq	r4, r2, lsl r4
  20:	03170115 	tsteq	r7, #1073741829	; 0x40000005
  24:	011a0118 	tsteq	sl, r8, lsl r1
  28:	011c031b 	tsteq	ip, fp, lsl r3
  2c:	0122011e 	teqeq	r2, lr, lsl r1

Disassembly of section .debug_frame:

00000000 <.debug_frame>:
   0:	0000000c 	andeq	r0, r0, ip
   4:	ffffffff 			; <UNDEFINED> instruction: 0xffffffff
   8:	7c020001 	stcvc	0, cr0, [r2], {1}
   c:	000d0c0e 	andeq	r0, sp, lr, lsl #24
  10:	00000014 	andeq	r0, r0, r4, lsl r0
  14:	00000000 	andeq	r0, r0, r0
  18:	02000028 	andeq	r0, r0, #40	; 0x28
  1c:	00000020 	andeq	r0, r0, r0, lsr #32
  20:	84080e42 	strhi	r0, [r8], #-3650	; 0xfffff1be
  24:	00018e02 	andeq	r8, r1, r2, lsl #28
  28:	0000000c 	andeq	r0, r0, ip
  2c:	ffffffff 			; <UNDEFINED> instruction: 0xffffffff
  30:	7c020001 	stcvc	0, cr0, [r2], {1}
  34:	000d0c0e 	andeq	r0, sp, lr, lsl #24
  38:	0000000c 	andeq	r0, r0, ip
  3c:	00000028 	andeq	r0, r0, r8, lsr #32
  40:	02000048 	andeq	r0, r0, #72	; 0x48
  44:	00000038 	andeq	r0, r0, r8, lsr r0
  48:	00000028 	andeq	r0, r0, r8, lsr #32
  4c:	00000028 	andeq	r0, r0, r8, lsr #32
  50:	02000080 	andeq	r0, r0, #128	; 0x80
  54:	0000011c 	andeq	r0, r0, ip, lsl r1
  58:	84140e42 	ldrhi	r0, [r4], #-3650	; 0xfffff1be
  5c:	86048505 	strhi	r8, [r4], -r5, lsl #10
  60:	8e028703 	cdphi	7, 0, cr8, cr2, cr3, {0}
  64:	d40e4201 	strle	r4, [lr], #-513	; 0xfffffdff
  68:	d80e4240 	stmdale	lr, {r6, r9, lr}
  6c:	0e7c0240 	cdpeq	2, 7, cr0, cr12, cr0, {2}
  70:	00000014 	andeq	r0, r0, r4, lsl r0
  74:	00000014 	andeq	r0, r0, r4, lsl r0
  78:	00000028 	andeq	r0, r0, r8, lsr #32
  7c:	0200019c 	andeq	r0, r0, #156, 2	; 0x27
  80:	00000014 	andeq	r0, r0, r4, lsl r0
  84:	84080e42 	strhi	r0, [r8], #-3650	; 0xfffff1be
  88:	00018e02 	andeq	r8, r1, r2, lsl #28
  8c:	0000000c 	andeq	r0, r0, ip
  90:	ffffffff 			; <UNDEFINED> instruction: 0xffffffff
  94:	7c020001 	stcvc	0, cr0, [r2], {1}
  98:	000d0c0e 	andeq	r0, sp, lr, lsl #24
  9c:	00000018 	andeq	r0, r0, r8, lsl r0
  a0:	0000008c 	andeq	r0, r0, ip, lsl #1
  a4:	020001b0 	andeq	r0, r0, #176, 2	; 0x2c
  a8:	00000040 	andeq	r0, r0, r0, asr #32
  ac:	84100e48 	ldrhi	r0, [r0], #-3656	; 0xfffff1b8
  b0:	86038504 	strhi	r8, [r3], -r4, lsl #10
  b4:	00018e02 	andeq	r8, r1, r2, lsl #28
  b8:	0000000c 	andeq	r0, r0, ip
  bc:	ffffffff 			; <UNDEFINED> instruction: 0xffffffff
  c0:	7c020001 	stcvc	0, cr0, [r2], {1}
  c4:	000d0c0e 	andeq	r0, sp, lr, lsl #24
  c8:	0000000c 	andeq	r0, r0, ip
  cc:	000000b8 	strheq	r0, [r0], -r8
  d0:	020001f0 	andeq	r0, r0, #240, 2	; 0x3c
  d4:	0000001c 	andeq	r0, r0, ip, lsl r0
  d8:	00000018 	andeq	r0, r0, r8, lsl r0
  dc:	000000b8 	strheq	r0, [r0], -r8
  e0:	0200020c 	andeq	r0, r0, #12, 4	; 0xc0000000
  e4:	00000024 	andeq	r0, r0, r4, lsr #32
  e8:	84100e42 	ldrhi	r0, [r0], #-3650	; 0xfffff1be
  ec:	86038504 	strhi	r8, [r3], -r4, lsl #10
  f0:	00018e02 	andeq	r8, r1, r2, lsl #28
  f4:	00000018 	andeq	r0, r0, r8, lsl r0
  f8:	000000b8 	strheq	r0, [r0], -r8
  fc:	02000230 	andeq	r0, r0, #48, 4
 100:	0000008c 	andeq	r0, r0, ip, lsl #1
 104:	84100e42 	ldrhi	r0, [r0], #-3650	; 0xfffff1be
 108:	86038504 	strhi	r8, [r3], -r4, lsl #10
 10c:	00018e02 	andeq	r8, r1, r2, lsl #28
 110:	0000001c 	andeq	r0, r0, ip, lsl r0
 114:	000000b8 	strheq	r0, [r0], -r8
 118:	020002bc 	andeq	r0, r0, #188, 4	; 0xc000000b
 11c:	00000040 	andeq	r0, r0, r0, asr #32
 120:	84180e42 	ldrhi	r0, [r8], #-3650	; 0xfffff1be
 124:	86058506 	strhi	r8, [r5], -r6, lsl #10
 128:	88038704 	stmdahi	r3, {r2, r8, r9, sl, pc}
 12c:	00018e02 	andeq	r8, r1, r2, lsl #28
 130:	0000001c 	andeq	r0, r0, ip, lsl r0
 134:	000000b8 	strheq	r0, [r0], -r8
 138:	020002fc 	andeq	r0, r0, #252, 4	; 0xc000000f
 13c:	00000068 	andeq	r0, r0, r8, rrx
 140:	84180e42 	ldrhi	r0, [r8], #-3650	; 0xfffff1be
 144:	86058506 	strhi	r8, [r5], -r6, lsl #10
 148:	89038804 	stmdbhi	r3, {r2, fp, pc}
 14c:	00018e02 	andeq	r8, r1, r2, lsl #28
 150:	00000014 	andeq	r0, r0, r4, lsl r0
 154:	000000b8 	strheq	r0, [r0], -r8
 158:	02000364 	andeq	r0, r0, #100, 6	; 0x90000001
 15c:	00000038 	andeq	r0, r0, r8, lsr r0
 160:	84080e42 	strhi	r0, [r8], #-3650	; 0xfffff1be
 164:	00018e02 	andeq	r8, r1, r2, lsl #28
 168:	00000020 	andeq	r0, r0, r0, lsr #32
 16c:	000000b8 	strheq	r0, [r0], -r8
 170:	0200039c 	andeq	r0, r0, #156, 6	; 0x70000002
 174:	0000006c 	andeq	r0, r0, ip, rrx
 178:	84100e42 	ldrhi	r0, [r0], #-3650	; 0xfffff1be
 17c:	86038504 	strhi	r8, [r3], -r4, lsl #10
 180:	70018702 	andvc	r8, r1, r2, lsl #14
 184:	c4c5c6c7 	strbgt	ip, [r5], #1735	; 0x6c7
 188:	0000000e 	andeq	r0, r0, lr
 18c:	0000000c 	andeq	r0, r0, ip
 190:	000000b8 	strheq	r0, [r0], -r8
 194:	02000408 	andeq	r0, r0, #8, 8	; 0x8000000
 198:	00000038 	andeq	r0, r0, r8, lsr r0
 19c:	00000040 	andeq	r0, r0, r0, asr #32
 1a0:	000000b8 	strheq	r0, [r0], -r8
 1a4:	02000440 	andeq	r0, r0, #64, 8	; 0x40000000
 1a8:	00000198 	muleq	r0, r8, r1
 1ac:	810c0e42 	tsthi	ip, r2, asr #28
 1b0:	83028203 	movwhi	r8, #8707	; 0x2203
 1b4:	2c0e4201 	sfmcs	f4, 4, [lr], {1}
 1b8:	0a850b84 	beq	fe142fd0 <__PROGRAM_END+0xfc138fa4>
 1bc:	08870986 	stmeq	r7, {r1, r2, r7, r8, fp}
 1c0:	06890788 	streq	r0, [r9], r8, lsl #15
 1c4:	048e058a 	streq	r0, [lr], #1418	; 0x58a
 1c8:	02580e42 	subseq	r0, r8, #1056	; 0x420
 1cc:	422c0ec0 	eormi	r0, ip, #192, 28	; 0xc00
 1d0:	c8c9cace 	stmiagt	r9, {r1, r2, r3, r6, r7, r9, fp, lr, pc}^
 1d4:	c4c5c6c7 	strbgt	ip, [r5], #1735	; 0x6c7
 1d8:	c3420c0e 	movtgt	r0, #11278	; 0x2c0e
 1dc:	000ec1c2 	andeq	ip, lr, r2, asr #3
 1e0:	0000000c 	andeq	r0, r0, ip
 1e4:	000000b8 	strheq	r0, [r0], -r8
 1e8:	020005d8 	andeq	r0, r0, #216, 10	; 0x36000000
 1ec:	00000038 	andeq	r0, r0, r8, lsr r0
 1f0:	0000000c 	andeq	r0, r0, ip
 1f4:	ffffffff 			; <UNDEFINED> instruction: 0xffffffff
 1f8:	7c020001 	stcvc	0, cr0, [r2], {1}
 1fc:	000d0c0e 	andeq	r0, sp, lr, lsl #24
 200:	0000000c 	andeq	r0, r0, ip
 204:	000001f0 	strdeq	r0, [r0], -r0	; <UNPREDICTABLE>
 208:	02000618 	andeq	r0, r0, #24, 12	; 0x1800000
 20c:	0000001c 	andeq	r0, r0, ip, lsl r0
 210:	00000024 	andeq	r0, r0, r4, lsr #32
 214:	000001f0 	strdeq	r0, [r0], -r0	; <UNPREDICTABLE>
 218:	02000634 	andeq	r0, r0, #52, 12	; 0x3400000
 21c:	000000f0 	strdeq	r0, [r0], -r0	; <UNPREDICTABLE>
 220:	84140e68 	ldrhi	r0, [r4], #-3688	; 0xfffff198
 224:	86048505 	strhi	r8, [r4], -r5, lsl #10
 228:	8e028703 	cdphi	7, 0, cr8, cr2, cr3, {0}
 22c:	0e400201 	cdpeq	2, 4, cr0, cr0, cr1, {0}
 230:	c6c5c400 	strbgt	ip, [r5], r0, lsl #8
 234:	0000cec7 	andeq	ip, r0, r7, asr #29
 238:	0000000c 	andeq	r0, r0, ip
 23c:	000001f0 	strdeq	r0, [r0], -r0	; <UNPREDICTABLE>
 240:	02000724 	andeq	r0, r0, #36, 14	; 0x900000
 244:	0000002c 	andeq	r0, r0, ip, lsr #32
 248:	0000000c 	andeq	r0, r0, ip
 24c:	ffffffff 			; <UNDEFINED> instruction: 0xffffffff
 250:	7c020001 	stcvc	0, cr0, [r2], {1}
 254:	000d0c0e 	andeq	r0, sp, lr, lsl #24
 258:	00000014 	andeq	r0, r0, r4, lsl r0
 25c:	00000248 	andeq	r0, r0, r8, asr #4
 260:	02000750 	andeq	r0, r0, #80, 14	; 0x1400000
 264:	00000014 	andeq	r0, r0, r4, lsl r0
 268:	84080e42 	strhi	r0, [r8], #-3650	; 0xfffff1be
 26c:	00018e02 	andeq	r8, r1, r2, lsl #28
 270:	00000014 	andeq	r0, r0, r4, lsl r0
 274:	00000248 	andeq	r0, r0, r8, asr #4
 278:	02000764 	andeq	r0, r0, #100, 14	; 0x1900000
 27c:	00000014 	andeq	r0, r0, r4, lsl r0
 280:	84080e42 	strhi	r0, [r8], #-3650	; 0xfffff1be
 284:	00018e02 	andeq	r8, r1, r2, lsl #28
 288:	00000014 	andeq	r0, r0, r4, lsl r0
 28c:	00000248 	andeq	r0, r0, r8, asr #4
 290:	02000778 	andeq	r0, r0, #120, 14	; 0x1e00000
 294:	00000014 	andeq	r0, r0, r4, lsl r0
 298:	84080e42 	strhi	r0, [r8], #-3650	; 0xfffff1be
 29c:	00018e02 	andeq	r8, r1, r2, lsl #28
 2a0:	0000000c 	andeq	r0, r0, ip
 2a4:	ffffffff 			; <UNDEFINED> instruction: 0xffffffff
 2a8:	7c020001 	stcvc	0, cr0, [r2], {1}
 2ac:	000d0c0e 	andeq	r0, sp, lr, lsl #24
 2b0:	00000014 	andeq	r0, r0, r4, lsl r0
 2b4:	000002a0 	andeq	r0, r0, r0, lsr #5
 2b8:	0200078c 	andeq	r0, r0, #140, 14	; 0x2300000
 2bc:	0000002c 	andeq	r0, r0, ip, lsr #32
 2c0:	84080e50 	strhi	r0, [r8], #-3664	; 0xfffff1b0
 2c4:	00018e02 	andeq	r8, r1, r2, lsl #28
 2c8:	0000000c 	andeq	r0, r0, ip
 2cc:	000002a0 	andeq	r0, r0, r0, lsr #5
 2d0:	020007b8 	andeq	r0, r0, #184, 14	; 0x2e00000
 2d4:	00000010 	andeq	r0, r0, r0, lsl r0
 2d8:	0000000c 	andeq	r0, r0, ip
 2dc:	ffffffff 			; <UNDEFINED> instruction: 0xffffffff
 2e0:	7c020001 	stcvc	0, cr0, [r2], {1}
 2e4:	000d0c0e 	andeq	r0, sp, lr, lsl #24
 2e8:	0000000c 	andeq	r0, r0, ip
 2ec:	000002d8 	ldrdeq	r0, [r0], -r8
 2f0:	020007c8 	andeq	r0, r0, #200, 14	; 0x3200000
 2f4:	00000058 	andeq	r0, r0, r8, asr r0
 2f8:	0000000c 	andeq	r0, r0, ip
 2fc:	000002d8 	ldrdeq	r0, [r0], -r8
 300:	02000820 	andeq	r0, r0, #32, 16	; 0x200000
 304:	0000001c 	andeq	r0, r0, ip, lsl r0
 308:	0000000c 	andeq	r0, r0, ip
 30c:	000002d8 	ldrdeq	r0, [r0], -r8
 310:	0200083c 	andeq	r0, r0, #60, 16	; 0x3c0000
 314:	00000020 	andeq	r0, r0, r0, lsr #32
 318:	0000000c 	andeq	r0, r0, ip
 31c:	000002d8 	ldrdeq	r0, [r0], -r8
 320:	0200085c 	andeq	r0, r0, #92, 16	; 0x5c0000
 324:	00000018 	andeq	r0, r0, r8, lsl r0
 328:	0000001c 	andeq	r0, r0, ip, lsl r0
 32c:	000002d8 	ldrdeq	r0, [r0], -r8
 330:	02000874 	andeq	r0, r0, #116, 16	; 0x740000
 334:	0000008c 	andeq	r0, r0, ip, lsl #1
 338:	84180e46 	ldrhi	r0, [r8], #-3654	; 0xfffff1ba
 33c:	86058506 	strhi	r8, [r5], -r6, lsl #10
 340:	88038704 	stmdahi	r3, {r2, r8, r9, sl, pc}
 344:	00018e02 	andeq	r8, r1, r2, lsl #28
 348:	0000000c 	andeq	r0, r0, ip
 34c:	ffffffff 			; <UNDEFINED> instruction: 0xffffffff
 350:	7c020001 	stcvc	0, cr0, [r2], {1}
 354:	000d0c0e 	andeq	r0, sp, lr, lsl #24
 358:	0000000c 	andeq	r0, r0, ip
 35c:	00000348 	andeq	r0, r0, r8, asr #6
 360:	02000900 	andeq	r0, r0, #0, 18
 364:	00000020 	andeq	r0, r0, r0, lsr #32
 368:	0000000c 	andeq	r0, r0, ip
 36c:	00000348 	andeq	r0, r0, r8, asr #6
 370:	02000920 	andeq	r0, r0, #32, 18	; 0x80000
 374:	00000020 	andeq	r0, r0, r0, lsr #32
 378:	0000000c 	andeq	r0, r0, ip
 37c:	00000348 	andeq	r0, r0, r8, asr #6
 380:	02000940 	andeq	r0, r0, #64, 18	; 0x100000
 384:	00000010 	andeq	r0, r0, r0, lsl r0
 388:	00000028 	andeq	r0, r0, r8, lsr #32
 38c:	00000348 	andeq	r0, r0, r8, asr #6
 390:	02000950 	andeq	r0, r0, #80, 18	; 0x140000
 394:	0000012c 	andeq	r0, r0, ip, lsr #2
 398:	84240e48 	strthi	r0, [r4], #-3656	; 0xfffff1b8
 39c:	86088509 	strhi	r8, [r8], -r9, lsl #10
 3a0:	88068707 	stmdahi	r6, {r0, r1, r2, r8, r9, sl, pc}
 3a4:	8a048905 	bhi	1227c0 <__PROGRAM_SIZE+0x1187bc>
 3a8:	8e028b03 	vmlahi.f64	d8, d2, d3
 3ac:	300e4e01 	andcc	r4, lr, r1, lsl #28
 3b0:	240e7602 	strcs	r7, [lr], #-1538	; 0xfffff9fe
 3b4:	0000001c 	andeq	r0, r0, ip, lsl r0
 3b8:	00000348 	andeq	r0, r0, r8, asr #6
 3bc:	02000a7c 	andeq	r0, r0, #124, 20	; 0x7c000
 3c0:	00000070 	andeq	r0, r0, r0, ror r0
 3c4:	84180e42 	ldrhi	r0, [r8], #-3650	; 0xfffff1be
 3c8:	86058506 	strhi	r8, [r5], -r6, lsl #10
 3cc:	88038704 	stmdahi	r3, {r2, r8, r9, sl, pc}
 3d0:	00018e02 	andeq	r8, r1, r2, lsl #28
 3d4:	0000000c 	andeq	r0, r0, ip
 3d8:	00000348 	andeq	r0, r0, r8, asr #6
 3dc:	02000aec 	andeq	r0, r0, #236, 20	; 0xec000
 3e0:	00000034 	andeq	r0, r0, r4, lsr r0
 3e4:	0000000c 	andeq	r0, r0, ip
 3e8:	ffffffff 			; <UNDEFINED> instruction: 0xffffffff
 3ec:	7c020001 	stcvc	0, cr0, [r2], {1}
 3f0:	000d0c0e 	andeq	r0, sp, lr, lsl #24
 3f4:	00000018 	andeq	r0, r0, r8, lsl r0
 3f8:	000003e4 	andeq	r0, r0, r4, ror #7
 3fc:	02000b20 	andeq	r0, r0, #32, 22	; 0x8000
 400:	00000074 	andeq	r0, r0, r4, ror r0
 404:	8e040e42 	cdphi	14, 0, cr0, cr4, cr2, {2}
 408:	100e4201 	andne	r4, lr, r1, lsl #4
 40c:	00040e72 	andeq	r0, r4, r2, ror lr
 410:	0000000c 	andeq	r0, r0, ip
 414:	000003e4 	andeq	r0, r0, r4, ror #7
 418:	02000b94 	andeq	r0, r0, #148, 22	; 0x25000
 41c:	00000010 	andeq	r0, r0, r0, lsl r0
 420:	0000000c 	andeq	r0, r0, ip
 424:	ffffffff 			; <UNDEFINED> instruction: 0xffffffff
 428:	7c020001 	stcvc	0, cr0, [r2], {1}
 42c:	000d0c0e 	andeq	r0, sp, lr, lsl #24
 430:	00000014 	andeq	r0, r0, r4, lsl r0
 434:	00000420 	andeq	r0, r0, r0, lsr #8
 438:	02000ba4 	andeq	r0, r0, #164, 22	; 0x29000
 43c:	00000018 	andeq	r0, r0, r8, lsl r0
 440:	84080e42 	strhi	r0, [r8], #-3650	; 0xfffff1be
 444:	00018e02 	andeq	r8, r1, r2, lsl #28
 448:	0000000c 	andeq	r0, r0, ip
 44c:	ffffffff 			; <UNDEFINED> instruction: 0xffffffff
 450:	7c020001 	stcvc	0, cr0, [r2], {1}
 454:	000d0c0e 	andeq	r0, sp, lr, lsl #24
 458:	00000018 	andeq	r0, r0, r8, lsl r0
 45c:	00000448 	andeq	r0, r0, r8, asr #8
 460:	02000bbc 	andeq	r0, r0, #188, 22	; 0x2f000
 464:	00000038 	andeq	r0, r0, r8, lsr r0
 468:	84100e42 	ldrhi	r0, [r0], #-3650	; 0xfffff1be
 46c:	86038504 	strhi	r8, [r3], -r4, lsl #10
 470:	00018e02 	andeq	r8, r1, r2, lsl #28
 474:	00000014 	andeq	r0, r0, r4, lsl r0
 478:	00000448 	andeq	r0, r0, r8, asr #8
 47c:	02000bf4 	andeq	r0, r0, #244, 22	; 0x3d000
 480:	00000014 	andeq	r0, r0, r4, lsl r0
 484:	84080e42 	strhi	r0, [r8], #-3650	; 0xfffff1be
 488:	00018e02 	andeq	r8, r1, r2, lsl #28
 48c:	00000014 	andeq	r0, r0, r4, lsl r0
 490:	00000448 	andeq	r0, r0, r8, asr #8
 494:	02000000 	andeq	r0, r0, #0
 498:	00000028 	andeq	r0, r0, r8, lsr #32
 49c:	84080e42 	strhi	r0, [r8], #-3650	; 0xfffff1be
 4a0:	00018e02 	andeq	r8, r1, r2, lsl #28
 4a4:	0000000c 	andeq	r0, r0, ip
 4a8:	ffffffff 			; <UNDEFINED> instruction: 0xffffffff
 4ac:	7c010001 	stcvc	0, cr0, [r1], {1}
 4b0:	000d0c0e 	andeq	r0, sp, lr, lsl #24
 4b4:	00000014 	andeq	r0, r0, r4, lsl r0
 4b8:	000004a4 	andeq	r0, r0, r4, lsr #9
 4bc:	02000c08 	andeq	r0, r0, #8, 24	; 0x800
 4c0:	0000003c 	andeq	r0, r0, ip, lsr r0
 4c4:	0e038e68 	cdpeq	14, 0, cr8, cr3, cr8, {3}
 4c8:	00000010 	andeq	r0, r0, r0, lsl r0
 4cc:	0000000c 	andeq	r0, r0, ip
 4d0:	ffffffff 			; <UNDEFINED> instruction: 0xffffffff
 4d4:	7c020001 	stcvc	0, cr0, [r2], {1}
 4d8:	000d0c0e 	andeq	r0, sp, lr, lsl #24
 4dc:	0000002c 	andeq	r0, r0, ip, lsr #32
 4e0:	000004cc 	andeq	r0, r0, ip, asr #9
 4e4:	02000c44 	andeq	r0, r0, #68, 24	; 0x4400
 4e8:	00000044 	andeq	r0, r0, r4, asr #32
 4ec:	84200e42 	strthi	r0, [r0], #-3650	; 0xfffff1be
 4f0:	86078508 	strhi	r8, [r7], -r8, lsl #10
 4f4:	88058706 	stmdahi	r5, {r1, r2, r8, r9, sl, pc}
 4f8:	8a038904 	bhi	e2910 <__PROGRAM_SIZE+0xd890c>
 4fc:	5e018e02 	cdppl	14, 0, cr8, cr1, cr2, {0}
 500:	c8c9cace 	stmiagt	r9, {r1, r2, r3, r6, r7, r9, fp, lr, pc}^
 504:	c4c5c6c7 	strbgt	ip, [r5], #1735	; 0x6c7
 508:	0000000e 	andeq	r0, r0, lr
 50c:	00000024 	andeq	r0, r0, r4, lsr #32
 510:	000004cc 	andeq	r0, r0, ip, asr #9
 514:	02000c88 	andeq	r0, r0, #136, 24	; 0x8800
 518:	00000040 	andeq	r0, r0, r0, asr #32
 51c:	84180e42 	ldrhi	r0, [r8], #-3650	; 0xfffff1be
 520:	86058506 	strhi	r8, [r5], -r6, lsl #10
 524:	88038704 	stmdahi	r3, {r2, r8, r9, sl, pc}
 528:	5c018e02 	stcpl	14, cr8, [r1], {2}
 52c:	c6c7c8ce 	strbgt	ip, [r7], lr, asr #17
 530:	000ec4c5 	andeq	ip, lr, r5, asr #9
 534:	0000000c 	andeq	r0, r0, ip
 538:	ffffffff 			; <UNDEFINED> instruction: 0xffffffff
 53c:	7c020001 	stcvc	0, cr0, [r2], {1}
 540:	000d0c0e 	andeq	r0, sp, lr, lsl #24
 544:	00000034 	andeq	r0, r0, r4, lsr r0
 548:	00000534 	andeq	r0, r0, r4, lsr r5
 54c:	02000ccc 	andeq	r0, r0, #204, 24	; 0xcc00
 550:	00000178 	andeq	r0, r0, r8, ror r1
 554:	83280e44 	teqhi	r8, #68, 28	; 0x440
 558:	8509840a 	strhi	r8, [r9, #-1034]	; 0xfffffbf6
 55c:	87078608 	strhi	r8, [r7, -r8, lsl #12]
 560:	89058806 	stmdbhi	r5, {r1, r2, fp, pc}
 564:	8b038a04 	blhi	e2d7c <__PROGRAM_SIZE+0xd8d78>
 568:	02018e02 	andeq	r8, r1, #2, 28
 56c:	cbce0aa6 	blgt	ff38300c <__PROGRAM_END+0xfd378fe0>
 570:	c7c8c9ca 	strbgt	ip, [r8, sl, asr #19]
 574:	c3c4c5c6 	bicgt	ip, r4, #830472192	; 0x31800000
 578:	0b42000e 	bleq	10805b8 <__PROGRAM_SIZE+0x10765b4>
 57c:	0000000c 	andeq	r0, r0, ip
 580:	ffffffff 			; <UNDEFINED> instruction: 0xffffffff
 584:	7c020001 	stcvc	0, cr0, [r2], {1}
 588:	000d0c0e 	andeq	r0, sp, lr, lsl #24
 58c:	0000002c 	andeq	r0, r0, ip, lsr #32
 590:	0000057c 	andeq	r0, r0, ip, ror r5
 594:	02000e44 	andeq	r0, r0, #68, 28	; 0x440
 598:	00000120 	andeq	r0, r0, r0, lsr #2
 59c:	84200e46 	strthi	r0, [r0], #-3654	; 0xfffff1ba
 5a0:	86078508 	strhi	r8, [r7], -r8, lsl #10
 5a4:	88058706 	stmdahi	r5, {r1, r2, r8, r9, sl, pc}
 5a8:	8a038904 	bhi	e29c0 <__PROGRAM_SIZE+0xd89bc>
 5ac:	02018e02 	andeq	r8, r1, #2, 28
 5b0:	c9cace88 	stmibgt	sl, {r3, r7, r9, sl, fp, lr, pc}^
 5b4:	c5c6c7c8 	strbgt	ip, [r6, #1992]	; 0x7c8
 5b8:	00000ec4 	andeq	r0, r0, r4, asr #29

Disassembly of section .debug_ranges:

00000000 <.debug_ranges>:
   0:	0000006c 	andeq	r0, r0, ip, rrx
   4:	000000a0 	andeq	r0, r0, r0, lsr #1
   8:	000000b4 	strheq	r0, [r0], -r4
   c:	000000b8 	strheq	r0, [r0], -r8
	...
  18:	00000064 	andeq	r0, r0, r4, rrx
  1c:	000000a4 	andeq	r0, r0, r4, lsr #1
  20:	000000a8 	andeq	r0, r0, r8, lsr #1
  24:	000000ac 	andeq	r0, r0, ip, lsr #1
  28:	000000bc 	strheq	r0, [r0], -ip
  2c:	000000c8 	andeq	r0, r0, r8, asr #1
	...
  38:	00000280 	andeq	r0, r0, r0, lsl #5
  3c:	00000288 	andeq	r0, r0, r8, lsl #5
  40:	00000298 	muleq	r0, r8, r2
  44:	000003c0 	andeq	r0, r0, r0, asr #7
	...
  50:	02000618 	andeq	r0, r0, #24, 12	; 0x1800000
  54:	02000750 	andeq	r0, r0, #80, 14	; 0x1400000
	...
  60:	0000000c 	andeq	r0, r0, ip
  64:	0000001c 	andeq	r0, r0, ip, lsl r0
  68:	00000020 	andeq	r0, r0, r0, lsr #32
  6c:	0000002c 	andeq	r0, r0, ip, lsr #32
	...
  78:	000000ac 	andeq	r0, r0, ip, lsr #1
  7c:	000000b4 	strheq	r0, [r0], -r4
  80:	000000cc 	andeq	r0, r0, ip, asr #1
  84:	00000138 	andeq	r0, r0, r8, lsr r1
	...
  90:	000000d8 	ldrdeq	r0, [r0], -r8
  94:	00000104 	andeq	r0, r0, r4, lsl #2
  98:	00000108 	andeq	r0, r0, r8, lsl #2
  9c:	00000110 	andeq	r0, r0, r0, lsl r1
  a0:	00000114 	andeq	r0, r0, r4, lsl r1
  a4:	00000118 	andeq	r0, r0, r8, lsl r1
	...
  b0:	00000064 	andeq	r0, r0, r4, rrx
  b4:	00000078 	andeq	r0, r0, r8, ror r0
  b8:	0000007c 	andeq	r0, r0, ip, ror r0
  bc:	00000164 	andeq	r0, r0, r4, ror #2
	...
  c8:	00000064 	andeq	r0, r0, r4, rrx
  cc:	00000070 	andeq	r0, r0, r0, ror r0
  d0:	0000007c 	andeq	r0, r0, ip, ror r0
  d4:	00000080 	andeq	r0, r0, r0, lsl #1
  d8:	00000090 	muleq	r0, r0, r0
  dc:	00000094 	muleq	r0, r4, r0
  e0:	00000098 	muleq	r0, r8, r0
  e4:	00000164 	andeq	r0, r0, r4, ror #2
	...
  f0:	00000068 	andeq	r0, r0, r8, rrx
  f4:	00000070 	andeq	r0, r0, r0, ror r0
  f8:	0000007c 	andeq	r0, r0, ip, ror r0
  fc:	00000080 	andeq	r0, r0, r0, lsl #1
 100:	00000090 	muleq	r0, r0, r0
 104:	00000094 	muleq	r0, r4, r0
 108:	00000098 	muleq	r0, r8, r0
 10c:	000000a4 	andeq	r0, r0, r4, lsr #1
 110:	000000b4 	strheq	r0, [r0], -r4
 114:	00000158 	andeq	r0, r0, r8, asr r1
	...
 120:	00000068 	andeq	r0, r0, r8, rrx
 124:	00000070 	andeq	r0, r0, r0, ror r0
 128:	0000007c 	andeq	r0, r0, ip, ror r0
 12c:	00000080 	andeq	r0, r0, r0, lsl #1
 130:	00000090 	muleq	r0, r0, r0
 134:	00000094 	muleq	r0, r4, r0
 138:	00000098 	muleq	r0, r8, r0
 13c:	000000a4 	andeq	r0, r0, r4, lsr #1
 140:	000000b4 	strheq	r0, [r0], -r4
 144:	000000bc 	strheq	r0, [r0], -ip
 148:	000000c0 	andeq	r0, r0, r0, asr #1
 14c:	000000e0 	andeq	r0, r0, r0, ror #1
 150:	000000e4 	andeq	r0, r0, r4, ror #1
 154:	000000ec 	andeq	r0, r0, ip, ror #1
 158:	000000f0 	strdeq	r0, [r0], -r0	; <UNPREDICTABLE>
 15c:	00000124 	andeq	r0, r0, r4, lsr #2
 160:	00000128 	andeq	r0, r0, r8, lsr #2
 164:	00000148 	andeq	r0, r0, r8, asr #2
 168:	0000014c 	andeq	r0, r0, ip, asr #2
 16c:	00000154 	andeq	r0, r0, r4, asr r1
	...
 178:	02000bbc 	andeq	r0, r0, #188, 22	; 0x2f000
 17c:	02000c08 	andeq	r0, r0, #8, 24	; 0x800
 180:	02000000 	andeq	r0, r0, #0
 184:	02000028 	andeq	r0, r0, #40	; 0x28
	...
